

Microchip MPLAB XC8 Assembler V2.40 build 20220703182018 
                                                                                               Fri May 05 19:08:31 2023

Microchip MPLAB XC8 C Compiler v2.40 (Free license) build 20220703182018 Og1 
     1                           	processor	18F57Q43
     2                           	fnconf	rparam,??,?,0
     3                           	pagewidth 120
     4                           	opt	flic
     5                           	psect	nvBANK5,global,class=BANK5,space=1,delta=1,lowdata,noexec
     6                           	psect	smallconst,global,reloc=2,class=SMALLCONST,delta=1,noexec
     7                           	psect	cinit,global,reloc=2,class=CODE,delta=1
     8                           	psect	bssCOMRAM,global,class=COMRAM,space=1,delta=1,lowdata,noexec
     9                           	psect	bssBANK5,global,class=BANK5,space=1,delta=1,lowdata,noexec
    10                           	psect	bssBANK6,global,class=BANK6,space=1,delta=1,lowdata,noexec
    11                           	psect	cstackBANK5,global,class=BANK5,space=1,delta=1,lowdata,noexec
    12                           	psect	cstackCOMRAM,global,class=COMRAM,space=1,delta=1,lowdata,noexec
    13                           	psect	text0,global,reloc=2,class=CODE,delta=1
    14                           	psect	text1,global,reloc=2,class=CODE,delta=1,group=3
    15                           	psect	text2,global,reloc=2,class=CODE,delta=1,group=1
    16                           	psect	text3,global,reloc=2,class=CODE,delta=1,group=1
    17                           	psect	text4,global,reloc=2,class=CODE,delta=1,group=1
    18                           	psect	text5,global,reloc=2,class=CODE,delta=1,group=3
    19                           	psect	text6,global,reloc=2,class=CODE,delta=1,group=3
    20                           	psect	text7,global,reloc=2,class=CODE,delta=1,group=3
    21                           	psect	text8,global,reloc=2,class=CODE,delta=1,group=3
    22                           	psect	text9,global,reloc=2,class=CODE,delta=1,group=3
    23                           	psect	text10,global,reloc=2,class=CODE,delta=1,group=2
    24                           	psect	text11,global,reloc=2,class=CODE,delta=1,group=2
    25                           	psect	text12,global,reloc=2,class=CODE,delta=1,group=2
    26                           	psect	text13,global,reloc=2,class=CODE,delta=1,group=2
    27                           	psect	text14,global,reloc=2,class=CODE,delta=1,group=2
    28                           	psect	text15,global,reloc=2,class=CODE,delta=1,group=2
    29                           	psect	text16,global,reloc=2,class=CODE,delta=1,group=2
    30                           	psect	text17,global,reloc=2,class=CODE,delta=1,group=1
    31                           	psect	text18,global,reloc=2,class=CODE,delta=1,group=1
    32                           	psect	text19,global,reloc=2,class=CODE,delta=1,group=3
    33                           	psect	text20,global,reloc=2,class=CODE,delta=1,group=3
    34                           	psect	text21,global,reloc=2,class=CODE,delta=1
    35                           	psect	text22,global,reloc=2,class=CODE,delta=1
    36                           	psect	text23,global,reloc=2,class=CODE,delta=1,group=3
    37                           	psect	text24,global,reloc=2,class=CODE,delta=1,group=2
    38                           	psect	text25,global,reloc=2,class=CODE,delta=1,group=2
    39                           	psect	text26,global,reloc=2,class=CODE,delta=1,group=3
    40                           	psect	text27,global,reloc=2,class=CODE,delta=1,group=3
    41                           	psect	text28,global,reloc=2,class=CODE,delta=1,group=3
    42                           	psect	text29,global,reloc=2,class=CODE,delta=1
    43                           	psect	text30,global,reloc=2,class=CODE,delta=1
    44                           	psect	text31,global,reloc=2,class=CODE,delta=1
    45                           	psect	text32,global,reloc=2,class=CODE,delta=1
    46                           	psect	text33,global,reloc=2,class=CODE,delta=1
    47                           	psect	text34,global,reloc=2,class=CODE,delta=1
    48                           	psect	text35,global,reloc=2,class=CODE,delta=1
    49                           	psect	text36,global,reloc=2,class=CODE,delta=1
    50                           	psect	text37,global,reloc=2,class=CODE,delta=1
    51                           	psect	text38,global,reloc=2,class=CODE,delta=1
    52                           	psect	text39,global,reloc=2,class=CODE,delta=1
    53                           	psect	text40,global,reloc=2,class=CODE,delta=1
    54                           	psect	text41,global,reloc=2,class=CODE,delta=1
    55                           	psect	text42,global,reloc=2,class=CODE,delta=1
    56                           	psect	text43,global,reloc=2,class=CODE,delta=1
    57                           	psect	text44,global,reloc=2,class=CODE,delta=1,group=2
    58                           	psect	text45,global,reloc=2,class=CODE,delta=1,group=2
    59                           	psect	text46,global,reloc=2,class=CODE,delta=1
    60                           	psect	text47,global,reloc=2,class=CODE,delta=1
    61                           	psect	text48,global,reloc=2,class=CODE,delta=1
    62                           	psect	text49,global,reloc=2,class=CODE,delta=1
    63                           	psect	text50,global,reloc=2,class=CODE,delta=1,group=2
    64                           	psect	text51,global,reloc=2,class=CODE,delta=1
    65                           	psect	text52,global,reloc=2,class=CODE,delta=1
    66                           	psect	text53,global,reloc=2,class=CODE,delta=1
    67                           	psect	text54,global,reloc=2,class=CODE,delta=1
    68                           	psect	text55,global,reloc=2,class=CODE,delta=1
    69                           	psect	ivt0x8,global,reloc=2,class=CODE,delta=1,noexec,keep,optim=
    70                           	psect	intsave_regs,global,class=BIGRAM,space=1,delta=1,noexec
    71                           	psect	text56,global,reloc=2,class=CODE,delta=1
    72                           	psect	rparam,global,class=COMRAM,space=1,delta=1,noexec
    73                           	psect	idloc,global,abs,ovrld,class=IDLOC,space=5,delta=1,noexec
    74                           	psect	config,global,abs,ovrld,class=CONFIG,space=4,delta=1,noexec
    75   000000                     
    76                           ; Version 2.40
    77                           ; Generated 08/12/2021 GMT
    78                           ; 
    79                           ; Copyright © 2021, Microchip Technology Inc. and its subsidiaries ("Microchip")
    80                           ; All rights reserved.
    81                           ; 
    82                           ; This software is developed by Microchip Technology Inc. and its subsidiaries ("Microch
      +                          ip").
    83                           ; 
    84                           ; Redistribution and use in source and binary forms, with or without modification, are
    85                           ; permitted provided that the following conditions are met:
    86                           ; 
    87                           ;     1. Redistributions of source code must retain the above copyright notice, this lis
      +                          t of
    88                           ;        conditions and the following disclaimer.
    89                           ; 
    90                           ;     2. Redistributions in binary form must reproduce the above copyright notice, this 
      +                          list
    91                           ;        of conditions and the following disclaimer in the documentation and/or other
    92                           ;        materials provided with the distribution. Publication is not required when
    93                           ;        this file is used in an embedded application.
    94                           ; 
    95                           ;     3. Microchip's name may not be used to endorse or promote products derived from th
      +                          is
    96                           ;        software without specific prior written permission.
    97                           ; 
    98                           ; THIS SOFTWARE IS PROVIDED BY MICROCHIP "AS IS" AND ANY EXPRESS OR IMPLIED WARRANTIES,
    99                           ; INCLUDING, BUT NOT LIMITED TO, THE IMPLIED WARRANTIES OF MERCHANTABILITY AND FITNESS F
      +                          OR
   100                           ; PURPOSE ARE DISCLAIMED.  IN NO EVENT SHALL MICROCHIP BE LIABLE FOR ANY DIRECT, INDIREC
      +                          T,
   101                           ; INCIDENTAL, SPECIAL, EXEMPLARY, OR CONSEQUENTIAL DAMAGES (INCLUDING BUT NOT LIMITED TO
   102                           ; PROCUREMENT OF SUBSTITUTE GOODS OR SERVICES; LOSS OF USE, DATA OR PROFITS; OR BUSINESS
   103                           ; INTERRUPTION) HOWSOEVER CAUSED AND ON ANY THEORY OF LIABILITY, WHETHER IN CONTRACT, ST
      +                          RICT
   104                           ; LIABILITY, OR TORT (INCLUDING NEGLIGENCE OR OTHERWISE) ARISING IN ANY WAY OUT OF THE U
      +                          SE OF
   105                           ; THIS SOFTWARE, EVEN IF ADVISED OF THE POSSIBILITY OF SUCH DAMAGE.
   106                           ; 
   107                           ; 
   108                           ; Code-generator required, PIC18F57Q43 Definitions
   109                           ; 
   110                           ; SFR Addresses
   111   000000                     
   112 ;; Function _UART1_DefaultFramingErrorHandler is unused but had its address taken
   113   000000                     
   114 ;; Function _UART1_DefaultOverrunErrorHandler is unused but had its address taken
   115   000000                     
   116 ;; Function _UART1_DefaultErrorHandler is unused but had its address taken
   117   000000                     _PORTEbits	set	1234
   118   000000                     _PORTCbits	set	1232
   119   000000                     _PORTFbits	set	1235
   120   000000                     _T0CON0	set	794
   121   000000                     _INTCON0bits	set	1238
   122   000000                     _ADERRL	set	989
   123   000000                     _ADERRH	set	990
   124   000000                     _ADPREVL	set	1000
   125   000000                     _ADPREVH	set	1001
   126   000000                     _ADFLTRL	set	993
   127   000000                     _ADFLTRH	set	994
   128   000000                     _ADACCL	set	995
   129   000000                     _ADACCH	set	996
   130   000000                     _ADCNT	set	998
   131   000000                     _ADRESL	set	1002
   132   000000                     _ADRESH	set	1003
   133   000000                     _ADCON0	set	1011
   134   000000                     _ADCON1	set	1012
   135   000000                     _ADPREH	set	1010
   136   000000                     _ADPREL	set	1009
   137   000000                     _ADCAP	set	1008
   138   000000                     _ADACQH	set	1007
   139   000000                     _ADPCH	set	1004
   140   000000                     _ADRPT	set	999
   141   000000                     _ADACCU	set	997
   142   000000                     _ADSTPTH	set	992
   143   000000                     _ADSTPTL	set	991
   144   000000                     _ADUTHH	set	988
   145   000000                     _ADUTHL	set	987
   146   000000                     _ADLTHH	set	986
   147   000000                     _TRISD	set	1225
   148   000000                     _TRISC	set	1224
   149   000000                     _TRISB	set	1223
   150   000000                     _LATC	set	1216
   151   000000                     _LATB	set	1215
   152   000000                     _OSCTUNE	set	176
   153   000000                     _OSCFRQ	set	177
   154   000000                     _OSCEN	set	179
   155                           
   156                           	psect	nvBANK5
   157   0005ED                     __pnvBANK5:
   158                           	callstack 0
   159   0005ED                     _TMR0_InterruptHandler:
   160                           	callstack 0
   161   0005ED                     	ds	3
   162   0005F0                     _UART1_ErrorHandler:
   163                           	callstack 0
   164   0005F0                     	ds	3
   165   0005F3                     _UART1_OverrunErrorHandler:
   166                           	callstack 0
   167   0005F3                     	ds	3
   168   0005F6                     _UART1_FramingErrorHandler:
   169                           	callstack 0
   170   0005F6                     	ds	3
   171   000000                     _U1ERRIRbits	set	690
   172   000000                     _U1CON0bits	set	683
   173   000000                     _T0CON0bits	set	794
   174   000000                     _ADCON1bits	set	1012
   175   000000                     _ADSTATbits	set	1015
   176   000000                     _ADCON2bits	set	1013
   177   000000                     _ADCON3bits	set	1014
   178   000000                     _ADCON0bits	set	1011
   179   000000                     _LATEbits	set	1218
   180   000000                     _TRISEbits	set	1226
   181   000000                     _LATDbits	set	1217
   182   000000                     _PMD0	set	96
   183   000000                     _ACTCON	set	172
   184   000000                     _OSCCON1	set	173
   185   000000                     _OSCCON3	set	175
   186   000000                     _RF0PPS	set	553
   187   000000                     _RC4I2C	set	646
   188   000000                     _RC3I2C	set	647
   189   000000                     _RB2I2C	set	648
   190   000000                     _RB1I2C	set	649
   191   000000                     _ANSELA	set	1024
   192   000000                     _ANSELB	set	1032
   193   000000                     _ANSELC	set	1040
   194   000000                     _ANSELD	set	1048
   195   000000                     _LATA	set	1214
   196   000000                     _LATD	set	1217
   197   000000                     _LATE	set	1218
   198   000000                     _PMD3	set	99
   199   000000                     _PMD1	set	97
   200   000000                     _PMD8	set	104
   201   000000                     _PMD7	set	103
   202   000000                     _PMD6	set	102
   203   000000                     _PMD5	set	101
   204   000000                     _PMD4	set	100
   205   000000                     _TRISA	set	1222
   206   000000                     _TRISE	set	1226
   207   000000                     _PORTDbits	set	1233
   208   000000                     _LATF	set	1219
   209   000000                     _PORTAbits	set	1230
   210   000000                     _PORTBbits	set	1231
   211   000000                     _TRISF	set	1227
   212   000000                     _INLVLD	set	1052
   213   000000                     _SLRCOND	set	1051
   214   000000                     _ODCOND	set	1050
   215   000000                     _WPUD	set	1049
   216   000000                     _ANSELE	set	1056
   217   000000                     _INLVLC	set	1044
   218   000000                     _SLRCONC	set	1043
   219   000000                     _ODCONC	set	1042
   220   000000                     _WPUC	set	1041
   221   000000                     _INLVLB	set	1036
   222   000000                     _SLRCONB	set	1035
   223   000000                     _ODCONB	set	1034
   224   000000                     _WPUB	set	1033
   225   000000                     _INLVLE	set	1060
   226   000000                     _SLRCONE	set	1059
   227   000000                     _ODCONE	set	1058
   228   000000                     _WPUE	set	1057
   229   000000                     _ANSELF	set	1064
   230   000000                     _PIE3bits	set	1185
   231   000000                     _PIR4bits	set	1202
   232   000000                     _INLVLF	set	1068
   233   000000                     _SLRCONF	set	1067
   234   000000                     _ODCONF	set	1066
   235   000000                     _WPUF	set	1065
   236   000000                     _INLVLA	set	1028
   237   000000                     _SLRCONA	set	1027
   238   000000                     _ODCONA	set	1026
   239   000000                     _WPUA	set	1025
   240   000000                     _U1RXB	set	673
   241   000000                     _U1P1L	set	677
   242   000000                     _U1RXPPS	set	626
   243   000000                     _TMR0L	set	792
   244   000000                     _TMR0H	set	793
   245   000000                     _T0CON1	set	795
   246   000000                     _ADLTHL	set	985
   247   000000                     _U1ERRIE	set	691
   248   000000                     _U1ERRIR	set	690
   249   000000                     _U1UIR	set	689
   250   000000                     _U1FIFO	set	688
   251   000000                     _U1BRGH	set	687
   252   000000                     _U1BRGL	set	686
   253   000000                     _U1CON2	set	685
   254   000000                     _U1CON1	set	684
   255   000000                     _U1CON0	set	683
   256   000000                     _U1P3H	set	682
   257   000000                     _U1P3L	set	681
   258   000000                     _U1P2H	set	680
   259   000000                     _U1P2L	set	679
   260   000000                     _U1P1H	set	678
   261   000000                     _U1TXB	set	675
   262   000000                     _ADACQL	set	1006
   263   000000                     _ADCLK	set	1018
   264   000000                     _ADACT	set	1017
   265   000000                     _ADREF	set	1016
   266   000000                     _ADSTAT	set	1015
   267   000000                     _ADCON3	set	1014
   268   000000                     _ADCON2	set	1013
   269   000000                     _PIR3bits	set	1201
   270                           
   271                           	psect	smallconst
   272   002600                     __psmallconst:
   273                           	callstack 0
   274   002600  00                 	db	0
   275   002601                     STR_1:
   276   002601  23                 	db	35
   277   002602  25                 	db	37
   278   002603  30                 	db	48	;'0'
   279   002604  2E                 	db	46
   280   002605  31                 	db	49	;'1'
   281   002606  66                 	db	102	;'f'
   282   002607  2F                 	db	47
   283   002608  25                 	db	37
   284   002609  30                 	db	48	;'0'
   285   00260A  2E                 	db	46
   286   00260B  31                 	db	49	;'1'
   287   00260C  66                 	db	102	;'f'
   288   00260D  2F                 	db	47
   289   00260E  25                 	db	37
   290   00260F  30                 	db	48	;'0'
   291   002610  2E                 	db	46
   292   002611  31                 	db	49	;'1'
   293   002612  66                 	db	102	;'f'
   294   002613  2F                 	db	47
   295   002614  25                 	db	37
   296   002615  30                 	db	48	;'0'
   297   002616  34                 	db	52	;'4'
   298   002617  64                 	db	100	;'d'
   299   002618  2F                 	db	47
   300   002619  25                 	db	37
   301   00261A  64                 	db	100	;'d'
   302   00261B  2F                 	db	47
   303   00261C  25                 	db	37
   304   00261D  64                 	db	100	;'d'
   305   00261E  2F                 	db	47
   306   00261F  25                 	db	37
   307   002620  64                 	db	100	;'d'
   308   002621  2F                 	db	47
   309   002622  25                 	db	37
   310   002623  64                 	db	100	;'d'
   311   002624  2F                 	db	47
   312   002625  25                 	db	37
   313   002626  64                 	db	100	;'d'
   314   002627  2F                 	db	47
   315   002628  25                 	db	37
   316   002629  64                 	db	100	;'d'
   317   00262A  2A                 	db	42
   318   00262B  00                 	db	0
   319   00262C                     STR_2:
   320   00262C  69                 	db	105	;'i'
   321   00262D  6E                 	db	110	;'n'
   322   00262E  66                 	db	102	;'f'
   323   00262F  00                 	db	0
   324   002630                     STR_5:
   325   002630  6E                 	db	110	;'n'
   326   002631  61                 	db	97	;'a'
   327   002632  6E                 	db	110	;'n'
   328   002633  00                 	db	0
   329   002634  00                 	db	0	; dummy byte at the end
   330   000000                     
   331                           ; #config settings
   332                           
   333                           	psect	cinit
   334   005C96                     __pcinit:
   335                           	callstack 0
   336   005C96                     start_initialization:
   337                           	callstack 0
   338   005C96                     __initialization:
   339                           	callstack 0
   340                           
   341                           ; Clear objects allocated to BANK6 (80 bytes)
   342   005C96  EE01  F200         	lfsr	0,__pbssBANK6
   343   005C9A  0E50               	movlw	80
   344   005C9C                     clear_0:
   345   005C9C  6AEE               	clrf	postinc0,c
   346   005C9E  06E8               	decf	wreg,f,c
   347   005CA0  E1FD               	bnz	clear_0
   348                           
   349                           ; Clear objects allocated to BANK5 (44 bytes)
   350   005CA2  EE01  F1C1         	lfsr	0,__pbssBANK5
   351   005CA6  0E2C               	movlw	44
   352   005CA8                     clear_1:
   353   005CA8  6AEE               	clrf	postinc0,c
   354   005CAA  06E8               	decf	wreg,f,c
   355   005CAC  E1FD               	bnz	clear_1
   356                           
   357                           ; Clear objects allocated to COMRAM (2 bytes)
   358   005CAE  6A5D               	clrf	(__pbssCOMRAM+1)& (0+255),c
   359   005CB0  6A5C               	clrf	__pbssCOMRAM& (0+255),c
   360                           
   361                           ;
   362                           ; Setup IVTBASE
   363                           ;
   364   005CB2  0104               	movlb	4
   365   005CB4  0E08               	movlw	(ivt0x8_base shr 0)& (0+255)
   366   005CB6  6F5D               	movwf	93,b
   367   005CB8  0E00               	movlw	(ivt0x8_base shr (0+8))& (0+255)
   368   005CBA  6F5E               	movwf	94,b
   369   005CBC  0E00               	movlw	(ivt0x8_base shr (0+16))& (0+255)
   370   005CBE  6F5F               	movwf	95,b
   371   005CC0                     end_of_initialization:
   372                           	callstack 0
   373   005CC0                     __end_of__initialization:
   374                           	callstack 0
   375   005CC0  0100               	movlb	0
   376   005CC2  EF5A  F021         	goto	_main	;jump to C main() function
   377                           
   378                           	psect	bssCOMRAM
   379   00055C                     __pbssCOMRAM:
   380                           	callstack 0
   381   00055C                     _flags:
   382                           	callstack 0
   383   00055C                     	ds	1
   384   00055D                     _uart1RxLastError:
   385                           	callstack 0
   386   00055D                     	ds	1
   387                           
   388                           	psect	bssBANK5
   389   0005C1                     __pbssBANK5:
   390                           	callstack 0
   391   0005C1                     floorf@F526:
   392                           	callstack 0
   393   0005C1                     	ds	4
   394   0005C5                     ___fpclassifyf@F465:
   395                           	callstack 0
   396   0005C5                     	ds	4
   397   0005C9                     _adc_conv:
   398                           	callstack 0
   399   0005C9                     	ds	4
   400   0005CD                     _width:
   401                           	callstack 0
   402   0005CD                     	ds	2
   403   0005CF                     _prec:
   404                           	callstack 0
   405   0005CF                     	ds	2
   406   0005D1                     _distancia:
   407                           	callstack 0
   408   0005D1                     	ds	2
   409   0005D3                     _m_stop:
   410                           	callstack 0
   411   0005D3                     	ds	2
   412   0005D5                     _m_izq:
   413                           	callstack 0
   414   0005D5                     	ds	2
   415   0005D7                     _m_der:
   416                           	callstack 0
   417   0005D7                     	ds	2
   418   0005D9                     _ledc:
   419                           	callstack 0
   420   0005D9                     	ds	2
   421   0005DB                     _ledb:
   422                           	callstack 0
   423   0005DB                     	ds	2
   424   0005DD                     _leda:
   425                           	callstack 0
   426   0005DD                     	ds	2
   427   0005DF                     _ok_dht:
   428                           	callstack 0
   429   0005DF                     	ds	2
   430   0005E1                     _flag:
   431                           	callstack 0
   432   0005E1                     	ds	2
   433   0005E3                     _cont:
   434                           	callstack 0
   435   0005E3                     	ds	2
   436   0005E5                     _hume:
   437                           	callstack 0
   438   0005E5                     	ds	4
   439   0005E9                     _temp:
   440                           	callstack 0
   441   0005E9                     	ds	4
   442                           
   443                           	psect	bssBANK6
   444   000600                     __pbssBANK6:
   445                           	callstack 0
   446   000600                     _dbuf:
   447                           	callstack 0
   448   000600                     	ds	80
   449                           
   450                           	psect	cstackBANK5
   451   000560                     __pcstackBANK5:
   452                           	callstack 0
   453   000560                     efgtoa@ne:
   454                           	callstack 0
   455                           
   456                           ; 2 bytes @ 0x0
   457   000560                     	ds	2
   458   000562                     efgtoa@p:
   459                           	callstack 0
   460                           
   461                           ; 2 bytes @ 0x2
   462   000562                     	ds	2
   463   000564                     efgtoa@t:
   464                           	callstack 0
   465                           
   466                           ; 2 bytes @ 0x4
   467   000564                     	ds	2
   468   000566                     _efgtoa$1834:
   469                           	callstack 0
   470                           
   471                           ; 2 bytes @ 0x6
   472   000566                     	ds	2
   473   000568                     efgtoa@pp:
   474                           	callstack 0
   475                           
   476                           ; 1 bytes @ 0x8
   477   000568                     	ds	1
   478   000569                     efgtoa@mode:
   479                           	callstack 0
   480                           
   481                           ; 1 bytes @ 0x9
   482   000569                     	ds	1
   483   00056A                     efgtoa@nmode:
   484                           	callstack 0
   485                           
   486                           ; 1 bytes @ 0xA
   487   00056A                     	ds	1
   488   00056B                     efgtoa@d:
   489                           	callstack 0
   490                           
   491                           ; 2 bytes @ 0xB
   492   00056B                     	ds	2
   493   00056D                     efgtoa@m:
   494                           	callstack 0
   495                           
   496                           ; 2 bytes @ 0xD
   497   00056D                     	ds	2
   498   00056F                     efgtoa@e:
   499                           	callstack 0
   500                           
   501                           ; 2 bytes @ 0xF
   502   00056F                     	ds	2
   503   000571                     efgtoa@ou:
   504                           	callstack 0
   505                           
   506                           ; 4 bytes @ 0x11
   507   000571                     	ds	4
   508   000575                     efgtoa@w:
   509                           	callstack 0
   510                           
   511                           ; 2 bytes @ 0x15
   512   000575                     	ds	2
   513   000577                     efgtoa@h:
   514                           	callstack 0
   515                           
   516                           ; 4 bytes @ 0x17
   517   000577                     	ds	4
   518   00057B                     efgtoa@l:
   519                           	callstack 0
   520                           
   521                           ; 4 bytes @ 0x1B
   522   00057B                     	ds	4
   523   00057F                     efgtoa@i:
   524                           	callstack 0
   525                           
   526                           ; 2 bytes @ 0x1F
   527   00057F                     	ds	2
   528   000581                     efgtoa@sign:
   529                           	callstack 0
   530                           
   531                           ; 1 bytes @ 0x21
   532   000581                     	ds	1
   533   000582                     efgtoa@g:
   534                           	callstack 0
   535                           
   536                           ; 4 bytes @ 0x22
   537   000582                     	ds	4
   538   000586                     efgtoa@n:
   539                           	callstack 0
   540                           
   541                           ; 2 bytes @ 0x26
   542   000586                     	ds	2
   543   000588                     efgtoa@u:
   544                           	callstack 0
   545                           
   546                           ; 4 bytes @ 0x28
   547   000588                     	ds	4
   548   00058C                     vfpfcnvrt@done:
   549                           	callstack 0
   550                           
   551                           ; 2 bytes @ 0x2C
   552   00058C                     	ds	2
   553   00058E                     vfpfcnvrt@convarg:
   554                           	callstack 0
   555                           
   556                           ; 8 bytes @ 0x2E
   557   00058E                     	ds	8
   558   000596                     vfpfcnvrt@c:
   559                           	callstack 0
   560                           
   561                           ; 1 bytes @ 0x36
   562   000596                     	ds	1
   563   000597                     vfpfcnvrt@cp:
   564                           	callstack 0
   565                           
   566                           ; 2 bytes @ 0x37
   567   000597                     	ds	2
   568   000599                     ?_vfprintf:
   569                           	callstack 0
   570   000599                     vfprintf@fp:
   571                           	callstack 0
   572                           
   573                           ; 2 bytes @ 0x39
   574   000599                     	ds	2
   575   00059B                     vfprintf@fmt:
   576                           	callstack 0
   577                           
   578                           ; 2 bytes @ 0x3B
   579   00059B                     	ds	2
   580   00059D                     vfprintf@ap:
   581                           	callstack 0
   582                           
   583                           ; 2 bytes @ 0x3D
   584   00059D                     	ds	2
   585   00059F                     vfprintf@cfmt:
   586                           	callstack 0
   587                           
   588                           ; 2 bytes @ 0x3F
   589   00059F                     	ds	2
   590   0005A1                     ?_printf:
   591                           	callstack 0
   592   0005A1                     printf@fmt:
   593                           	callstack 0
   594                           
   595                           ; 2 bytes @ 0x41
   596   0005A1                     	ds	28
   597   0005BD                     printf@ap:
   598                           	callstack 0
   599                           
   600                           ; 2 bytes @ 0x5D
   601   0005BD                     	ds	2
   602   0005BF                     ??_main:
   603                           
   604                           ; 1 bytes @ 0x5F
   605   0005BF                     	ds	2
   606                           
   607                           	psect	cstackCOMRAM
   608   000501                     __pcstackCOMRAM:
   609                           	callstack 0
   610   000501                     ??_INTERRUPT_InterruptManager:
   611   000501                     
   612                           ; 1 bytes @ 0x0
   613   000501                     	ds	2
   614   000503                     ??_DHT11_Start:
   615   000503                     ?___fpclassifyf:
   616                           	callstack 0
   617   000503                     ?_isdigit:
   618                           	callstack 0
   619   000503                     ?_isspace:
   620                           	callstack 0
   621   000503                     ?_ADCC_GetSingleConversion:
   622                           	callstack 0
   623   000503                     ?_get_DHT:
   624                           	callstack 0
   625   000503                     ?_getDistancia:
   626                           	callstack 0
   627   000503                     ?_DHT11_Read_Byte:
   628                           	callstack 0
   629   000503                     ?___wmul:
   630                           	callstack 0
   631   000503                     ?___fladd:
   632                           	callstack 0
   633   000503                     ?_labs:
   634                           	callstack 0
   635   000503                     ?___flneg:
   636                           	callstack 0
   637   000503                     ?___fltol:
   638                           	callstack 0
   639   000503                     ?___aodiv:
   640                           	callstack 0
   641   000503                     ?___aomod:
   642                           	callstack 0
   643   000503                     UART1_Write@txData:
   644                           	callstack 0
   645   000503                     ___wmul@multiplier:
   646                           	callstack 0
   647   000503                     isdigit@c:
   648                           	callstack 0
   649   000503                     isspace@c:
   650                           	callstack 0
   651   000503                     memcpy@d1:
   652                           	callstack 0
   653   000503                     strcpy@dest:
   654                           	callstack 0
   655   000503                     UART1_SetFramingErrorHandler@interruptHandler:
   656                           	callstack 0
   657   000503                     UART1_SetOverrunErrorHandler@interruptHandler:
   658                           	callstack 0
   659   000503                     UART1_SetErrorHandler@interruptHandler:
   660                           	callstack 0
   661   000503                     TMR0_SetInterruptHandler@InterruptHandler:
   662                           	callstack 0
   663   000503                     ___fleq@ff1:
   664                           	callstack 0
   665   000503                     ___flneg@f1:
   666                           	callstack 0
   667   000503                     ___fltol@f1:
   668                           	callstack 0
   669   000503                     ___fladd@b:
   670                           	callstack 0
   671   000503                     ___fpclassifyf@x:
   672                           	callstack 0
   673   000503                     labs@a:
   674                           	callstack 0
   675   000503                     ___aodiv@dividend:
   676                           	callstack 0
   677   000503                     ___aomod@dividend:
   678                           	callstack 0
   679                           
   680                           ; 8 bytes @ 0x2
   681   000503                     	ds	1
   682   000504                     putch@txData:
   683                           	callstack 0
   684                           
   685                           ; 1 bytes @ 0x3
   686   000504                     	ds	1
   687   000505                     ??_isdigit:
   688   000505                     ??_isspace:
   689   000505                     ??_ADCC_GetSingleConversion:
   690   000505                     ??_DHT11_Read_Byte:
   691   000505                     getDistancia@contador:
   692                           	callstack 0
   693   000505                     ___wmul@multiplicand:
   694                           	callstack 0
   695   000505                     memcpy@s1:
   696                           	callstack 0
   697   000505                     fputc@c:
   698                           	callstack 0
   699   000505                     strcpy@src:
   700                           	callstack 0
   701                           
   702                           ; 2 bytes @ 0x4
   703   000505                     	ds	1
   704   000506                     
   705                           ; 1 bytes @ 0x5
   706   000506                     	ds	1
   707   000507                     ??___fpclassifyf:
   708   000507                     ??_labs:
   709   000507                     ??___fltol:
   710   000507                     ADCC_GetSingleConversion@channel:
   711                           	callstack 0
   712   000507                     _isspace$1914:
   713                           	callstack 0
   714   000507                     DHT11_Read_Byte@i:
   715                           	callstack 0
   716   000507                     ___wmul@product:
   717                           	callstack 0
   718   000507                     memcpy@n:
   719                           	callstack 0
   720   000507                     fputc@fp:
   721                           	callstack 0
   722   000507                     strcpy@s:
   723                           	callstack 0
   724   000507                     ___fleq@ff2:
   725                           	callstack 0
   726   000507                     ___fladd@a:
   727                           	callstack 0
   728                           
   729                           ; 4 bytes @ 0x6
   730   000507                     	ds	2
   731   000509                     ??_fputc:
   732   000509                     ?_DHT11_Join_Data:
   733                           	callstack 0
   734   000509                     ?_atoi:
   735                           	callstack 0
   736   000509                     memcpy@tmp:
   737                           	callstack 0
   738   000509                     DHT11_Read_Byte@data:
   739                           	callstack 0
   740   000509                     DHT11_Join_Data@h:
   741                           	callstack 0
   742   000509                     atoi@s:
   743                           	callstack 0
   744   000509                     strcpy@d:
   745                           	callstack 0
   746                           
   747                           ; 2 bytes @ 0x8
   748   000509                     	ds	1
   749   00050A                     memcpy@d:
   750                           	callstack 0
   751                           
   752                           ; 2 bytes @ 0x9
   753   00050A                     	ds	1
   754   00050B                     ??___fladd:
   755   00050B                     ??_atoi:
   756   00050B                     ??___fleq:
   757   00050B                     ___fltol@sign1:
   758                           	callstack 0
   759   00050B                     DHT11_Join_Data@l:
   760                           	callstack 0
   761   00050B                     ___fpclassifyf@e:
   762                           	callstack 0
   763   00050B                     ___aodiv@divisor:
   764                           	callstack 0
   765   00050B                     ___aomod@divisor:
   766                           	callstack 0
   767                           
   768                           ; 8 bytes @ 0xA
   769   00050B                     	ds	1
   770   00050C                     ___fltol@exp1:
   771                           	callstack 0
   772   00050C                     memcpy@s:
   773                           	callstack 0
   774                           
   775                           ; 2 bytes @ 0xB
   776   00050C                     	ds	1
   777   00050D                     DHT11_Join_Data@pow:
   778                           	callstack 0
   779   00050D                     ___fpclassifyf@u:
   780                           	callstack 0
   781                           
   782                           ; 4 bytes @ 0xC
   783   00050D                     	ds	1
   784   00050E                     atoi@neg:
   785                           	callstack 0
   786   00050E                     fputs@s:
   787                           	callstack 0
   788                           
   789                           ; 2 bytes @ 0xD
   790   00050E                     	ds	1
   791   00050F                     ?___xxtofl:
   792                           	callstack 0
   793   00050F                     ___fladd@signs:
   794                           	callstack 0
   795   00050F                     ___xxtofl@val:
   796                           	callstack 0
   797                           
   798                           ; 4 bytes @ 0xE
   799   00050F                     	ds	1
   800   000510                     ___fladd@aexp:
   801                           	callstack 0
   802   000510                     atoi@n:
   803                           	callstack 0
   804   000510                     fputs@fp:
   805                           	callstack 0
   806                           
   807                           ; 2 bytes @ 0xF
   808   000510                     	ds	1
   809   000511                     ___fladd@bexp:
   810                           	callstack 0
   811                           
   812                           ; 1 bytes @ 0x10
   813   000511                     	ds	1
   814   000512                     ___fladd@grs:
   815                           	callstack 0
   816   000512                     fputs@c:
   817                           	callstack 0
   818                           
   819                           ; 1 bytes @ 0x11
   820   000512                     	ds	1
   821   000513                     ??___xxtofl:
   822   000513                     ___aodiv@counter:
   823                           	callstack 0
   824   000513                     ___aomod@counter:
   825                           	callstack 0
   826   000513                     fputs@i:
   827                           	callstack 0
   828                           
   829                           ; 2 bytes @ 0x12
   830   000513                     	ds	1
   831   000514                     ___aodiv@sign:
   832                           	callstack 0
   833   000514                     ___aomod@sign:
   834                           	callstack 0
   835                           
   836                           ; 1 bytes @ 0x13
   837   000514                     	ds	1
   838   000515                     ?_abs:
   839                           	callstack 0
   840   000515                     pad@fp:
   841                           	callstack 0
   842   000515                     abs@a:
   843                           	callstack 0
   844   000515                     ___aodiv@quotient:
   845                           	callstack 0
   846                           
   847                           ; 8 bytes @ 0x14
   848   000515                     	ds	2
   849   000517                     ??_abs:
   850   000517                     ___xxtofl@sign:
   851                           	callstack 0
   852   000517                     pad@buf:
   853                           	callstack 0
   854                           
   855                           ; 2 bytes @ 0x16
   856   000517                     	ds	1
   857   000518                     ___xxtofl@exp:
   858                           	callstack 0
   859                           
   860                           ; 1 bytes @ 0x17
   861   000518                     	ds	1
   862   000519                     pad@p:
   863                           	callstack 0
   864   000519                     ___xxtofl@arg:
   865                           	callstack 0
   866                           
   867                           ; 4 bytes @ 0x18
   868   000519                     	ds	2
   869   00051B                     ??_pad:
   870                           
   871                           ; 1 bytes @ 0x1A
   872   00051B                     	ds	1
   873   00051C                     pad@i:
   874                           	callstack 0
   875                           
   876                           ; 2 bytes @ 0x1B
   877   00051C                     	ds	1
   878   00051D                     ?___fldiv:
   879                           	callstack 0
   880   00051D                     ?___flmul:
   881                           	callstack 0
   882   00051D                     ___fldiv@b:
   883                           	callstack 0
   884   00051D                     ___flmul@b:
   885                           	callstack 0
   886                           
   887                           ; 4 bytes @ 0x1C
   888   00051D                     	ds	1
   889   00051E                     pad@w:
   890                           	callstack 0
   891                           
   892                           ; 2 bytes @ 0x1D
   893   00051E                     	ds	2
   894   000520                     dtoa@fp:
   895                           	callstack 0
   896                           
   897                           ; 2 bytes @ 0x1F
   898   000520                     	ds	1
   899   000521                     ___fldiv@a:
   900                           	callstack 0
   901   000521                     ___flmul@a:
   902                           	callstack 0
   903                           
   904                           ; 4 bytes @ 0x20
   905   000521                     	ds	1
   906   000522                     dtoa@d:
   907                           	callstack 0
   908                           
   909                           ; 8 bytes @ 0x21
   910   000522                     	ds	3
   911   000525                     ??___fldiv:
   912   000525                     ??___flmul:
   913                           
   914                           ; 1 bytes @ 0x24
   915   000525                     	ds	4
   916   000529                     ___flmul@sign:
   917                           	callstack 0
   918   000529                     ___fldiv@rem:
   919                           	callstack 0
   920                           
   921                           ; 4 bytes @ 0x28
   922   000529                     	ds	1
   923   00052A                     ??_dtoa:
   924   00052A                     ___flmul@aexp:
   925                           	callstack 0
   926                           
   927                           ; 1 bytes @ 0x29
   928   00052A                     	ds	1
   929   00052B                     ___flmul@grs:
   930                           	callstack 0
   931                           
   932                           ; 4 bytes @ 0x2A
   933   00052B                     	ds	2
   934   00052D                     ___fldiv@sign:
   935                           	callstack 0
   936                           
   937                           ; 1 bytes @ 0x2C
   938   00052D                     	ds	1
   939   00052E                     ___fldiv@new_exp:
   940                           	callstack 0
   941                           
   942                           ; 2 bytes @ 0x2D
   943   00052E                     	ds	1
   944   00052F                     ___flmul@bexp:
   945                           	callstack 0
   946                           
   947                           ; 1 bytes @ 0x2E
   948   00052F                     	ds	1
   949   000530                     ___fldiv@grs:
   950                           	callstack 0
   951   000530                     ___flmul@prod:
   952                           	callstack 0
   953                           
   954                           ; 4 bytes @ 0x2F
   955   000530                     	ds	2
   956   000532                     _dtoa$1803:
   957                           	callstack 0
   958                           
   959                           ; 2 bytes @ 0x31
   960   000532                     	ds	2
   961   000534                     ___fldiv@bexp:
   962                           	callstack 0
   963   000534                     ___flmul@temp:
   964                           	callstack 0
   965   000534                     dtoa@p:
   966                           	callstack 0
   967                           
   968                           ; 2 bytes @ 0x33
   969   000534                     	ds	1
   970   000535                     ___fldiv@aexp:
   971                           	callstack 0
   972                           
   973                           ; 1 bytes @ 0x34
   974   000535                     	ds	1
   975   000536                     ?___flsub:
   976                           	callstack 0
   977   000536                     ?_floorf:
   978                           	callstack 0
   979   000536                     DHT11_Read_Data@tem:
   980                           	callstack 0
   981   000536                     dtoa@w:
   982                           	callstack 0
   983   000536                     ___flge@ff1:
   984                           	callstack 0
   985   000536                     ___flsub@b:
   986                           	callstack 0
   987   000536                     floorf@x:
   988                           	callstack 0
   989                           
   990                           ; 4 bytes @ 0x35
   991   000536                     	ds	2
   992   000538                     DHT11_Read_Data@hum:
   993                           	callstack 0
   994   000538                     dtoa@n:
   995                           	callstack 0
   996                           
   997                           ; 8 bytes @ 0x37
   998   000538                     	ds	2
   999   00053A                     ??_floorf:
  1000   00053A                     ___flge@ff2:
  1001                           	callstack 0
  1002   00053A                     ___flsub@a:
  1003                           	callstack 0
  1004   00053A                     DHT11_Read_Data@info:
  1005                           	callstack 0
  1006                           
  1007                           ; 10 bytes @ 0x39
  1008   00053A                     	ds	4
  1009   00053E                     ??___flge:
  1010                           
  1011                           ; 1 bytes @ 0x3D
  1012   00053E                     	ds	2
  1013   000540                     dtoa@s:
  1014                           	callstack 0
  1015   000540                     floorf@m:
  1016                           	callstack 0
  1017                           
  1018                           ; 4 bytes @ 0x3F
  1019   000540                     	ds	1
  1020   000541                     dtoa@i:
  1021                           	callstack 0
  1022                           
  1023                           ; 2 bytes @ 0x40
  1024   000541                     	ds	3
  1025   000544                     floorf@e:
  1026                           	callstack 0
  1027                           
  1028                           ; 2 bytes @ 0x43
  1029   000544                     	ds	2
  1030   000546                     floorf@u:
  1031                           	callstack 0
  1032                           
  1033                           ; 4 bytes @ 0x45
  1034   000546                     	ds	4
  1035   00054A                     efgtoa@fp:
  1036                           	callstack 0
  1037                           
  1038                           ; 2 bytes @ 0x49
  1039   00054A                     	ds	2
  1040   00054C                     efgtoa@f:
  1041                           	callstack 0
  1042                           
  1043                           ; 4 bytes @ 0x4B
  1044   00054C                     	ds	4
  1045   000550                     efgtoa@c:
  1046                           	callstack 0
  1047                           
  1048                           ; 1 bytes @ 0x4F
  1049   000550                     	ds	1
  1050   000551                     ??_efgtoa:
  1051                           
  1052                           ; 1 bytes @ 0x50
  1053   000551                     	ds	2
  1054   000553                     vfpfcnvrt@fp:
  1055                           	callstack 0
  1056                           
  1057                           ; 2 bytes @ 0x52
  1058   000553                     	ds	2
  1059   000555                     vfpfcnvrt@fmt:
  1060                           	callstack 0
  1061                           
  1062                           ; 2 bytes @ 0x54
  1063   000555                     	ds	2
  1064   000557                     vfpfcnvrt@ap:
  1065                           	callstack 0
  1066                           
  1067                           ; 2 bytes @ 0x56
  1068   000557                     	ds	2
  1069   000559                     ??_vfpfcnvrt:
  1070                           
  1071                           ; 1 bytes @ 0x58
  1072   000559                     	ds	3
  1073   00055C                     
  1074                           ; 1 bytes @ 0x5B
  1075 ;;
  1076 ;;Main: autosize = 0, tempsize = 2, incstack = 0, save=0
  1077 ;;
  1078 ;; *************** function _main *****************
  1079 ;; Defined at:
  1080 ;;		line 23 in file "main.c"
  1081 ;; Parameters:    Size  Location     Type
  1082 ;;		None
  1083 ;; Auto vars:     Size  Location     Type
  1084 ;;		None
  1085 ;; Return value:  Size  Location     Type
  1086 ;;                  1    wreg      void 
  1087 ;; Registers used:
  1088 ;;		wreg, fsr1l, fsr1h, fsr2l, fsr2h, status,2, status,0, tblptrl, tblptrh, tblptru, prodl, prodh, cstack
  1089 ;; Tracked objects:
  1090 ;;		On entry : 0/0
  1091 ;;		On exit  : 0/0
  1092 ;;		Unchanged: 0/0
  1093 ;; Data sizes:     COMRAM   BANK5   BANK6   BANK7   BANK8   BANK9  BANK10  BANK11  BANK12  BANK13  BANK14  BANK15  BANK1
      +6  BANK17  BANK18  BANK19  BANK20  BANK21  BANK22  BANK23  BANK24  BANK25  BANK26  BANK27  BANK28  BANK29  BANK30  BANK3
      +1  BANK32  BANK33  BANK34  BANK35  BANK36
  1094 ;;      Params:         0       0       0       0       0       0       0       0       0       0       0       0       
      +0       0       0       0       0       0       0       0       0       0       0       0       0       0       0       
      +0       0       0       0       0       0
  1095 ;;      Locals:         0       0       0       0       0       0       0       0       0       0       0       0       
      +0       0       0       0       0       0       0       0       0       0       0       0       0       0       0       
      +0       0       0       0       0       0
  1096 ;;      Temps:          0       2       0       0       0       0       0       0       0       0       0       0       
      +0       0       0       0       0       0       0       0       0       0       0       0       0       0       0       
      +0       0       0       0       0       0
  1097 ;;      Totals:         0       2       0       0       0       0       0       0       0       0       0       0       
      +0       0       0       0       0       0       0       0       0       0       0       0       0       0       0       
      +0       0       0       0       0       0
  1098 ;;Total ram usage:        2 bytes
  1099 ;; Hardware stack levels required when called: 13
  1100 ;; This function calls:
  1101 ;;		_ADCC_GetSingleConversion
  1102 ;;		_DHT11_Read_Data
  1103 ;;		_SYSTEM_Initialize
  1104 ;;		___flmul
  1105 ;;		___xxtofl
  1106 ;;		_getDistancia
  1107 ;;		_get_DHT
  1108 ;;		_printf
  1109 ;; This function is called by:
  1110 ;;		Startup code after reset
  1111 ;; This function uses a non-reentrant model
  1112 ;;
  1113                           
  1114                           	psect	text0
  1115   0042B4                     __ptext0:
  1116                           	callstack 0
  1117   0042B4                     _main:
  1118                           	callstack 114
  1119   0042B4                     
  1120                           ;main.c: 26:     SYSTEM_Initialize();
  1121   0042B4  EC09  F02F         	call	_SYSTEM_Initialize	;wreg free
  1122   0042B8                     l6543:
  1123                           
  1124                           ;main.c: 30:     {;main.c: 31:         if(PORTBbits.RB2==0){
  1125   0042B8  B4CF               	btfsc	207,2,c	;volatile
  1126   0042BA  EF61  F021         	goto	u7371
  1127   0042BE  EF63  F021         	goto	u7370
  1128   0042C2                     u7371:
  1129   0042C2  EF79  F021         	goto	l6549
  1130   0042C6                     u7370:
  1131   0042C6                     l578:
  1132   0042C6  A4CF               	btfss	207,2,c	;volatile
  1133   0042C8  EF68  F021         	goto	u7381
  1134   0042CC  EF6A  F021         	goto	u7380
  1135   0042D0                     u7381:
  1136   0042D0  EF63  F021         	goto	l578
  1137   0042D4                     u7380:
  1138   0042D4                     
  1139                           ;main.c: 33:             LATDbits.LATD1 = 0;
  1140   0042D4  92C1               	bcf	193,1,c	;volatile
  1141                           
  1142                           ;main.c: 34:             LATDbits.LATD2 = 1;
  1143   0042D6  84C1               	bsf	193,2,c	;volatile
  1144   0042D8                     
  1145                           ;main.c: 35:             m_der = 1;
  1146   0042D8  0E00               	movlw	0
  1147   0042DA  0105               	movlb	5	; () banked
  1148   0042DC  6FD8               	movwf	(_m_der+1)& (0+255),b
  1149   0042DE  0E01               	movlw	1
  1150   0042E0  6FD7               	movwf	_m_der& (0+255),b
  1151                           
  1152                           ;main.c: 36:             m_izq = 0;
  1153   0042E2  0E00               	movlw	0
  1154   0042E4  6FD6               	movwf	(_m_izq+1)& (0+255),b
  1155   0042E6  0E00               	movlw	0
  1156   0042E8  6FD5               	movwf	_m_izq& (0+255),b
  1157                           
  1158                           ;main.c: 37:             m_stop = 0;
  1159   0042EA  0E00               	movlw	0
  1160   0042EC  6FD4               	movwf	(_m_stop+1)& (0+255),b
  1161   0042EE  0E00               	movlw	0
  1162   0042F0  6FD3               	movwf	_m_stop& (0+255),b
  1163   0042F2                     l6549:
  1164                           
  1165                           ;main.c: 39:         if(PORTCbits.RC2==0){
  1166   0042F2  B4D0               	btfsc	208,2,c	;volatile
  1167   0042F4  EF7E  F021         	goto	u7391
  1168   0042F8  EF80  F021         	goto	u7390
  1169   0042FC                     u7391:
  1170   0042FC  EF96  F021         	goto	l6555
  1171   004300                     u7390:
  1172   004300                     l582:
  1173   004300  A4D0               	btfss	208,2,c	;volatile
  1174   004302  EF85  F021         	goto	u7401
  1175   004306  EF87  F021         	goto	u7400
  1176   00430A                     u7401:
  1177   00430A  EF80  F021         	goto	l582
  1178   00430E                     u7400:
  1179   00430E                     
  1180                           ;main.c: 41:             LATDbits.LATD1 = 1;
  1181   00430E  82C1               	bsf	193,1,c	;volatile
  1182                           
  1183                           ;main.c: 42:             LATDbits.LATD2 = 0;
  1184   004310  94C1               	bcf	193,2,c	;volatile
  1185   004312                     
  1186                           ;main.c: 43:             m_der = 0;
  1187   004312  0E00               	movlw	0
  1188   004314  0105               	movlb	5	; () banked
  1189   004316  6FD8               	movwf	(_m_der+1)& (0+255),b
  1190   004318  0E00               	movlw	0
  1191   00431A  6FD7               	movwf	_m_der& (0+255),b
  1192                           
  1193                           ;main.c: 44:             m_izq = 1;
  1194   00431C  0E00               	movlw	0
  1195   00431E  6FD6               	movwf	(_m_izq+1)& (0+255),b
  1196   004320  0E01               	movlw	1
  1197   004322  6FD5               	movwf	_m_izq& (0+255),b
  1198                           
  1199                           ;main.c: 45:             m_stop = 0;
  1200   004324  0E00               	movlw	0
  1201   004326  6FD4               	movwf	(_m_stop+1)& (0+255),b
  1202   004328  0E00               	movlw	0
  1203   00432A  6FD3               	movwf	_m_stop& (0+255),b
  1204   00432C                     l6555:
  1205                           
  1206                           ;main.c: 47:         if(PORTCbits.RC3==0){
  1207   00432C  B6D0               	btfsc	208,3,c	;volatile
  1208   00432E  EF9B  F021         	goto	u7411
  1209   004332  EF9D  F021         	goto	u7410
  1210   004336                     u7411:
  1211   004336  EFB3  F021         	goto	l6561
  1212   00433A                     u7410:
  1213   00433A                     l586:
  1214   00433A  A6D0               	btfss	208,3,c	;volatile
  1215   00433C  EFA2  F021         	goto	u7421
  1216   004340  EFA4  F021         	goto	u7420
  1217   004344                     u7421:
  1218   004344  EF9D  F021         	goto	l586
  1219   004348                     u7420:
  1220   004348                     
  1221                           ;main.c: 49:             LATDbits.LATD1 = 1;
  1222   004348  82C1               	bsf	193,1,c	;volatile
  1223                           
  1224                           ;main.c: 50:             LATDbits.LATD2 = 1;
  1225   00434A  84C1               	bsf	193,2,c	;volatile
  1226   00434C                     
  1227                           ;main.c: 51:             m_der = 0;
  1228   00434C  0E00               	movlw	0
  1229   00434E  0105               	movlb	5	; () banked
  1230   004350  6FD8               	movwf	(_m_der+1)& (0+255),b
  1231   004352  0E00               	movlw	0
  1232   004354  6FD7               	movwf	_m_der& (0+255),b
  1233                           
  1234                           ;main.c: 52:             m_izq = 0;
  1235   004356  0E00               	movlw	0
  1236   004358  6FD6               	movwf	(_m_izq+1)& (0+255),b
  1237   00435A  0E00               	movlw	0
  1238   00435C  6FD5               	movwf	_m_izq& (0+255),b
  1239                           
  1240                           ;main.c: 53:             m_stop = 1;
  1241   00435E  0E00               	movlw	0
  1242   004360  6FD4               	movwf	(_m_stop+1)& (0+255),b
  1243   004362  0E01               	movlw	1
  1244   004364  6FD3               	movwf	_m_stop& (0+255),b
  1245   004366                     l6561:
  1246                           
  1247                           ;main.c: 55:         if(PORTAbits.RA3==0){
  1248   004366  B6CE               	btfsc	206,3,c	;volatile
  1249   004368  EFB8  F021         	goto	u7431
  1250   00436C  EFBA  F021         	goto	u7430
  1251   004370                     u7431:
  1252   004370  EFD4  F021         	goto	l6567
  1253   004374                     u7430:
  1254   004374                     l590:
  1255   004374  A6CE               	btfss	206,3,c	;volatile
  1256   004376  EFBF  F021         	goto	u7441
  1257   00437A  EFC1  F021         	goto	u7440
  1258   00437E                     u7441:
  1259   00437E  EFBA  F021         	goto	l590
  1260   004382                     u7440:
  1261   004382  BEC1               	btfsc	193,7,c	;volatile
  1262   004384  EFC6  F021         	goto	u7451
  1263   004388  EFC9  F021         	goto	u7450
  1264   00438C                     u7451:
  1265   00438C  0E01               	movlw	1
  1266   00438E  EFCA  F021         	goto	u7456
  1267   004392                     u7450:
  1268   004392  0E00               	movlw	0
  1269   004394                     u7456:
  1270   004394  0AFF               	xorlw	255
  1271   004396  0105               	movlb	5	; () banked
  1272   004398  6FBF               	movwf	??_main& (0+255),b
  1273   00439A  33BF               	rrcf	??_main& (0+255),f,b
  1274   00439C  33BF               	rrcf	??_main& (0+255),f,b
  1275   00439E  50C1               	movf	193,w,c	;volatile
  1276   0043A0  19BF               	xorwf	??_main& (0+255),w,b
  1277   0043A2  0B7F               	andlw	-129
  1278   0043A4  19BF               	xorwf	??_main& (0+255),w,b
  1279   0043A6  6EC1               	movwf	193,c	;volatile
  1280   0043A8                     l6567:
  1281                           
  1282                           ;main.c: 59:         if(PORTAbits.RA4==0){
  1283   0043A8  B8CE               	btfsc	206,4,c	;volatile
  1284   0043AA  EFD9  F021         	goto	u7461
  1285   0043AE  EFDB  F021         	goto	u7460
  1286   0043B2                     u7461:
  1287   0043B2  EFF6  F021         	goto	l6573
  1288   0043B6                     u7460:
  1289   0043B6                     l596:
  1290   0043B6  A8CE               	btfss	206,4,c	;volatile
  1291   0043B8  EFE0  F021         	goto	u7471
  1292   0043BC  EFE2  F021         	goto	u7470
  1293   0043C0                     u7471:
  1294   0043C0  EFDB  F021         	goto	l596
  1295   0043C4                     u7470:
  1296   0043C4  BCC1               	btfsc	193,6,c	;volatile
  1297   0043C6  EFE7  F021         	goto	u7481
  1298   0043CA  EFEA  F021         	goto	u7480
  1299   0043CE                     u7481:
  1300   0043CE  0E01               	movlw	1
  1301   0043D0  EFEB  F021         	goto	u7486
  1302   0043D4                     u7480:
  1303   0043D4  0E00               	movlw	0
  1304   0043D6                     u7486:
  1305   0043D6  0AFF               	xorlw	255
  1306   0043D8  0105               	movlb	5	; () banked
  1307   0043DA  6FBF               	movwf	??_main& (0+255),b
  1308   0043DC  3BBF               	swapf	??_main& (0+255),f,b
  1309   0043DE  47BF               	rlncf	??_main& (0+255),f,b
  1310   0043E0  47BF               	rlncf	??_main& (0+255),f,b
  1311   0043E2  50C1               	movf	193,w,c	;volatile
  1312   0043E4  19BF               	xorwf	??_main& (0+255),w,b
  1313   0043E6  0BBF               	andlw	-65
  1314   0043E8  19BF               	xorwf	??_main& (0+255),w,b
  1315   0043EA  6EC1               	movwf	193,c	;volatile
  1316   0043EC                     l6573:
  1317                           
  1318                           ;main.c: 63:         if(PORTEbits.RE2==0){
  1319   0043EC  B4D2               	btfsc	210,2,c	;volatile
  1320   0043EE  EFFB  F021         	goto	u7491
  1321   0043F2  EFFD  F021         	goto	u7490
  1322   0043F6                     u7491:
  1323   0043F6  EF17  F022         	goto	l6579
  1324   0043FA                     u7490:
  1325   0043FA                     l602:
  1326   0043FA  A4D2               	btfss	210,2,c	;volatile
  1327   0043FC  EF02  F022         	goto	u7501
  1328   004400  EF04  F022         	goto	u7500
  1329   004404                     u7501:
  1330   004404  EFFD  F021         	goto	l602
  1331   004408                     u7500:
  1332   004408  BAC1               	btfsc	193,5,c	;volatile
  1333   00440A  EF09  F022         	goto	u7511
  1334   00440E  EF0C  F022         	goto	u7510
  1335   004412                     u7511:
  1336   004412  0E01               	movlw	1
  1337   004414  EF0D  F022         	goto	u7516
  1338   004418                     u7510:
  1339   004418  0E00               	movlw	0
  1340   00441A                     u7516:
  1341   00441A  0AFF               	xorlw	255
  1342   00441C  0105               	movlb	5	; () banked
  1343   00441E  6FBF               	movwf	??_main& (0+255),b
  1344   004420  3BBF               	swapf	??_main& (0+255),f,b
  1345   004422  47BF               	rlncf	??_main& (0+255),f,b
  1346   004424  50C1               	movf	193,w,c	;volatile
  1347   004426  19BF               	xorwf	??_main& (0+255),w,b
  1348   004428  0BDF               	andlw	-33
  1349   00442A  19BF               	xorwf	??_main& (0+255),w,b
  1350   00442C  6EC1               	movwf	193,c	;volatile
  1351   00442E                     l6579:
  1352                           
  1353                           ;main.c: 69:         leda = PORTDbits.RD7;
  1354   00442E  BED1               	btfsc	209,7,c	;volatile
  1355   004430  EF1C  F022         	goto	u7521
  1356   004434  EF21  F022         	goto	u7520
  1357   004438                     u7521:
  1358   004438  0105               	movlb	5	; () banked
  1359   00443A  6BBF               	clrf	??_main& (0+255),b
  1360   00443C  2BBF               	incf	??_main& (0+255),f,b
  1361   00443E  EF23  F022         	goto	u7528
  1362   004442                     u7520:
  1363   004442  0105               	movlb	5	; () banked
  1364   004444  6BBF               	clrf	??_main& (0+255),b
  1365   004446                     u7528:
  1366   004446  51BF               	movf	??_main& (0+255),w,b
  1367   004448  6FDD               	movwf	_leda& (0+255),b
  1368   00444A  6BDE               	clrf	(_leda+1)& (0+255),b
  1369   00444C                     
  1370                           ; BSR set to: 5
  1371                           ;main.c: 70:         ledb = PORTDbits.RD6;
  1372   00444C  BCD1               	btfsc	209,6,c	;volatile
  1373   00444E  EF2B  F022         	goto	u7531
  1374   004452  EF2F  F022         	goto	u7530
  1375   004456                     u7531:
  1376   004456  6BBF               	clrf	??_main& (0+255),b
  1377   004458  2BBF               	incf	??_main& (0+255),f,b
  1378   00445A  EF31  F022         	goto	u7538
  1379   00445E                     u7530:
  1380   00445E  0105               	movlb	5	; () banked
  1381   004460  6BBF               	clrf	??_main& (0+255),b
  1382   004462                     u7538:
  1383   004462  51BF               	movf	??_main& (0+255),w,b
  1384   004464  6FDB               	movwf	_ledb& (0+255),b
  1385   004466  6BDC               	clrf	(_ledb+1)& (0+255),b
  1386   004468                     
  1387                           ; BSR set to: 5
  1388                           ;main.c: 71:         ledc = PORTDbits.RD5;
  1389   004468  BAD1               	btfsc	209,5,c	;volatile
  1390   00446A  EF39  F022         	goto	u7541
  1391   00446E  EF3D  F022         	goto	u7540
  1392   004472                     u7541:
  1393   004472  6BBF               	clrf	??_main& (0+255),b
  1394   004474  2BBF               	incf	??_main& (0+255),f,b
  1395   004476  EF3F  F022         	goto	u7548
  1396   00447A                     u7540:
  1397   00447A  0105               	movlb	5	; () banked
  1398   00447C  6BBF               	clrf	??_main& (0+255),b
  1399   00447E                     u7548:
  1400   00447E  51BF               	movf	??_main& (0+255),w,b
  1401   004480  6FD9               	movwf	_ledc& (0+255),b
  1402   004482  6BDA               	clrf	(_ledc+1)& (0+255),b
  1403   004484                     
  1404                           ; BSR set to: 5
  1405                           ;main.c: 73:         adc_conv = ADCC_GetSingleConversion(0)*0.001221;
  1406   004484  0E00               	movlw	0
  1407   004486  EC63  F02E         	call	_ADCC_GetSingleConversion
  1408   00448A  C503  F50F         	movff	?_ADCC_GetSingleConversion,___xxtofl@val
  1409   00448E  C504  F510         	movff	?_ADCC_GetSingleConversion+1,___xxtofl@val+1
  1410   004492  6A11               	clrf	(___xxtofl@val+2)^(0+1280),c
  1411   004494  6A12               	clrf	(___xxtofl@val+3)^(0+1280),c
  1412   004496  0E00               	movlw	0
  1413   004498  EC3C  F025         	call	___xxtofl
  1414   00449C  C50F  F51D         	movff	?___xxtofl,___flmul@b
  1415   0044A0  C510  F51E         	movff	?___xxtofl+1,___flmul@b+1
  1416   0044A4  C511  F51F         	movff	?___xxtofl+2,___flmul@b+2
  1417   0044A8  C512  F520         	movff	?___xxtofl+3,___flmul@b+3
  1418   0044AC  0EF6               	movlw	246
  1419   0044AE  6E21               	movwf	___flmul@a^(0+1280),c
  1420   0044B0  0E09               	movlw	9
  1421   0044B2  6E22               	movwf	(___flmul@a+1)^(0+1280),c
  1422   0044B4  0EA0               	movlw	160
  1423   0044B6  6E23               	movwf	(___flmul@a+2)^(0+1280),c
  1424   0044B8  0E3A               	movlw	58
  1425   0044BA  6E24               	movwf	(___flmul@a+3)^(0+1280),c
  1426   0044BC  EC78  F01D         	call	___flmul	;wreg free
  1427   0044C0  C51D  F5C9         	movff	?___flmul,_adc_conv
  1428   0044C4  C51E  F5CA         	movff	?___flmul+1,_adc_conv+1
  1429   0044C8  C51F  F5CB         	movff	?___flmul+2,_adc_conv+2
  1430   0044CC  C520  F5CC         	movff	?___flmul+3,_adc_conv+3
  1431   0044D0                     
  1432                           ;main.c: 74:         distancia = getDistancia();
  1433   0044D0  ECF8  F02C         	call	_getDistancia	;wreg free
  1434   0044D4  C503  F5D1         	movff	?_getDistancia,_distancia
  1435   0044D8  C504  F5D2         	movff	?_getDistancia+1,_distancia+1
  1436   0044DC                     
  1437                           ;main.c: 75:         flag = get_DHT();
  1438   0044DC  EC00  F02E         	call	_get_DHT	;wreg free
  1439   0044E0  C503  F5E1         	movff	?_get_DHT,_flag
  1440   0044E4  C504  F5E2         	movff	?_get_DHT+1,_flag+1
  1441   0044E8                     
  1442                           ;main.c: 77:         if(flag==1){
  1443   0044E8  0105               	movlb	5	; () banked
  1444   0044EA  05E1               	decf	_flag& (0+255),w,b
  1445   0044EC  11E2               	iorwf	(_flag+1)& (0+255),w,b
  1446   0044EE  A4D8               	btfss	status,2,c
  1447   0044F0  EF7C  F022         	goto	u7551
  1448   0044F4  EF7E  F022         	goto	u7550
  1449   0044F8                     u7551:
  1450   0044F8  EF8C  F022         	goto	l6597
  1451   0044FC                     u7550:
  1452   0044FC                     
  1453                           ; BSR set to: 5
  1454                           ;main.c: 78:             flag=0;
  1455   0044FC  0E00               	movlw	0
  1456   0044FE  6FE2               	movwf	(_flag+1)& (0+255),b
  1457   004500  0E00               	movlw	0
  1458   004502  6FE1               	movwf	_flag& (0+255),b
  1459   004504                     
  1460                           ; BSR set to: 5
  1461                           ;main.c: 79:             DHT11_Read_Data(&temp,&hume);
  1462   004504  0EE9               	movlw	low _temp
  1463   004506  6E36               	movwf	DHT11_Read_Data@tem^(0+1280),c
  1464   004508  0E05               	movlw	high _temp
  1465   00450A  6E37               	movwf	(DHT11_Read_Data@tem+1)^(0+1280),c
  1466   00450C  0EE5               	movlw	low _hume
  1467   00450E  6E38               	movwf	DHT11_Read_Data@hum^(0+1280),c
  1468   004510  0E05               	movlw	high _hume
  1469   004512  6E39               	movwf	(DHT11_Read_Data@hum+1)^(0+1280),c
  1470   004514  EC3B  F028         	call	_DHT11_Read_Data	;wreg free
  1471   004518                     l6597:
  1472                           
  1473                           ;main.c: 81:         printf("#%0.1f/%0.1f/%0.1f/%04d/%d/%d/%d/%d/%d/%d*",
  1474   004518  0E01               	movlw	low STR_1
  1475   00451A  0105               	movlb	5	; () banked
  1476   00451C  6FA1               	movwf	printf@fmt& (0+255),b
  1477   00451E  0E26               	movlw	high STR_1
  1478   004520  6FA2               	movwf	(printf@fmt+1)& (0+255),b
  1479   004522  C5E5  F5A3         	movff	_hume,?_printf+2
  1480   004526  C5E6  F5A4         	movff	_hume+1,?_printf+3
  1481   00452A  C5E7  F5A5         	movff	_hume+2,?_printf+4
  1482   00452E  C5E8  F5A6         	movff	_hume+3,?_printf+5
  1483   004532  C5E9  F5A7         	movff	_temp,?_printf+6
  1484   004536  C5EA  F5A8         	movff	_temp+1,?_printf+7
  1485   00453A  C5EB  F5A9         	movff	_temp+2,?_printf+8
  1486   00453E  C5EC  F5AA         	movff	_temp+3,?_printf+9
  1487   004542  C5C9  F5AB         	movff	_adc_conv,?_printf+10
  1488   004546  C5CA  F5AC         	movff	_adc_conv+1,?_printf+11
  1489   00454A  C5CB  F5AD         	movff	_adc_conv+2,?_printf+12
  1490   00454E  C5CC  F5AE         	movff	_adc_conv+3,?_printf+13
  1491   004552  C5D1  F5AF         	movff	_distancia,?_printf+14
  1492   004556  C5D2  F5B0         	movff	_distancia+1,?_printf+15
  1493   00455A  C5DD  F5B1         	movff	_leda,?_printf+16
  1494   00455E  C5DE  F5B2         	movff	_leda+1,?_printf+17
  1495   004562  C5DB  F5B3         	movff	_ledb,?_printf+18
  1496   004566  C5DC  F5B4         	movff	_ledb+1,?_printf+19
  1497   00456A  C5D9  F5B5         	movff	_ledc,?_printf+20
  1498   00456E  C5DA  F5B6         	movff	_ledc+1,?_printf+21
  1499   004572  C5D5  F5B7         	movff	_m_izq,?_printf+22
  1500   004576  C5D6  F5B8         	movff	_m_izq+1,?_printf+23
  1501   00457A  C5D3  F5B9         	movff	_m_stop,?_printf+24
  1502   00457E  C5D4  F5BA         	movff	_m_stop+1,?_printf+25
  1503   004582  C5D7  F5BB         	movff	_m_der,?_printf+26
  1504   004586  C5D8  F5BC         	movff	_m_der+1,?_printf+27
  1505   00458A  ECBC  F02E         	call	_printf	;wreg free
  1506   00458E                     
  1507                           ;main.c: 84:         _delay((unsigned long)((30)*(64000000UL/4000.0)));
  1508   00458E  0E03               	movlw	3
  1509   004590  0105               	movlb	5	; () banked
  1510   004592  6FC0               	movwf	(??_main+1)& (0+255),b
  1511   004594  0E70               	movlw	112
  1512   004596  6FBF               	movwf	??_main& (0+255),b
  1513   004598  0E5C               	movlw	92
  1514   00459A                     u7567:
  1515   00459A  2EE8               	decfsz	wreg,f,c
  1516   00459C  D7FE               	bra	u7567
  1517   00459E  2FBF               	decfsz	??_main& (0+255),f,b
  1518   0045A0  D7FC               	bra	u7567
  1519   0045A2  2FC0               	decfsz	(??_main+1)& (0+255),f,b
  1520   0045A4  D7FA               	bra	u7567
  1521   0045A6  F000               	nop	
  1522   0045A8  EF5C  F021         	goto	l6543
  1523   0045AC  EF0D  F000         	goto	start
  1524   0045B0                     __end_of_main:
  1525                           	callstack 0
  1526                           
  1527 ;; *************** function _printf *****************
  1528 ;; Defined at:
  1529 ;;		line 5 in file "C:\Program Files\Microchip\xc8\v2.40\pic\sources\c99\common\printf.c"
  1530 ;; Parameters:    Size  Location     Type
  1531 ;;  fmt             2   65[BANK5 ] PTR const unsigned char 
  1532 ;;		 -> STR_1(43), 
  1533 ;; Auto vars:     Size  Location     Type
  1534 ;;  ap              2   93[BANK5 ] PTR void [1]
  1535 ;;		 -> ?_printf(2), 
  1536 ;;  ret             2    0        int 
  1537 ;; Return value:  Size  Location     Type
  1538 ;;                  2   65[BANK5 ] int 
  1539 ;; Registers used:
  1540 ;;		wreg, fsr1l, fsr1h, fsr2l, fsr2h, status,2, status,0, tblptrl, tblptrh, tblptru, prodl, prodh, cstack
  1541 ;; Tracked objects:
  1542 ;;		On entry : 0/0
  1543 ;;		On exit  : 0/0
  1544 ;;		Unchanged: 0/0
  1545 ;; Data sizes:     COMRAM   BANK5   BANK6   BANK7   BANK8   BANK9  BANK10  BANK11  BANK12  BANK13  BANK14  BANK15  BANK1
      +6  BANK17  BANK18  BANK19  BANK20  BANK21  BANK22  BANK23  BANK24  BANK25  BANK26  BANK27  BANK28  BANK29  BANK30  BANK3
      +1  BANK32  BANK33  BANK34  BANK35  BANK36
  1546 ;;      Params:         0      28       0       0       0       0       0       0       0       0       0       0       
      +0       0       0       0       0       0       0       0       0       0       0       0       0       0       0       
      +0       0       0       0       0       0
  1547 ;;      Locals:         0       2       0       0       0       0       0       0       0       0       0       0       
      +0       0       0       0       0       0       0       0       0       0       0       0       0       0       0       
      +0       0       0       0       0       0
  1548 ;;      Temps:          0       0       0       0       0       0       0       0       0       0       0       0       
      +0       0       0       0       0       0       0       0       0       0       0       0       0       0       0       
      +0       0       0       0       0       0
  1549 ;;      Totals:         0      30       0       0       0       0       0       0       0       0       0       0       
      +0       0       0       0       0       0       0       0       0       0       0       0       0       0       0       
      +0       0       0       0       0       0
  1550 ;;Total ram usage:       30 bytes
  1551 ;; Hardware stack levels used: 1
  1552 ;; Hardware stack levels required when called: 12
  1553 ;; This function calls:
  1554 ;;		_vfprintf
  1555 ;; This function is called by:
  1556 ;;		_main
  1557 ;; This function uses a non-reentrant model
  1558 ;;
  1559                           
  1560                           	psect	text1
  1561   005D78                     __ptext1:
  1562                           	callstack 0
  1563   005D78                     _printf:
  1564                           	callstack 114
  1565   005D78  0EA3               	movlw	low (?_printf+2)
  1566   005D7A  0105               	movlb	5	; () banked
  1567   005D7C  6FBD               	movwf	printf@ap& (0+255),b
  1568   005D7E  0E05               	movlw	high (?_printf+2)
  1569   005D80  6FBE               	movwf	(printf@ap+1)& (0+255),b
  1570   005D82                     
  1571                           ; BSR set to: 5
  1572   005D82  0E00               	movlw	0
  1573   005D84  6F99               	movwf	vfprintf@fp& (0+255),b
  1574   005D86  0E00               	movlw	0
  1575   005D88  6F9A               	movwf	(vfprintf@fp+1)& (0+255),b
  1576   005D8A  C5A1  F59B         	movff	printf@fmt,vfprintf@fmt
  1577   005D8E  C5A2  F59C         	movff	printf@fmt+1,vfprintf@fmt+1
  1578   005D92  0EBD               	movlw	low printf@ap
  1579   005D94  6F9D               	movwf	vfprintf@ap& (0+255),b
  1580   005D96  0E05               	movlw	high printf@ap
  1581   005D98  6F9E               	movwf	(vfprintf@ap+1)& (0+255),b
  1582   005D9A  ECA6  F02C         	call	_vfprintf	;wreg free
  1583   005D9E  0012               	return		;funcret
  1584   005DA0                     __end_of_printf:
  1585                           	callstack 0
  1586                           
  1587 ;; *************** function _vfprintf *****************
  1588 ;; Defined at:
  1589 ;;		line 1520 in file "C:\Program Files\Microchip\xc8\v2.40\pic\sources\c99\common\doprnt.c"
  1590 ;; Parameters:    Size  Location     Type
  1591 ;;  fp              2   57[BANK5 ] PTR struct _IO_FILE
  1592 ;;		 -> NULL(0), 
  1593 ;;  fmt             2   59[BANK5 ] PTR const unsigned char 
  1594 ;;		 -> STR_1(43), 
  1595 ;;  ap              2   61[BANK5 ] PTR PTR void 
  1596 ;;		 -> printf@ap(2), 
  1597 ;; Auto vars:     Size  Location     Type
  1598 ;;  cfmt            2   63[BANK5 ] PTR unsigned char 
  1599 ;;		 -> STR_1(43), 
  1600 ;; Return value:  Size  Location     Type
  1601 ;;                  2   57[BANK5 ] int 
  1602 ;; Registers used:
  1603 ;;		wreg, fsr1l, fsr1h, fsr2l, fsr2h, status,2, status,0, tblptrl, tblptrh, tblptru, prodl, prodh, cstack
  1604 ;; Tracked objects:
  1605 ;;		On entry : 0/0
  1606 ;;		On exit  : 0/0
  1607 ;;		Unchanged: 0/0
  1608 ;; Data sizes:     COMRAM   BANK5   BANK6   BANK7   BANK8   BANK9  BANK10  BANK11  BANK12  BANK13  BANK14  BANK15  BANK1
      +6  BANK17  BANK18  BANK19  BANK20  BANK21  BANK22  BANK23  BANK24  BANK25  BANK26  BANK27  BANK28  BANK29  BANK30  BANK3
      +1  BANK32  BANK33  BANK34  BANK35  BANK36
  1609 ;;      Params:         0       6       0       0       0       0       0       0       0       0       0       0       
      +0       0       0       0       0       0       0       0       0       0       0       0       0       0       0       
      +0       0       0       0       0       0
  1610 ;;      Locals:         0       2       0       0       0       0       0       0       0       0       0       0       
      +0       0       0       0       0       0       0       0       0       0       0       0       0       0       0       
      +0       0       0       0       0       0
  1611 ;;      Temps:          0       0       0       0       0       0       0       0       0       0       0       0       
      +0       0       0       0       0       0       0       0       0       0       0       0       0       0       0       
      +0       0       0       0       0       0
  1612 ;;      Totals:         0       8       0       0       0       0       0       0       0       0       0       0       
      +0       0       0       0       0       0       0       0       0       0       0       0       0       0       0       
      +0       0       0       0       0       0
  1613 ;;Total ram usage:        8 bytes
  1614 ;; Hardware stack levels used: 1
  1615 ;; Hardware stack levels required when called: 11
  1616 ;; This function calls:
  1617 ;;		_vfpfcnvrt
  1618 ;; This function is called by:
  1619 ;;		_printf
  1620 ;; This function uses a non-reentrant model
  1621 ;;
  1622                           
  1623                           	psect	text2
  1624   00594C                     __ptext2:
  1625                           	callstack 0
  1626   00594C                     _vfprintf:
  1627                           	callstack 114
  1628   00594C                     
  1629                           ;C:\Program Files\Microchip\xc8\v2.40\pic\sources\c99\common\doprnt.c: 1520: int vfprint
      +                          f(FILE *fp, const char *fmt, va_list ap);C:\Program Files\Microchip\xc8\v2.40\pic\source
      +                          s\c99\common\doprnt.c: 1521: {;C:\Program Files\Microchip\xc8\v2.40\pic\sources\c99\comm
      +                          on\doprnt.c: 1523:     char *cfmt;;C:\Program Files\Microchip\xc8\v2.40\pic\sources\c99\
      +                          common\doprnt.c: 1525:     cfmt = (char *)fmt;
  1630   00594C  C59B  F59F         	movff	vfprintf@fmt,vfprintf@cfmt
  1631   005950  C59C  F5A0         	movff	vfprintf@fmt+1,vfprintf@cfmt+1
  1632                           
  1633                           ;C:\Program Files\Microchip\xc8\v2.40\pic\sources\c99\common\doprnt.c: 1529:     while (
      +                          *cfmt) {
  1634   005954  EFBA  F02C         	goto	l6501
  1635   005958                     l6499:
  1636                           
  1637                           ;C:\Program Files\Microchip\xc8\v2.40\pic\sources\c99\common\doprnt.c: 1533:    vfpfcnvr
      +                          t(fp, &cfmt, ap);
  1638   005958  C599  F553         	movff	vfprintf@fp,vfpfcnvrt@fp
  1639   00595C  C59A  F554         	movff	vfprintf@fp+1,vfpfcnvrt@fp+1
  1640   005960  0E9F               	movlw	low vfprintf@cfmt
  1641   005962  6E55               	movwf	vfpfcnvrt@fmt^(0+1280),c
  1642   005964  0E05               	movlw	high vfprintf@cfmt
  1643   005966  6E56               	movwf	(vfpfcnvrt@fmt+1)^(0+1280),c
  1644   005968  C59D  F557         	movff	vfprintf@ap,vfpfcnvrt@ap
  1645   00596C  C59E  F558         	movff	vfprintf@ap+1,vfpfcnvrt@ap+1
  1646   005970  EC60  F018         	call	_vfpfcnvrt	;wreg free
  1647   005974                     l6501:
  1648                           
  1649                           ;C:\Program Files\Microchip\xc8\v2.40\pic\sources\c99\common\doprnt.c: 1529:     while (
      +                          *cfmt) {
  1650   005974  C59F  F4F6         	movff	vfprintf@cfmt,tblptrl
  1651   005978  C5A0  F4F7         	movff	vfprintf@cfmt+1,tblptrh
  1652   00597C                     	if	0	;tblptru may be non-zero
  1653   00597C                     	endif
  1654   00597C                     	if	1	;Program memory is > 0xFFFF, there are 3 active tblptr bytes
  1655   00597C  0E00               	movlw	low (__mediumconst shr (0+16))
  1656   00597E  6EF8               	movwf	tblptru,c
  1657   005980                     	endif
  1658   005980  0008               	tblrd		*
  1659   005982  50F5               	movf	tablat,w,c
  1660   005984  0900               	iorlw	0
  1661   005986  A4D8               	btfss	status,2,c
  1662   005988  EFC8  F02C         	goto	u7361
  1663   00598C  EFCA  F02C         	goto	u7360
  1664   005990                     u7361:
  1665   005990  EFAC  F02C         	goto	l6499
  1666   005994                     u7360:
  1667   005994                     
  1668                           ;C:\Program Files\Microchip\xc8\v2.40\pic\sources\c99\common\doprnt.c: 1538:  return 0;
  1669   005994  0E00               	movlw	0
  1670   005996  0105               	movlb	5	; () banked
  1671   005998  6F9A               	movwf	(?_vfprintf+1)& (0+255),b
  1672   00599A  0E00               	movlw	0
  1673   00599C  6F99               	movwf	?_vfprintf& (0+255),b
  1674   00599E                     
  1675                           ; BSR set to: 5
  1676   00599E  0012               	return		;funcret
  1677   0059A0                     __end_of_vfprintf:
  1678                           	callstack 0
  1679                           
  1680 ;; *************** function _vfpfcnvrt *****************
  1681 ;; Defined at:
  1682 ;;		line 1007 in file "C:\Program Files\Microchip\xc8\v2.40\pic\sources\c99\common\doprnt.c"
  1683 ;; Parameters:    Size  Location     Type
  1684 ;;  fp              2   82[COMRAM] PTR struct _IO_FILE
  1685 ;;		 -> NULL(0), 
  1686 ;;  fmt             2   84[COMRAM] PTR PTR unsigned char 
  1687 ;;		 -> vfprintf@cfmt(2), 
  1688 ;;  ap              2   86[COMRAM] PTR PTR void 
  1689 ;;		 -> printf@ap(2), 
  1690 ;; Auto vars:     Size  Location     Type
  1691 ;;  convarg         8   46[BANK5 ] struct .
  1692 ;;  cp              2   55[BANK5 ] PTR unsigned char 
  1693 ;;		 -> STR_1(43), 
  1694 ;;  done            2   44[BANK5 ] int 
  1695 ;;  i               2    0        int 
  1696 ;;  c               1   54[BANK5 ] unsigned char 
  1697 ;; Return value:  Size  Location     Type
  1698 ;;                  1    wreg      void 
  1699 ;; Registers used:
  1700 ;;		wreg, fsr1l, fsr1h, fsr2l, fsr2h, status,2, status,0, tblptrl, tblptrh, tblptru, prodl, prodh, cstack
  1701 ;; Tracked objects:
  1702 ;;		On entry : 0/0
  1703 ;;		On exit  : 0/0
  1704 ;;		Unchanged: 0/0
  1705 ;; Data sizes:     COMRAM   BANK5   BANK6   BANK7   BANK8   BANK9  BANK10  BANK11  BANK12  BANK13  BANK14  BANK15  BANK1
      +6  BANK17  BANK18  BANK19  BANK20  BANK21  BANK22  BANK23  BANK24  BANK25  BANK26  BANK27  BANK28  BANK29  BANK30  BANK3
      +1  BANK32  BANK33  BANK34  BANK35  BANK36
  1706 ;;      Params:         6       0       0       0       0       0       0       0       0       0       0       0       
      +0       0       0       0       0       0       0       0       0       0       0       0       0       0       0       
      +0       0       0       0       0       0
  1707 ;;      Locals:         0      13       0       0       0       0       0       0       0       0       0       0       
      +0       0       0       0       0       0       0       0       0       0       0       0       0       0       0       
      +0       0       0       0       0       0
  1708 ;;      Temps:          3       0       0       0       0       0       0       0       0       0       0       0       
      +0       0       0       0       0       0       0       0       0       0       0       0       0       0       0       
      +0       0       0       0       0       0
  1709 ;;      Totals:         9      13       0       0       0       0       0       0       0       0       0       0       
      +0       0       0       0       0       0       0       0       0       0       0       0       0       0       0       
      +0       0       0       0       0       0
  1710 ;;Total ram usage:       22 bytes
  1711 ;; Hardware stack levels used: 1
  1712 ;; Hardware stack levels required when called: 10
  1713 ;; This function calls:
  1714 ;;		_atoi
  1715 ;;		_dtoa
  1716 ;;		_efgtoa
  1717 ;;		_fputc
  1718 ;;		_isdigit
  1719 ;; This function is called by:
  1720 ;;		_vfprintf
  1721 ;; This function uses a non-reentrant model
  1722 ;;
  1723                           
  1724                           	psect	text3
  1725   0030C0                     __ptext3:
  1726                           	callstack 0
  1727   0030C0                     _vfpfcnvrt:
  1728                           	callstack 114
  1729   0030C0                     
  1730                           ;C:\Program Files\Microchip\xc8\v2.40\pic\sources\c99\common\doprnt.c: 1007: vfpfcnvrt(F
      +                          ILE *fp, char *fmt[], va_list ap);C:\Program Files\Microchip\xc8\v2.40\pic\sources\c99\c
      +                          ommon\doprnt.c: 1008: {;C:\Program Files\Microchip\xc8\v2.40\pic\sources\c99\common\dopr
      +                          nt.c: 1009:     char c, *cp;;C:\Program Files\Microchip\xc8\v2.40\pic\sources\c99\common
      +                          \doprnt.c: 1010:     int done, i;;C:\Program Files\Microchip\xc8\v2.40\pic\sources\c99\c
      +                          ommon\doprnt.c: 1016:  } convarg;;C:\Program Files\Microchip\xc8\v2.40\pic\sources\c99\c
      +                          ommon\doprnt.c: 1019:     if ((*fmt)[0] == '%') {
  1731   0030C0  C555  F4D9         	movff	vfpfcnvrt@fmt,fsr2l
  1732   0030C4  C556  F4DA         	movff	vfpfcnvrt@fmt+1,fsr2h
  1733   0030C8  C4DE F4F6          	movff	postinc2,tblptrl
  1734   0030CC  C4DD F4F7          	movff	postdec2,tblptrh
  1735   0030D0                     	if	0	;tblptru may be non-zero
  1736   0030D0                     	endif
  1737   0030D0                     	if	1	;Program memory is > 0xFFFF, there are 3 active tblptr bytes
  1738   0030D0  0E00               	movlw	low (__mediumconst shr (0+16))
  1739   0030D2  6EF8               	movwf	tblptru,c
  1740   0030D4                     	endif
  1741   0030D4  0008               	tblrd		*
  1742   0030D6  50F5               	movf	tablat,w,c
  1743   0030D8  0A25               	xorlw	37
  1744   0030DA  A4D8               	btfss	status,2,c
  1745   0030DC  EF72  F018         	goto	u7241
  1746   0030E0  EF74  F018         	goto	u7240
  1747   0030E4                     u7241:
  1748   0030E4  EF01  F01B         	goto	l6449
  1749   0030E8                     u7240:
  1750   0030E8                     
  1751                           ;C:\Program Files\Microchip\xc8\v2.40\pic\sources\c99\common\doprnt.c: 1020:         ++*
      +                          fmt;
  1752   0030E8  C555  F4D9         	movff	vfpfcnvrt@fmt,fsr2l
  1753   0030EC  C556  F4DA         	movff	vfpfcnvrt@fmt+1,fsr2h
  1754   0030F0  2ADE               	incf	postinc2,f,c
  1755   0030F2  0E00               	movlw	0
  1756   0030F4  22DD               	addwfc	postdec2,f,c
  1757   0030F6                     
  1758                           ;C:\Program Files\Microchip\xc8\v2.40\pic\sources\c99\common\doprnt.c: 1022:         fla
      +                          gs = width = 0;
  1759   0030F6  0E00               	movlw	0
  1760   0030F8  0105               	movlb	5	; () banked
  1761   0030FA  6FCE               	movwf	(_width+1)& (0+255),b
  1762   0030FC  0E00               	movlw	0
  1763   0030FE  6FCD               	movwf	_width& (0+255),b
  1764   003100  C5CD  F55C         	movff	_width,_flags
  1765   003104                     
  1766                           ; BSR set to: 5
  1767                           ;C:\Program Files\Microchip\xc8\v2.40\pic\sources\c99\common\doprnt.c: 1023:         pre
      +                          c = -1;
  1768   003104  69CF               	setf	_prec& (0+255),b
  1769   003106  69D0               	setf	(_prec+1)& (0+255),b
  1770   003108                     
  1771                           ; BSR set to: 5
  1772                           ;C:\Program Files\Microchip\xc8\v2.40\pic\sources\c99\common\doprnt.c: 1027:         don
      +                          e = 0;
  1773   003108  0E00               	movlw	0
  1774   00310A  6F8D               	movwf	(vfpfcnvrt@done+1)& (0+255),b
  1775   00310C  0E00               	movlw	0
  1776   00310E  6F8C               	movwf	vfpfcnvrt@done& (0+255),b
  1777                           
  1778                           ;C:\Program Files\Microchip\xc8\v2.40\pic\sources\c99\common\doprnt.c: 1028:         whi
      +                          le (!done) {
  1779   003110  EFB6  F018         	goto	l6363
  1780   003114                     l6353:
  1781                           
  1782                           ; BSR set to: 5
  1783                           ;C:\Program Files\Microchip\xc8\v2.40\pic\sources\c99\common\doprnt.c: 1038:            
      +                                   flags |= (1 << 1);
  1784   003114  825C               	bsf	_flags^(0+1280),1,c
  1785   003116                     
  1786                           ; BSR set to: 5
  1787                           ;C:\Program Files\Microchip\xc8\v2.40\pic\sources\c99\common\doprnt.c: 1039:            
      +                                   ++*fmt;
  1788   003116  C555  F4D9         	movff	vfpfcnvrt@fmt,fsr2l
  1789   00311A  C556  F4DA         	movff	vfpfcnvrt@fmt+1,fsr2h
  1790   00311E  2ADE               	incf	postinc2,f,c
  1791   003120  0E00               	movlw	0
  1792   003122  22DD               	addwfc	postdec2,f,c
  1793                           
  1794                           ;C:\Program Files\Microchip\xc8\v2.40\pic\sources\c99\common\doprnt.c: 1040:            
      +                                   break;
  1795   003124  EFB6  F018         	goto	l6363
  1796   003128                     l6357:
  1797                           
  1798                           ; BSR set to: 5
  1799                           ;C:\Program Files\Microchip\xc8\v2.40\pic\sources\c99\common\doprnt.c: 1061:            
      +                                   done = 1;
  1800   003128  0E00               	movlw	0
  1801   00312A  6F8D               	movwf	(vfpfcnvrt@done+1)& (0+255),b
  1802   00312C  0E01               	movlw	1
  1803   00312E  6F8C               	movwf	vfpfcnvrt@done& (0+255),b
  1804                           
  1805                           ;C:\Program Files\Microchip\xc8\v2.40\pic\sources\c99\common\doprnt.c: 1062:            
      +                                   break;
  1806   003130  EFB6  F018         	goto	l6363
  1807   003134                     l6361:
  1808                           
  1809                           ; BSR set to: 5
  1810   003134  C555  F4D9         	movff	vfpfcnvrt@fmt,fsr2l
  1811   003138  C556  F4DA         	movff	vfpfcnvrt@fmt+1,fsr2h
  1812   00313C  C4DE F4F6          	movff	postinc2,tblptrl
  1813   003140  C4DD F4F7          	movff	postdec2,tblptrh
  1814   003144                     	if	0	;tblptru may be non-zero
  1815   003144                     	endif
  1816   003144                     	if	1	;Program memory is > 0xFFFF, there are 3 active tblptr bytes
  1817   003144  0E00               	movlw	low (__mediumconst shr (0+16))
  1818   003146  6EF8               	movwf	tblptru,c
  1819   003148                     	endif
  1820   003148  0008               	tblrd		*
  1821   00314A  50F5               	movf	tablat,w,c
  1822   00314C  6E59               	movwf	??_vfpfcnvrt^(0+1280),c
  1823   00314E  6A5A               	clrf	(??_vfpfcnvrt+1)^(0+1280),c
  1824                           
  1825                           ; Switch on 2 bytes has been partitioned into a top level switch of size 1, and 1 sub-sw
      +                          itches
  1826                           ; Switch size 1, requested type "simple"
  1827                           ; Number of cases is 1, Range of values is 0 to 0
  1828                           ; switch strategies available:
  1829                           ; Name         Instructions Cycles
  1830                           ; simple_byte            4     3 (average)
  1831                           ;	Chosen strategy is simple_byte
  1832   003150  505A               	movf	(??_vfpfcnvrt+1)^(0+1280),w,c
  1833   003152  0A00               	xorlw	0	; case 0
  1834   003154  B4D8               	btfsc	status,2,c
  1835   003156  EFAF  F018         	goto	l6781
  1836   00315A  EF94  F018         	goto	l6357
  1837   00315E                     l6781:
  1838                           
  1839                           ; BSR set to: 5
  1840                           ; Switch size 1, requested type "simple"
  1841                           ; Number of cases is 1, Range of values is 48 to 48
  1842                           ; switch strategies available:
  1843                           ; Name         Instructions Cycles
  1844                           ; simple_byte            4     3 (average)
  1845                           ;	Chosen strategy is simple_byte
  1846   00315E  5059               	movf	??_vfpfcnvrt^(0+1280),w,c
  1847   003160  0A30               	xorlw	48	; case 48
  1848   003162  B4D8               	btfsc	status,2,c
  1849   003164  EF8A  F018         	goto	l6353
  1850   003168  EF94  F018         	goto	l6357
  1851   00316C                     l6363:
  1852                           
  1853                           ; BSR set to: 5
  1854                           ;C:\Program Files\Microchip\xc8\v2.40\pic\sources\c99\common\doprnt.c: 1028:         whi
      +                          le (!done) {
  1855   00316C  518C               	movf	vfpfcnvrt@done& (0+255),w,b
  1856   00316E  118D               	iorwf	(vfpfcnvrt@done+1)& (0+255),w,b
  1857   003170  B4D8               	btfsc	status,2,c
  1858   003172  EFBD  F018         	goto	u7251
  1859   003176  EFBF  F018         	goto	u7250
  1860   00317A                     u7251:
  1861   00317A  EF9A  F018         	goto	l6361
  1862   00317E                     u7250:
  1863   00317E                     
  1864                           ; BSR set to: 5
  1865                           ;C:\Program Files\Microchip\xc8\v2.40\pic\sources\c99\common\doprnt.c: 1074:         if 
      +                          ((*fmt)[0] == '*') {
  1866   00317E  C555  F4D9         	movff	vfpfcnvrt@fmt,fsr2l
  1867   003182  C556  F4DA         	movff	vfpfcnvrt@fmt+1,fsr2h
  1868   003186  C4DE F4F6          	movff	postinc2,tblptrl
  1869   00318A  C4DD F4F7          	movff	postdec2,tblptrh
  1870   00318E                     	if	0	;tblptru may be non-zero
  1871   00318E                     	endif
  1872   00318E                     	if	1	;Program memory is > 0xFFFF, there are 3 active tblptr bytes
  1873   00318E  0E00               	movlw	low (__mediumconst shr (0+16))
  1874   003190  6EF8               	movwf	tblptru,c
  1875   003192                     	endif
  1876   003192  0008               	tblrd		*
  1877   003194  50F5               	movf	tablat,w,c
  1878   003196  0A2A               	xorlw	42
  1879   003198  A4D8               	btfss	status,2,c
  1880   00319A  EFD1  F018         	goto	u7261
  1881   00319E  EFD3  F018         	goto	u7260
  1882   0031A2                     u7261:
  1883   0031A2  EFFC  F018         	goto	l6373
  1884   0031A6                     u7260:
  1885   0031A6                     
  1886                           ; BSR set to: 5
  1887                           ;C:\Program Files\Microchip\xc8\v2.40\pic\sources\c99\common\doprnt.c: 1075:            
      +                           ++*fmt;
  1888   0031A6  C555  F4D9         	movff	vfpfcnvrt@fmt,fsr2l
  1889   0031AA  C556  F4DA         	movff	vfpfcnvrt@fmt+1,fsr2h
  1890   0031AE  2ADE               	incf	postinc2,f,c
  1891   0031B0  0E00               	movlw	0
  1892   0031B2  22DD               	addwfc	postdec2,f,c
  1893                           
  1894                           ;C:\Program Files\Microchip\xc8\v2.40\pic\sources\c99\common\doprnt.c: 1076:            
      +                           width = (*(int *)__va_arg(*(int **)ap, (int)0));
  1895   0031B4  C557  F4D9         	movff	vfpfcnvrt@ap,fsr2l
  1896   0031B8  C558  F4DA         	movff	vfpfcnvrt@ap+1,fsr2h
  1897   0031BC  C4DF F559          	movff	indf2,??_vfpfcnvrt
  1898   0031C0  0E02               	movlw	2
  1899   0031C2  26DE               	addwf	postinc2,f,c
  1900   0031C4  C4DF F55A          	movff	indf2,??_vfpfcnvrt+1
  1901   0031C8  0E00               	movlw	0
  1902   0031CA  22DD               	addwfc	postdec2,f,c
  1903   0031CC  C559  F4D9         	movff	??_vfpfcnvrt,fsr2l
  1904   0031D0  C55A  F4DA         	movff	??_vfpfcnvrt+1,fsr2h
  1905   0031D4  C4DE F5CD          	movff	postinc2,_width
  1906   0031D8  C4DD F5CE          	movff	postdec2,_width+1
  1907   0031DC                     
  1908                           ; BSR set to: 5
  1909                           ;C:\Program Files\Microchip\xc8\v2.40\pic\sources\c99\common\doprnt.c: 1077:            
      +                           if (width < 0) {
  1910   0031DC  BFCE               	btfsc	(_width+1)& (0+255),7,b
  1911   0031DE  EFF5  F018         	goto	u7270
  1912   0031E2  EFF3  F018         	goto	u7271
  1913   0031E6                     u7271:
  1914   0031E6  EF31  F019         	goto	l6381
  1915   0031EA                     u7270:
  1916   0031EA                     
  1917                           ; BSR set to: 5
  1918                           ;C:\Program Files\Microchip\xc8\v2.40\pic\sources\c99\common\doprnt.c: 1078:            
      +                               flags |= (1 << 0);
  1919   0031EA  805C               	bsf	_flags^(0+1280),0,c
  1920                           
  1921                           ;C:\Program Files\Microchip\xc8\v2.40\pic\sources\c99\common\doprnt.c: 1079:            
      +                               width = -width;
  1922   0031EC  6DCD               	negf	_width& (0+255),b
  1923   0031EE  1FCE               	comf	(_width+1)& (0+255),f,b
  1924   0031F0  B0D8               	btfsc	status,0,c
  1925   0031F2  2BCE               	incf	(_width+1)& (0+255),f,b
  1926   0031F4  EF31  F019         	goto	l6381
  1927   0031F8                     l6373:
  1928                           
  1929                           ; BSR set to: 5
  1930                           ;C:\Program Files\Microchip\xc8\v2.40\pic\sources\c99\common\doprnt.c: 1082:            
      +                           width = atoi(*fmt);
  1931   0031F8  C555  F4D9         	movff	vfpfcnvrt@fmt,fsr2l
  1932   0031FC  C556  F4DA         	movff	vfpfcnvrt@fmt+1,fsr2h
  1933   003200  C4DE F509          	movff	postinc2,atoi@s
  1934   003204  C4DD F50A          	movff	postdec2,atoi@s+1
  1935   003208  EC8C  F027         	call	_atoi	;wreg free
  1936   00320C  C509  F5CD         	movff	?_atoi,_width
  1937   003210  C50A  F5CE         	movff	?_atoi+1,_width+1
  1938                           
  1939                           ;C:\Program Files\Microchip\xc8\v2.40\pic\sources\c99\common\doprnt.c: 1083:            
      +                           while ((0 && isdigit((*fmt)[0]), ((unsigned)((*fmt)[0])-'0') < 10)) {
  1940   003214  EF13  F019         	goto	l6379
  1941   003218                     l6375:
  1942                           
  1943                           ;C:\Program Files\Microchip\xc8\v2.40\pic\sources\c99\common\doprnt.c: 1084:            
      +                               ++*fmt;
  1944   003218  C555  F4D9         	movff	vfpfcnvrt@fmt,fsr2l
  1945   00321C  C556  F4DA         	movff	vfpfcnvrt@fmt+1,fsr2h
  1946   003220  2ADE               	incf	postinc2,f,c
  1947   003222  0E00               	movlw	0
  1948   003224  22DD               	addwfc	postdec2,f,c
  1949   003226                     l6379:
  1950   003226  C555  F4D9         	movff	vfpfcnvrt@fmt,fsr2l
  1951   00322A  C556  F4DA         	movff	vfpfcnvrt@fmt+1,fsr2h
  1952   00322E  C4DE F4F6          	movff	postinc2,tblptrl
  1953   003232  C4DD F4F7          	movff	postdec2,tblptrh
  1954   003236                     	if	0	;tblptru may be non-zero
  1955   003236                     	endif
  1956   003236                     	if	1	;Program memory is > 0xFFFF, there are 3 active tblptr bytes
  1957   003236  0E00               	movlw	low (__mediumconst shr (0+16))
  1958   003238  6EF8               	movwf	tblptru,c
  1959   00323A                     	endif
  1960   00323A  0008               	tblrd		*
  1961   00323C  C4F5 F559          	movff	tablat,??_vfpfcnvrt
  1962   003240  0ED0               	movlw	208
  1963   003242  2459               	addwf	??_vfpfcnvrt^(0+1280),w,c
  1964   003244  6E5A               	movwf	(??_vfpfcnvrt+1)^(0+1280),c
  1965   003246  6A5B               	clrf	(??_vfpfcnvrt+2)^(0+1280),c
  1966   003248  0EFF               	movlw	255
  1967   00324A  225B               	addwfc	(??_vfpfcnvrt+2)^(0+1280),f,c
  1968   00324C  505B               	movf	(??_vfpfcnvrt+2)^(0+1280),w,c
  1969   00324E  E109               	bnz	u7280
  1970   003250  0E0A               	movlw	10
  1971   003252  5C5A               	subwf	(??_vfpfcnvrt+1)^(0+1280),w,c
  1972   003254  A0D8               	btfss	status,0,c
  1973   003256  EF2F  F019         	goto	u7281
  1974   00325A  EF31  F019         	goto	u7280
  1975   00325E                     u7281:
  1976   00325E  EF0C  F019         	goto	l6375
  1977   003262                     u7280:
  1978   003262                     l6381:
  1979                           
  1980                           ;C:\Program Files\Microchip\xc8\v2.40\pic\sources\c99\common\doprnt.c: 1091:         if 
      +                          ((*fmt)[0] == '.') {
  1981   003262  C555  F4D9         	movff	vfpfcnvrt@fmt,fsr2l
  1982   003266  C556  F4DA         	movff	vfpfcnvrt@fmt+1,fsr2h
  1983   00326A  C4DE F4F6          	movff	postinc2,tblptrl
  1984   00326E  C4DD F4F7          	movff	postdec2,tblptrh
  1985   003272                     	if	0	;tblptru may be non-zero
  1986   003272                     	endif
  1987   003272                     	if	1	;Program memory is > 0xFFFF, there are 3 active tblptr bytes
  1988   003272  0E00               	movlw	low (__mediumconst shr (0+16))
  1989   003274  6EF8               	movwf	tblptru,c
  1990   003276                     	endif
  1991   003276  0008               	tblrd		*
  1992   003278  50F5               	movf	tablat,w,c
  1993   00327A  0A2E               	xorlw	46
  1994   00327C  A4D8               	btfss	status,2,c
  1995   00327E  EF43  F019         	goto	u7291
  1996   003282  EF45  F019         	goto	u7290
  1997   003286                     u7291:
  1998   003286  EFB7  F019         	goto	l6399
  1999   00328A                     u7290:
  2000   00328A                     
  2001                           ;C:\Program Files\Microchip\xc8\v2.40\pic\sources\c99\common\doprnt.c: 1092:            
      +                           prec = 0;
  2002   00328A  0E00               	movlw	0
  2003   00328C  0105               	movlb	5	; () banked
  2004   00328E  6FD0               	movwf	(_prec+1)& (0+255),b
  2005   003290  0E00               	movlw	0
  2006   003292  6FCF               	movwf	_prec& (0+255),b
  2007   003294                     
  2008                           ; BSR set to: 5
  2009                           ;C:\Program Files\Microchip\xc8\v2.40\pic\sources\c99\common\doprnt.c: 1093:            
      +                           ++*fmt;
  2010   003294  C555  F4D9         	movff	vfpfcnvrt@fmt,fsr2l
  2011   003298  C556  F4DA         	movff	vfpfcnvrt@fmt+1,fsr2h
  2012   00329C  2ADE               	incf	postinc2,f,c
  2013   00329E  0E00               	movlw	0
  2014   0032A0  22DD               	addwfc	postdec2,f,c
  2015   0032A2                     
  2016                           ; BSR set to: 5
  2017                           ;C:\Program Files\Microchip\xc8\v2.40\pic\sources\c99\common\doprnt.c: 1094:            
      +                           if ((*fmt)[0] == '*') {
  2018   0032A2  C555  F4D9         	movff	vfpfcnvrt@fmt,fsr2l
  2019   0032A6  C556  F4DA         	movff	vfpfcnvrt@fmt+1,fsr2h
  2020   0032AA  C4DE F4F6          	movff	postinc2,tblptrl
  2021   0032AE  C4DD F4F7          	movff	postdec2,tblptrh
  2022   0032B2                     	if	0	;tblptru may be non-zero
  2023   0032B2                     	endif
  2024   0032B2                     	if	1	;Program memory is > 0xFFFF, there are 3 active tblptr bytes
  2025   0032B2  0E00               	movlw	low (__mediumconst shr (0+16))
  2026   0032B4  6EF8               	movwf	tblptru,c
  2027   0032B6                     	endif
  2028   0032B6  0008               	tblrd		*
  2029   0032B8  50F5               	movf	tablat,w,c
  2030   0032BA  0A2A               	xorlw	42
  2031   0032BC  A4D8               	btfss	status,2,c
  2032   0032BE  EF63  F019         	goto	u7301
  2033   0032C2  EF65  F019         	goto	u7300
  2034   0032C6                     u7301:
  2035   0032C6  EF82  F019         	goto	l6391
  2036   0032CA                     u7300:
  2037   0032CA                     
  2038                           ; BSR set to: 5
  2039                           ;C:\Program Files\Microchip\xc8\v2.40\pic\sources\c99\common\doprnt.c: 1095:            
      +                               ++*fmt;
  2040   0032CA  C555  F4D9         	movff	vfpfcnvrt@fmt,fsr2l
  2041   0032CE  C556  F4DA         	movff	vfpfcnvrt@fmt+1,fsr2h
  2042   0032D2  2ADE               	incf	postinc2,f,c
  2043   0032D4  0E00               	movlw	0
  2044   0032D6  22DD               	addwfc	postdec2,f,c
  2045                           
  2046                           ;C:\Program Files\Microchip\xc8\v2.40\pic\sources\c99\common\doprnt.c: 1096:            
      +                               prec = (*(int *)__va_arg(*(int **)ap, (int)0));
  2047   0032D8  C557  F4D9         	movff	vfpfcnvrt@ap,fsr2l
  2048   0032DC  C558  F4DA         	movff	vfpfcnvrt@ap+1,fsr2h
  2049   0032E0  C4DF F559          	movff	indf2,??_vfpfcnvrt
  2050   0032E4  0E02               	movlw	2
  2051   0032E6  26DE               	addwf	postinc2,f,c
  2052   0032E8  C4DF F55A          	movff	indf2,??_vfpfcnvrt+1
  2053   0032EC  0E00               	movlw	0
  2054   0032EE  22DD               	addwfc	postdec2,f,c
  2055   0032F0  C559  F4D9         	movff	??_vfpfcnvrt,fsr2l
  2056   0032F4  C55A  F4DA         	movff	??_vfpfcnvrt+1,fsr2h
  2057   0032F8  C4DE F5CF          	movff	postinc2,_prec
  2058   0032FC  C4DD F5D0          	movff	postdec2,_prec+1
  2059                           
  2060                           ;C:\Program Files\Microchip\xc8\v2.40\pic\sources\c99\common\doprnt.c: 1097:            
      +                           } else {
  2061   003300  EFB7  F019         	goto	l6399
  2062   003304                     l6391:
  2063                           
  2064                           ; BSR set to: 5
  2065                           ;C:\Program Files\Microchip\xc8\v2.40\pic\sources\c99\common\doprnt.c: 1098:            
      +                               prec = atoi(*fmt);
  2066   003304  C555  F4D9         	movff	vfpfcnvrt@fmt,fsr2l
  2067   003308  C556  F4DA         	movff	vfpfcnvrt@fmt+1,fsr2h
  2068   00330C  C4DE F509          	movff	postinc2,atoi@s
  2069   003310  C4DD F50A          	movff	postdec2,atoi@s+1
  2070   003314  EC8C  F027         	call	_atoi	;wreg free
  2071   003318  C509  F5CF         	movff	?_atoi,_prec
  2072   00331C  C50A  F5D0         	movff	?_atoi+1,_prec+1
  2073                           
  2074                           ;C:\Program Files\Microchip\xc8\v2.40\pic\sources\c99\common\doprnt.c: 1099:            
      +                               while ((0 && isdigit((*fmt)[0]), ((unsigned)((*fmt)[0])-'0') < 10)) {
  2075   003320  EF99  F019         	goto	l6397
  2076   003324                     l6393:
  2077                           
  2078                           ;C:\Program Files\Microchip\xc8\v2.40\pic\sources\c99\common\doprnt.c: 1100:            
      +                                   ++*fmt;
  2079   003324  C555  F4D9         	movff	vfpfcnvrt@fmt,fsr2l
  2080   003328  C556  F4DA         	movff	vfpfcnvrt@fmt+1,fsr2h
  2081   00332C  2ADE               	incf	postinc2,f,c
  2082   00332E  0E00               	movlw	0
  2083   003330  22DD               	addwfc	postdec2,f,c
  2084   003332                     l6397:
  2085   003332  C555  F4D9         	movff	vfpfcnvrt@fmt,fsr2l
  2086   003336  C556  F4DA         	movff	vfpfcnvrt@fmt+1,fsr2h
  2087   00333A  C4DE F4F6          	movff	postinc2,tblptrl
  2088   00333E  C4DD F4F7          	movff	postdec2,tblptrh
  2089   003342                     	if	0	;tblptru may be non-zero
  2090   003342                     	endif
  2091   003342                     	if	1	;Program memory is > 0xFFFF, there are 3 active tblptr bytes
  2092   003342  0E00               	movlw	low (__mediumconst shr (0+16))
  2093   003344  6EF8               	movwf	tblptru,c
  2094   003346                     	endif
  2095   003346  0008               	tblrd		*
  2096   003348  C4F5 F559          	movff	tablat,??_vfpfcnvrt
  2097   00334C  0ED0               	movlw	208
  2098   00334E  2459               	addwf	??_vfpfcnvrt^(0+1280),w,c
  2099   003350  6E5A               	movwf	(??_vfpfcnvrt+1)^(0+1280),c
  2100   003352  6A5B               	clrf	(??_vfpfcnvrt+2)^(0+1280),c
  2101   003354  0EFF               	movlw	255
  2102   003356  225B               	addwfc	(??_vfpfcnvrt+2)^(0+1280),f,c
  2103   003358  505B               	movf	(??_vfpfcnvrt+2)^(0+1280),w,c
  2104   00335A  E109               	bnz	u7310
  2105   00335C  0E0A               	movlw	10
  2106   00335E  5C5A               	subwf	(??_vfpfcnvrt+1)^(0+1280),w,c
  2107   003360  A0D8               	btfss	status,0,c
  2108   003362  EFB5  F019         	goto	u7311
  2109   003366  EFB7  F019         	goto	u7310
  2110   00336A                     u7311:
  2111   00336A  EF92  F019         	goto	l6393
  2112   00336E                     u7310:
  2113   00336E                     l6399:
  2114                           
  2115                           ;C:\Program Files\Microchip\xc8\v2.40\pic\sources\c99\common\doprnt.c: 1117:   cp = *fmt
      +                          ;
  2116   00336E  C555  F4D9         	movff	vfpfcnvrt@fmt,fsr2l
  2117   003372  C556  F4DA         	movff	vfpfcnvrt@fmt+1,fsr2h
  2118   003376  C4DE F597          	movff	postinc2,vfpfcnvrt@cp
  2119   00337A  C4DD F598          	movff	postdec2,vfpfcnvrt@cp+1
  2120   00337E                     
  2121                           ;C:\Program Files\Microchip\xc8\v2.40\pic\sources\c99\common\doprnt.c: 1187:   if (*cp =
      +                          = 'd' || *cp == 'i') {
  2122   00337E  C597  F4F6         	movff	vfpfcnvrt@cp,tblptrl
  2123   003382  C598  F4F7         	movff	vfpfcnvrt@cp+1,tblptrh
  2124   003386                     	if	0	;tblptru may be non-zero
  2125   003386                     	endif
  2126   003386                     	if	1	;Program memory is > 0xFFFF, there are 3 active tblptr bytes
  2127   003386  0E00               	movlw	low (__mediumconst shr (0+16))
  2128   003388  6EF8               	movwf	tblptru,c
  2129   00338A                     	endif
  2130   00338A  0008               	tblrd		*
  2131   00338C  50F5               	movf	tablat,w,c
  2132   00338E  0A64               	xorlw	100
  2133   003390  B4D8               	btfsc	status,2,c
  2134   003392  EFCD  F019         	goto	u7321
  2135   003396  EFCF  F019         	goto	u7320
  2136   00339A                     u7321:
  2137   00339A  EFDF  F019         	goto	l6405
  2138   00339E                     u7320:
  2139   00339E  C597  F4F6         	movff	vfpfcnvrt@cp,tblptrl
  2140   0033A2  C598  F4F7         	movff	vfpfcnvrt@cp+1,tblptrh
  2141   0033A6                     	if	0	;tblptru may be non-zero
  2142   0033A6                     	endif
  2143   0033A6                     	if	1	;Program memory is > 0xFFFF, there are 3 active tblptr bytes
  2144   0033A6  0E00               	movlw	low (__mediumconst shr (0+16))
  2145   0033A8  6EF8               	movwf	tblptru,c
  2146   0033AA                     	endif
  2147   0033AA  0008               	tblrd		*
  2148   0033AC  50F5               	movf	tablat,w,c
  2149   0033AE  0A69               	xorlw	105
  2150   0033B0  A4D8               	btfss	status,2,c
  2151   0033B2  EFDD  F019         	goto	u7331
  2152   0033B6  EFDF  F019         	goto	u7330
  2153   0033BA                     u7331:
  2154   0033BA  EF23  F01A         	goto	l6411
  2155   0033BE                     u7330:
  2156   0033BE                     l6405:
  2157                           
  2158                           ;C:\Program Files\Microchip\xc8\v2.40\pic\sources\c99\common\doprnt.c: 1230:    convarg.
      +                          ll = (long long)(int)(*(int *)__va_arg(*(int **)ap, (int)0));
  2159   0033BE  C557  F4D9         	movff	vfpfcnvrt@ap,fsr2l
  2160   0033C2  C558  F4DA         	movff	vfpfcnvrt@ap+1,fsr2h
  2161   0033C6  C4DF F559          	movff	indf2,??_vfpfcnvrt
  2162   0033CA  0E02               	movlw	2
  2163   0033CC  26DE               	addwf	postinc2,f,c
  2164   0033CE  C4DF F55A          	movff	indf2,??_vfpfcnvrt+1
  2165   0033D2  0E00               	movlw	0
  2166   0033D4  22DD               	addwfc	postdec2,f,c
  2167   0033D6  C559  F4D9         	movff	??_vfpfcnvrt,fsr2l
  2168   0033DA  C55A  F4DA         	movff	??_vfpfcnvrt+1,fsr2h
  2169   0033DE  C4DE F58E          	movff	postinc2,vfpfcnvrt@convarg
  2170   0033E2  C4DD F58F          	movff	postdec2,vfpfcnvrt@convarg+1
  2171   0033E6  0105               	movlb	5	; () banked
  2172   0033E8  0E00               	movlw	0
  2173   0033EA  BF8F               	btfsc	(vfpfcnvrt@convarg+1)& (0+255),7,b
  2174   0033EC  0EFF               	movlw	-1
  2175   0033EE  6F90               	movwf	(vfpfcnvrt@convarg+2)& (0+255),b
  2176   0033F0  6F91               	movwf	(vfpfcnvrt@convarg+3)& (0+255),b
  2177   0033F2  6F92               	movwf	(vfpfcnvrt@convarg+4)& (0+255),b
  2178   0033F4  6F93               	movwf	(vfpfcnvrt@convarg+5)& (0+255),b
  2179   0033F6  6F94               	movwf	(vfpfcnvrt@convarg+6)& (0+255),b
  2180   0033F8  6F95               	movwf	(vfpfcnvrt@convarg+7)& (0+255),b
  2181                           
  2182                           ;C:\Program Files\Microchip\xc8\v2.40\pic\sources\c99\common\doprnt.c: 1232:    *fmt = c
      +                          p+1;
  2183   0033FA  0E01               	movlw	1
  2184   0033FC  2597               	addwf	vfpfcnvrt@cp& (0+255),w,b
  2185   0033FE  6E59               	movwf	??_vfpfcnvrt^(0+1280),c
  2186   003400  0E00               	movlw	0
  2187   003402  2198               	addwfc	(vfpfcnvrt@cp+1)& (0+255),w,b
  2188   003404  6E5A               	movwf	(??_vfpfcnvrt+1)^(0+1280),c
  2189   003406  C555  F4D9         	movff	vfpfcnvrt@fmt,fsr2l
  2190   00340A  C556  F4DA         	movff	vfpfcnvrt@fmt+1,fsr2h
  2191   00340E  C559  F4DE         	movff	??_vfpfcnvrt,postinc2
  2192   003412  C55A  F4DD         	movff	??_vfpfcnvrt+1,postdec2
  2193   003416                     
  2194                           ; BSR set to: 5
  2195                           ;C:\Program Files\Microchip\xc8\v2.40\pic\sources\c99\common\doprnt.c: 1233:    return (
      +                          void) dtoa(fp, convarg.ll);;	Return value of _vfpfcnvrt is never used
  2196   003416  C553  F520         	movff	vfpfcnvrt@fp,dtoa@fp
  2197   00341A  C554  F521         	movff	vfpfcnvrt@fp+1,dtoa@fp+1
  2198   00341E  C58E  F522         	movff	vfpfcnvrt@convarg,dtoa@d
  2199   003422  C58F  F523         	movff	vfpfcnvrt@convarg+1,dtoa@d+1
  2200   003426  C590  F524         	movff	vfpfcnvrt@convarg+2,dtoa@d+2
  2201   00342A  C591  F525         	movff	vfpfcnvrt@convarg+3,dtoa@d+3
  2202   00342E  C592  F526         	movff	vfpfcnvrt@convarg+4,dtoa@d+4
  2203   003432  C593  F527         	movff	vfpfcnvrt@convarg+5,dtoa@d+5
  2204   003436  C594  F528         	movff	vfpfcnvrt@convarg+6,dtoa@d+6
  2205   00343A  C595  F529         	movff	vfpfcnvrt@convarg+7,dtoa@d+7
  2206   00343E  ECD8  F022         	call	_dtoa	;wreg free
  2207   003442  EF17  F01B         	goto	l1492
  2208   003446                     l6411:
  2209                           
  2210                           ;C:\Program Files\Microchip\xc8\v2.40\pic\sources\c99\common\doprnt.c: 1392:   cp = *fmt
      +                          ;
  2211   003446  C555  F4D9         	movff	vfpfcnvrt@fmt,fsr2l
  2212   00344A  C556  F4DA         	movff	vfpfcnvrt@fmt+1,fsr2h
  2213   00344E  C4DE F597          	movff	postinc2,vfpfcnvrt@cp
  2214   003452  C4DD F598          	movff	postdec2,vfpfcnvrt@cp+1
  2215   003456                     
  2216                           ;C:\Program Files\Microchip\xc8\v2.40\pic\sources\c99\common\doprnt.c: 1393:   c = *cp;
  2217   003456  C597  F4F6         	movff	vfpfcnvrt@cp,tblptrl
  2218   00345A  C598  F4F7         	movff	vfpfcnvrt@cp+1,tblptrh
  2219   00345E                     	if	0	;tblptru may be non-zero
  2220   00345E                     	endif
  2221   00345E                     	if	1	;Program memory is > 0xFFFF, there are 3 active tblptr bytes
  2222   00345E  0E00               	movlw	low (__mediumconst shr (0+16))
  2223   003460  6EF8               	movwf	tblptru,c
  2224   003462                     	endif
  2225   003462  0008               	tblrd		*
  2226   003464  C4F5 F596          	movff	tablat,vfpfcnvrt@c
  2227                           
  2228                           ;C:\Program Files\Microchip\xc8\v2.40\pic\sources\c99\common\doprnt.c: 1394:   switch(c)
      +                           {
  2229   003468  EF42  F01A         	goto	l6423
  2230   00346C                     l6415:
  2231                           
  2232                           ; BSR set to: 5
  2233                           ;C:\Program Files\Microchip\xc8\v2.40\pic\sources\c99\common\doprnt.c: 1398:     cp++;
  2234   00346C  4B97               	infsnz	vfpfcnvrt@cp& (0+255),f,b
  2235   00346E  2B98               	incf	(vfpfcnvrt@cp+1)& (0+255),f,b
  2236                           
  2237                           ;C:\Program Files\Microchip\xc8\v2.40\pic\sources\c99\common\doprnt.c: 1399:     break;
  2238   003470  EF5C  F01A         	goto	l6425
  2239   003474                     l6417:
  2240                           
  2241                           ; BSR set to: 5
  2242                           ;C:\Program Files\Microchip\xc8\v2.40\pic\sources\c99\common\doprnt.c: 1424:     c = 'l'
      +                          ;
  2243   003474  0E6C               	movlw	108
  2244   003476  6F96               	movwf	vfpfcnvrt@c& (0+255),b
  2245                           
  2246                           ;C:\Program Files\Microchip\xc8\v2.40\pic\sources\c99\common\doprnt.c: 1425:     break;
  2247   003478  EF5C  F01A         	goto	l6425
  2248   00347C                     l6419:
  2249                           
  2250                           ; BSR set to: 5
  2251                           ;C:\Program Files\Microchip\xc8\v2.40\pic\sources\c99\common\doprnt.c: 1427:     c = 0;
  2252   00347C  0E00               	movlw	0
  2253   00347E  6F96               	movwf	vfpfcnvrt@c& (0+255),b
  2254                           
  2255                           ;C:\Program Files\Microchip\xc8\v2.40\pic\sources\c99\common\doprnt.c: 1428:     break;
  2256   003480  EF5C  F01A         	goto	l6425
  2257   003484                     l6423:
  2258   003484  0105               	movlb	5	; () banked
  2259   003486  5196               	movf	vfpfcnvrt@c& (0+255),w,b
  2260   003488  6E59               	movwf	??_vfpfcnvrt^(0+1280),c
  2261   00348A  6A5A               	clrf	(??_vfpfcnvrt+1)^(0+1280),c
  2262                           
  2263                           ; Switch on 2 bytes has been partitioned into a top level switch of size 1, and 1 sub-sw
      +                          itches
  2264                           ; Switch size 1, requested type "simple"
  2265                           ; Number of cases is 1, Range of values is 0 to 0
  2266                           ; switch strategies available:
  2267                           ; Name         Instructions Cycles
  2268                           ; simple_byte            4     3 (average)
  2269                           ;	Chosen strategy is simple_byte
  2270   00348C  505A               	movf	(??_vfpfcnvrt+1)^(0+1280),w,c
  2271   00348E  0A00               	xorlw	0	; case 0
  2272   003490  B4D8               	btfsc	status,2,c
  2273   003492  EF4D  F01A         	goto	l6783
  2274   003496  EF3E  F01A         	goto	l6419
  2275   00349A                     l6783:
  2276                           
  2277                           ; BSR set to: 5
  2278                           ; Switch size 1, requested type "simple"
  2279                           ; Number of cases is 3, Range of values is 76 to 108
  2280                           ; switch strategies available:
  2281                           ; Name         Instructions Cycles
  2282                           ; simple_byte           10     6 (average)
  2283                           ;	Chosen strategy is simple_byte
  2284   00349A  5059               	movf	??_vfpfcnvrt^(0+1280),w,c
  2285   00349C  0A4C               	xorlw	76	; case 76
  2286   00349E  B4D8               	btfsc	status,2,c
  2287   0034A0  EF36  F01A         	goto	l6415
  2288   0034A4  0A2A               	xorlw	42	; case 102
  2289   0034A6  B4D8               	btfsc	status,2,c
  2290   0034A8  EF3A  F01A         	goto	l6417
  2291   0034AC  0A0A               	xorlw	10	; case 108
  2292   0034AE  B4D8               	btfsc	status,2,c
  2293   0034B0  EF36  F01A         	goto	l6415
  2294   0034B4  EF3E  F01A         	goto	l6419
  2295   0034B8                     l6425:
  2296                           
  2297                           ; BSR set to: 5
  2298   0034B8  C597  F4F6         	movff	vfpfcnvrt@cp,tblptrl
  2299   0034BC  C598  F4F7         	movff	vfpfcnvrt@cp+1,tblptrh
  2300   0034C0                     	if	0	;tblptru may be non-zero
  2301   0034C0                     	endif
  2302   0034C0                     	if	1	;Program memory is > 0xFFFF, there are 3 active tblptr bytes
  2303   0034C0  0E00               	movlw	low (__mediumconst shr (0+16))
  2304   0034C2  6EF8               	movwf	tblptru,c
  2305   0034C4                     	endif
  2306   0034C4  0008               	tblrd		*
  2307   0034C6  50F5               	movf	tablat,w,c
  2308   0034C8  0A66               	xorlw	102
  2309   0034CA  A4D8               	btfss	status,2,c
  2310   0034CC  EF6A  F01A         	goto	u7341
  2311   0034D0  EF6C  F01A         	goto	u7340
  2312   0034D4                     u7341:
  2313   0034D4  EFF8  F01A         	goto	l6445
  2314   0034D8                     u7340:
  2315   0034D8  EFA2  F01A         	goto	l6433
  2316   0034DC                     l6427:
  2317                           
  2318                           ; BSR set to: 5
  2319                           ;C:\Program Files\Microchip\xc8\v2.40\pic\sources\c99\common\doprnt.c: 1459:      convar
      +                          g.f = (long double)(*(double *)__va_arg(*(double **)ap, (double)0));
  2320   0034DC  C557  F4D9         	movff	vfpfcnvrt@ap,fsr2l
  2321   0034E0  C558  F4DA         	movff	vfpfcnvrt@ap+1,fsr2h
  2322   0034E4  C4DF F559          	movff	indf2,??_vfpfcnvrt
  2323   0034E8  0E04               	movlw	4
  2324   0034EA  26DE               	addwf	postinc2,f,c
  2325   0034EC  C4DF F55A          	movff	indf2,??_vfpfcnvrt+1
  2326   0034F0  0E00               	movlw	0
  2327   0034F2  22DD               	addwfc	postdec2,f,c
  2328   0034F4  C559  F4D9         	movff	??_vfpfcnvrt,fsr2l
  2329   0034F8  C55A  F4DA         	movff	??_vfpfcnvrt+1,fsr2h
  2330   0034FC  C4DE F58E          	movff	postinc2,vfpfcnvrt@convarg
  2331   003500  C4DE F58F          	movff	postinc2,vfpfcnvrt@convarg+1
  2332   003504  C4DE F590          	movff	postinc2,vfpfcnvrt@convarg+2
  2333   003508  C4DE F591          	movff	postinc2,vfpfcnvrt@convarg+3
  2334                           
  2335                           ;C:\Program Files\Microchip\xc8\v2.40\pic\sources\c99\common\doprnt.c: 1460:      break;
  2336   00350C  EFB7  F01A         	goto	l6435
  2337   003510                     l6429:
  2338                           
  2339                           ; BSR set to: 5
  2340                           ;C:\Program Files\Microchip\xc8\v2.40\pic\sources\c99\common\doprnt.c: 1462:      convar
      +                          g.f = (long double)(*(long double *)__va_arg(*(long double **)ap, (long double)0));
  2341   003510  C557  F4D9         	movff	vfpfcnvrt@ap,fsr2l
  2342   003514  C558  F4DA         	movff	vfpfcnvrt@ap+1,fsr2h
  2343   003518  C4DF F559          	movff	indf2,??_vfpfcnvrt
  2344   00351C  0E04               	movlw	4
  2345   00351E  26DE               	addwf	postinc2,f,c
  2346   003520  C4DF F55A          	movff	indf2,??_vfpfcnvrt+1
  2347   003524  0E00               	movlw	0
  2348   003526  22DD               	addwfc	postdec2,f,c
  2349   003528  C559  F4D9         	movff	??_vfpfcnvrt,fsr2l
  2350   00352C  C55A  F4DA         	movff	??_vfpfcnvrt+1,fsr2h
  2351   003530  C4DE F58E          	movff	postinc2,vfpfcnvrt@convarg
  2352   003534  C4DE F58F          	movff	postinc2,vfpfcnvrt@convarg+1
  2353   003538  C4DE F590          	movff	postinc2,vfpfcnvrt@convarg+2
  2354   00353C  C4DE F591          	movff	postinc2,vfpfcnvrt@convarg+3
  2355                           
  2356                           ;C:\Program Files\Microchip\xc8\v2.40\pic\sources\c99\common\doprnt.c: 1463:      break;
  2357   003540  EFB7  F01A         	goto	l6435
  2358   003544                     l6433:
  2359                           
  2360                           ; BSR set to: 5
  2361   003544  5196               	movf	vfpfcnvrt@c& (0+255),w,b
  2362   003546  6E59               	movwf	??_vfpfcnvrt^(0+1280),c
  2363   003548  6A5A               	clrf	(??_vfpfcnvrt+1)^(0+1280),c
  2364                           
  2365                           ; Switch on 2 bytes has been partitioned into a top level switch of size 1, and 1 sub-sw
      +                          itches
  2366                           ; Switch size 1, requested type "simple"
  2367                           ; Number of cases is 1, Range of values is 0 to 0
  2368                           ; switch strategies available:
  2369                           ; Name         Instructions Cycles
  2370                           ; simple_byte            4     3 (average)
  2371                           ;	Chosen strategy is simple_byte
  2372   00354A  505A               	movf	(??_vfpfcnvrt+1)^(0+1280),w,c
  2373   00354C  0A00               	xorlw	0	; case 0
  2374   00354E  B4D8               	btfsc	status,2,c
  2375   003550  EFAC  F01A         	goto	l6785
  2376   003554  EFB7  F01A         	goto	l6435
  2377   003558                     l6785:
  2378                           
  2379                           ; BSR set to: 5
  2380                           ; Switch size 1, requested type "simple"
  2381                           ; Number of cases is 2, Range of values is 76 to 108
  2382                           ; switch strategies available:
  2383                           ; Name         Instructions Cycles
  2384                           ; simple_byte            7     4 (average)
  2385                           ;	Chosen strategy is simple_byte
  2386   003558  5059               	movf	??_vfpfcnvrt^(0+1280),w,c
  2387   00355A  0A4C               	xorlw	76	; case 76
  2388   00355C  B4D8               	btfsc	status,2,c
  2389   00355E  EF88  F01A         	goto	l6429
  2390   003562  0A20               	xorlw	32	; case 108
  2391   003564  B4D8               	btfsc	status,2,c
  2392   003566  EF6E  F01A         	goto	l6427
  2393   00356A  EFB7  F01A         	goto	l6435
  2394   00356E                     l6435:
  2395                           
  2396                           ; BSR set to: 5
  2397                           ;C:\Program Files\Microchip\xc8\v2.40\pic\sources\c99\common\doprnt.c: 1465:    *fmt = c
      +                          p+1;
  2398   00356E  0E01               	movlw	1
  2399   003570  2597               	addwf	vfpfcnvrt@cp& (0+255),w,b
  2400   003572  6E59               	movwf	??_vfpfcnvrt^(0+1280),c
  2401   003574  0E00               	movlw	0
  2402   003576  2198               	addwfc	(vfpfcnvrt@cp+1)& (0+255),w,b
  2403   003578  6E5A               	movwf	(??_vfpfcnvrt+1)^(0+1280),c
  2404   00357A  C555  F4D9         	movff	vfpfcnvrt@fmt,fsr2l
  2405   00357E  C556  F4DA         	movff	vfpfcnvrt@fmt+1,fsr2h
  2406   003582  C559  F4DE         	movff	??_vfpfcnvrt,postinc2
  2407   003586  C55A  F4DD         	movff	??_vfpfcnvrt+1,postdec2
  2408                           
  2409                           ;C:\Program Files\Microchip\xc8\v2.40\pic\sources\c99\common\doprnt.c: 1466:    switch (
      +                          *cp) {
  2410   00358A  EFE0  F01A         	goto	l6443
  2411   00358E                     l6437:
  2412                           
  2413                           ; BSR set to: 5
  2414                           ;C:\Program Files\Microchip\xc8\v2.40\pic\sources\c99\common\doprnt.c: 1493:      return
      +                           (void) efgtoa(fp, convarg.f, *cp);;	Return value of _vfpfcnvrt is never used
  2415   00358E  C553  F54A         	movff	vfpfcnvrt@fp,efgtoa@fp
  2416   003592  C554  F54B         	movff	vfpfcnvrt@fp+1,efgtoa@fp+1
  2417   003596  C58E  F54C         	movff	vfpfcnvrt@convarg,efgtoa@f
  2418   00359A  C58F  F54D         	movff	vfpfcnvrt@convarg+1,efgtoa@f+1
  2419   00359E  C590  F54E         	movff	vfpfcnvrt@convarg+2,efgtoa@f+2
  2420   0035A2  C591  F54F         	movff	vfpfcnvrt@convarg+3,efgtoa@f+3
  2421   0035A6  C597  F4F6         	movff	vfpfcnvrt@cp,tblptrl
  2422   0035AA  C598  F4F7         	movff	vfpfcnvrt@cp+1,tblptrh
  2423   0035AE                     	if	0	;tblptru may be non-zero
  2424   0035AE                     	endif
  2425   0035AE                     	if	1	;Program memory is > 0xFFFF, there are 3 active tblptr bytes
  2426   0035AE  0E00               	movlw	low (__mediumconst shr (0+16))
  2427   0035B0  6EF8               	movwf	tblptru,c
  2428   0035B2                     	endif
  2429   0035B2  0008               	tblrd		*
  2430   0035B4  C4F5 F550          	movff	tablat,efgtoa@c
  2431   0035B8  EC1B  F013         	call	_efgtoa	;wreg free
  2432   0035BC  EF17  F01B         	goto	l1492
  2433   0035C0                     l6443:
  2434                           
  2435                           ; BSR set to: 5
  2436   0035C0  C597  F4F6         	movff	vfpfcnvrt@cp,tblptrl
  2437   0035C4  C598  F4F7         	movff	vfpfcnvrt@cp+1,tblptrh
  2438   0035C8                     	if	0	;tblptru may be non-zero
  2439   0035C8                     	endif
  2440   0035C8                     	if	1	;Program memory is > 0xFFFF, there are 3 active tblptr bytes
  2441   0035C8  0E00               	movlw	low (__mediumconst shr (0+16))
  2442   0035CA  6EF8               	movwf	tblptru,c
  2443   0035CC                     	endif
  2444   0035CC  0008               	tblrd		*
  2445   0035CE  50F5               	movf	tablat,w,c
  2446   0035D0  6E59               	movwf	??_vfpfcnvrt^(0+1280),c
  2447   0035D2  6A5A               	clrf	(??_vfpfcnvrt+1)^(0+1280),c
  2448                           
  2449                           ; Switch on 2 bytes has been partitioned into a top level switch of size 1, and 1 sub-sw
      +                          itches
  2450                           ; Switch size 1, requested type "simple"
  2451                           ; Number of cases is 1, Range of values is 0 to 0
  2452                           ; switch strategies available:
  2453                           ; Name         Instructions Cycles
  2454                           ; simple_byte            4     3 (average)
  2455                           ;	Chosen strategy is simple_byte
  2456   0035D4  505A               	movf	(??_vfpfcnvrt+1)^(0+1280),w,c
  2457   0035D6  0A00               	xorlw	0	; case 0
  2458   0035D8  B4D8               	btfsc	status,2,c
  2459   0035DA  EFF1  F01A         	goto	l6787
  2460   0035DE  EFF8  F01A         	goto	l6445
  2461   0035E2                     l6787:
  2462                           
  2463                           ; BSR set to: 5
  2464                           ; Switch size 1, requested type "simple"
  2465                           ; Number of cases is 1, Range of values is 102 to 102
  2466                           ; switch strategies available:
  2467                           ; Name         Instructions Cycles
  2468                           ; simple_byte            4     3 (average)
  2469                           ;	Chosen strategy is simple_byte
  2470   0035E2  5059               	movf	??_vfpfcnvrt^(0+1280),w,c
  2471   0035E4  0A66               	xorlw	102	; case 102
  2472   0035E6  B4D8               	btfsc	status,2,c
  2473   0035E8  EFC7  F01A         	goto	l6437
  2474   0035EC  EFF8  F01A         	goto	l6445
  2475   0035F0                     l6445:
  2476                           
  2477                           ;C:\Program Files\Microchip\xc8\v2.40\pic\sources\c99\common\doprnt.c: 1509:         ++*
      +                          fmt;
  2478   0035F0  C555  F4D9         	movff	vfpfcnvrt@fmt,fsr2l
  2479   0035F4  C556  F4DA         	movff	vfpfcnvrt@fmt+1,fsr2h
  2480   0035F8  2ADE               	incf	postinc2,f,c
  2481   0035FA  0E00               	movlw	0
  2482   0035FC  22DD               	addwfc	postdec2,f,c
  2483   0035FE  EF17  F01B         	goto	l1492
  2484   003602                     l6449:
  2485                           
  2486                           ;C:\Program Files\Microchip\xc8\v2.40\pic\sources\c99\common\doprnt.c: 1514:     fputc((
      +                          int)(*fmt)[0], fp);
  2487   003602  C555  F4D9         	movff	vfpfcnvrt@fmt,fsr2l
  2488   003606  C556  F4DA         	movff	vfpfcnvrt@fmt+1,fsr2h
  2489   00360A  C4DE F4F6          	movff	postinc2,tblptrl
  2490   00360E  C4DD F4F7          	movff	postdec2,tblptrh
  2491   003612                     	if	0	;tblptru may be non-zero
  2492   003612                     	endif
  2493   003612                     	if	1	;Program memory is > 0xFFFF, there are 3 active tblptr bytes
  2494   003612  0E00               	movlw	low (__mediumconst shr (0+16))
  2495   003614  6EF8               	movwf	tblptru,c
  2496   003616                     	endif
  2497   003616  0008               	tblrd		*
  2498   003618  50F5               	movf	tablat,w,c
  2499   00361A  6E05               	movwf	fputc@c^(0+1280),c
  2500   00361C  6A06               	clrf	(fputc@c+1)^(0+1280),c
  2501   00361E  C553  F507         	movff	vfpfcnvrt@fp,fputc@fp
  2502   003622  C554  F508         	movff	vfpfcnvrt@fp+1,fputc@fp+1
  2503   003626  EC48  F02B         	call	_fputc	;wreg free
  2504   00362A  EFF8  F01A         	goto	l6445
  2505   00362E                     l1492:
  2506   00362E  0012               	return		;funcret
  2507   003630                     __end_of_vfpfcnvrt:
  2508                           	callstack 0
  2509                           
  2510 ;; *************** function _efgtoa *****************
  2511 ;; Defined at:
  2512 ;;		line 506 in file "C:\Program Files\Microchip\xc8\v2.40\pic\sources\c99\common\doprnt.c"
  2513 ;; Parameters:    Size  Location     Type
  2514 ;;  fp              2   73[COMRAM] PTR struct _IO_FILE
  2515 ;;		 -> NULL(0), 
  2516 ;;  f               4   75[COMRAM] PTR struct _IO_FILE
  2517 ;;  c               1   79[COMRAM] unsigned char 
  2518 ;; Auto vars:     Size  Location     Type
  2519 ;;  u               4   40[BANK5 ] struct flui
  2520 ;;  g               4   34[BANK5 ] struct flui
  2521 ;;  l               4   27[BANK5 ] struct flui
  2522 ;;  h               4   23[BANK5 ] struct flui
  2523 ;;  ou              4   17[BANK5 ] struct flui
  2524 ;;  n               2   38[BANK5 ] int 
  2525 ;;  i               2   31[BANK5 ] int 
  2526 ;;  w               2   21[BANK5 ] int 
  2527 ;;  e               2   15[BANK5 ] int 
  2528 ;;  m               2   13[BANK5 ] int 
  2529 ;;  d               2   11[BANK5 ] int 
  2530 ;;  t               2    4[BANK5 ] int 
  2531 ;;  p               2    2[BANK5 ] int 
  2532 ;;  ne              2    0[BANK5 ] int 
  2533 ;;  sign            1   33[BANK5 ] unsigned char 
  2534 ;;  nmode           1   10[BANK5 ] unsigned char 
  2535 ;;  mode            1    9[BANK5 ] unsigned char 
  2536 ;;  pp              1    8[BANK5 ] unsigned char 
  2537 ;;  esign           1    0        unsigned char 
  2538 ;; Return value:  Size  Location     Type
  2539 ;;                  1    wreg      void 
  2540 ;; Registers used:
  2541 ;;		wreg, fsr1l, fsr1h, fsr2l, fsr2h, status,2, status,0, tblptrl, tblptrh, tblptru, prodl, prodh, cstack
  2542 ;; Tracked objects:
  2543 ;;		On entry : 0/0
  2544 ;;		On exit  : 0/0
  2545 ;;		Unchanged: 0/0
  2546 ;; Data sizes:     COMRAM   BANK5   BANK6   BANK7   BANK8   BANK9  BANK10  BANK11  BANK12  BANK13  BANK14  BANK15  BANK1
      +6  BANK17  BANK18  BANK19  BANK20  BANK21  BANK22  BANK23  BANK24  BANK25  BANK26  BANK27  BANK28  BANK29  BANK30  BANK3
      +1  BANK32  BANK33  BANK34  BANK35  BANK36
  2547 ;;      Params:         7       0       0       0       0       0       0       0       0       0       0       0       
      +0       0       0       0       0       0       0       0       0       0       0       0       0       0       0       
      +0       0       0       0       0       0
  2548 ;;      Locals:         0      44       0       0       0       0       0       0       0       0       0       0       
      +0       0       0       0       0       0       0       0       0       0       0       0       0       0       0       
      +0       0       0       0       0       0
  2549 ;;      Temps:          2       0       0       0       0       0       0       0       0       0       0       0       
      +0       0       0       0       0       0       0       0       0       0       0       0       0       0       0       
      +0       0       0       0       0       0
  2550 ;;      Totals:         9      44       0       0       0       0       0       0       0       0       0       0       
      +0       0       0       0       0       0       0       0       0       0       0       0       0       0       0       
      +0       0       0       0       0       0
  2551 ;;Total ram usage:       53 bytes
  2552 ;; Hardware stack levels used: 1
  2553 ;; Hardware stack levels required when called: 9
  2554 ;; This function calls:
  2555 ;;		___fladd
  2556 ;;		___fldiv
  2557 ;;		___fleq
  2558 ;;		___flge
  2559 ;;		___flmul
  2560 ;;		___flneg
  2561 ;;		___flsub
  2562 ;;		___fltol
  2563 ;;		___fpclassifyf
  2564 ;;		_floorf
  2565 ;;		_labs
  2566 ;;		_memcpy
  2567 ;;		_pad
  2568 ;;		_strcpy
  2569 ;; This function is called by:
  2570 ;;		_vfpfcnvrt
  2571 ;; This function uses a non-reentrant model
  2572 ;;
  2573                           
  2574                           	psect	text4
  2575   002636                     __ptext4:
  2576                           	callstack 0
  2577   002636                     _efgtoa:
  2578                           	callstack 114
  2579   002636                     
  2580                           ;C:\Program Files\Microchip\xc8\v2.40\pic\sources\c99\common\doprnt.c: 506: static void 
      +                          efgtoa(FILE *fp, long double f, char c);C:\Program Files\Microchip\xc8\v2.40\pic\sources
      +                          \c99\common\doprnt.c: 507: {;C:\Program Files\Microchip\xc8\v2.40\pic\sources\c99\common
      +                          \doprnt.c: 508:     char mode, nmode, pp, sign, esign;;C:\Program Files\Microchip\xc8\v2
      +                          .40\pic\sources\c99\common\doprnt.c: 509:     int d, e, i, m, n, ne, p, t, w;;C:\Program
      +                           Files\Microchip\xc8\v2.40\pic\sources\c99\common\doprnt.c: 510:     long double h, l;
  2581   002636  0E00               	movlw	0
  2582   002638  0105               	movlb	5	; () banked
  2583   00263A  6F81               	movwf	efgtoa@sign& (0+255),b
  2584   00263C                     
  2585                           ; BSR set to: 5
  2586                           ;C:\Program Files\Microchip\xc8\v2.40\pic\sources\c99\common\doprnt.c: 515:     g.f = f;
  2587   00263C  C54C  F582         	movff	efgtoa@f,efgtoa@g
  2588   002640  C54D  F583         	movff	efgtoa@f+1,efgtoa@g+1
  2589   002644  C54E  F584         	movff	efgtoa@f+2,efgtoa@g+2
  2590   002648  C54F  F585         	movff	efgtoa@f+3,efgtoa@g+3
  2591   00264C                     
  2592                           ; BSR set to: 5
  2593                           ;C:\Program Files\Microchip\xc8\v2.40\pic\sources\c99\common\doprnt.c: 516:     if (g.f 
      +                          < 0.0) {
  2594   00264C  BF85               	btfsc	(efgtoa@g+3)& (0+255),7,b
  2595   00264E  EF2D  F013         	goto	u6850
  2596   002652  EF2B  F013         	goto	u6851
  2597   002656                     u6851:
  2598   002656  EF41  F013         	goto	l6087
  2599   00265A                     u6850:
  2600   00265A                     
  2601                           ; BSR set to: 5
  2602                           ;C:\Program Files\Microchip\xc8\v2.40\pic\sources\c99\common\doprnt.c: 517:         sign
      +                           = 1;
  2603   00265A  0E01               	movlw	1
  2604   00265C  6F81               	movwf	efgtoa@sign& (0+255),b
  2605   00265E                     
  2606                           ; BSR set to: 5
  2607                           ;C:\Program Files\Microchip\xc8\v2.40\pic\sources\c99\common\doprnt.c: 518:         g.f 
      +                          = -g.f;
  2608   00265E  C582  F503         	movff	efgtoa@g,___flneg@f1
  2609   002662  C583  F504         	movff	efgtoa@g+1,___flneg@f1+1
  2610   002666  C584  F505         	movff	efgtoa@g+2,___flneg@f1+2
  2611   00266A  C585  F506         	movff	efgtoa@g+3,___flneg@f1+3
  2612   00266E  ECC9  F02D         	call	___flneg	;wreg free
  2613   002672  C503  F582         	movff	?___flneg,efgtoa@g
  2614   002676  C504  F583         	movff	?___flneg+1,efgtoa@g+1
  2615   00267A  C505  F584         	movff	?___flneg+2,efgtoa@g+2
  2616   00267E  C506  F585         	movff	?___flneg+3,efgtoa@g+3
  2617   002682                     l6087:
  2618                           
  2619                           ;C:\Program Files\Microchip\xc8\v2.40\pic\sources\c99\common\doprnt.c: 522:     n = 0;
  2620   002682  0E00               	movlw	0
  2621   002684  0105               	movlb	5	; () banked
  2622   002686  6F87               	movwf	(efgtoa@n+1)& (0+255),b
  2623   002688  0E00               	movlw	0
  2624   00268A  6F86               	movwf	efgtoa@n& (0+255),b
  2625   00268C                     
  2626                           ; BSR set to: 5
  2627                           ;C:\Program Files\Microchip\xc8\v2.40\pic\sources\c99\common\doprnt.c: 523:     w = widt
      +                          h;
  2628   00268C  C5CD  F575         	movff	_width,efgtoa@w
  2629   002690  C5CE  F576         	movff	_width+1,efgtoa@w+1
  2630   002694                     
  2631                           ; BSR set to: 5
  2632                           ;C:\Program Files\Microchip\xc8\v2.40\pic\sources\c99\common\doprnt.c: 524:     if (sign
  2633   002694  5181               	movf	efgtoa@sign& (0+255),w,b
  2634   002696  B4D8               	btfsc	status,2,c
  2635   002698  EF50  F013         	goto	u6861
  2636   00269C  EF52  F013         	goto	u6860
  2637   0026A0                     u6861:
  2638   0026A0  EF66  F013         	goto	l6101
  2639   0026A4                     u6860:
  2640   0026A4                     
  2641                           ; BSR set to: 5
  2642                           ;C:\Program Files\Microchip\xc8\v2.40\pic\sources\c99\common\doprnt.c: 528:    ) {;C:\Pr
      +                          ogram Files\Microchip\xc8\v2.40\pic\sources\c99\common\doprnt.c: 529:   sign = sign ? '-
      +                          ' : '+';
  2643   0026A4  5181               	movf	efgtoa@sign& (0+255),w,b
  2644   0026A6  A4D8               	btfss	status,2,c
  2645   0026A8  EF58  F013         	goto	u6871
  2646   0026AC  EF5A  F013         	goto	u6870
  2647   0026B0                     u6871:
  2648   0026B0  EF60  F013         	goto	l6097
  2649   0026B4                     u6870:
  2650   0026B4                     
  2651                           ; BSR set to: 5
  2652   0026B4  0E00               	movlw	0
  2653   0026B6  6F67               	movwf	(_efgtoa$1834+1)& (0+255),b
  2654   0026B8  0E2B               	movlw	43
  2655   0026BA  6F66               	movwf	_efgtoa$1834& (0+255),b
  2656   0026BC  EF64  F013         	goto	l6099
  2657   0026C0                     l6097:
  2658                           
  2659                           ; BSR set to: 5
  2660   0026C0  0E00               	movlw	0
  2661   0026C2  6F67               	movwf	(_efgtoa$1834+1)& (0+255),b
  2662   0026C4  0E2D               	movlw	45
  2663   0026C6  6F66               	movwf	_efgtoa$1834& (0+255),b
  2664   0026C8                     l6099:
  2665                           
  2666                           ; BSR set to: 5
  2667   0026C8  C566  F581         	movff	_efgtoa$1834,efgtoa@sign
  2668   0026CC                     l6101:
  2669                           
  2670                           ; BSR set to: 5
  2671                           ;C:\Program Files\Microchip\xc8\v2.40\pic\sources\c99\common\doprnt.c: 538:     if (( __
      +                          fpclassifyf(g.f) == 1 )) {
  2672   0026CC  C582  F503         	movff	efgtoa@g,___fpclassifyf@x
  2673   0026D0  C583  F504         	movff	efgtoa@g+1,___fpclassifyf@x+1
  2674   0026D4  C584  F505         	movff	efgtoa@g+2,___fpclassifyf@x+2
  2675   0026D8  C585  F506         	movff	efgtoa@g+3,___fpclassifyf@x+3
  2676   0026DC  ECC5  F029         	call	___fpclassifyf	;wreg free
  2677   0026E0  0403               	decf	?___fpclassifyf^(0+1280),w,c
  2678   0026E2  1004               	iorwf	(?___fpclassifyf+1)^(0+1280),w,c
  2679   0026E4  A4D8               	btfss	status,2,c
  2680   0026E6  EF77  F013         	goto	u6881
  2681   0026EA  EF79  F013         	goto	u6880
  2682   0026EE                     u6881:
  2683   0026EE  EFAC  F013         	goto	l6119
  2684   0026F2                     u6880:
  2685   0026F2                     
  2686                           ;C:\Program Files\Microchip\xc8\v2.40\pic\sources\c99\common\doprnt.c: 539:   if (sign) 
      +                          {
  2687   0026F2  0105               	movlb	5	; () banked
  2688   0026F4  5181               	movf	efgtoa@sign& (0+255),w,b
  2689   0026F6  B4D8               	btfsc	status,2,c
  2690   0026F8  EF80  F013         	goto	u6891
  2691   0026FC  EF82  F013         	goto	u6890
  2692   002700                     u6891:
  2693   002700  EF8B  F013         	goto	l6111
  2694   002704                     u6890:
  2695   002704                     
  2696                           ; BSR set to: 5
  2697                           ;C:\Program Files\Microchip\xc8\v2.40\pic\sources\c99\common\doprnt.c: 540:    dbuf[0] =
      +                           sign;
  2698   002704  C581  F600         	movff	efgtoa@sign,_dbuf
  2699   002708                     
  2700                           ; BSR set to: 5
  2701                           ;C:\Program Files\Microchip\xc8\v2.40\pic\sources\c99\common\doprnt.c: 541:    w--;
  2702   002708  0775               	decf	efgtoa@w& (0+255),f,b
  2703   00270A  A0D8               	btfss	status,0,c
  2704   00270C  0776               	decf	(efgtoa@w+1)& (0+255),f,b
  2705   00270E                     
  2706                           ; BSR set to: 5
  2707                           ;C:\Program Files\Microchip\xc8\v2.40\pic\sources\c99\common\doprnt.c: 542:    n = 1;
  2708   00270E  0E00               	movlw	0
  2709   002710  6F87               	movwf	(efgtoa@n+1)& (0+255),b
  2710   002712  0E01               	movlw	1
  2711   002714  6F86               	movwf	efgtoa@n& (0+255),b
  2712   002716                     l6111:
  2713                           
  2714                           ; BSR set to: 5
  2715                           ;C:\Program Files\Microchip\xc8\v2.40\pic\sources\c99\common\doprnt.c: 550:   {;C:\Progr
      +                          am Files\Microchip\xc8\v2.40\pic\sources\c99\common\doprnt.c: 551:             strcpy(&d
      +                          buf[n], "inf");
  2716   002716  0E00               	movlw	low _dbuf
  2717   002718  2586               	addwf	efgtoa@n& (0+255),w,b
  2718   00271A  6E03               	movwf	strcpy@dest^(0+1280),c
  2719   00271C  0E06               	movlw	high _dbuf
  2720   00271E  2187               	addwfc	(efgtoa@n+1)& (0+255),w,b
  2721   002720  6E04               	movwf	(strcpy@dest+1)^(0+1280),c
  2722   002722  0E2C               	movlw	low STR_2
  2723   002724  6E05               	movwf	strcpy@src^(0+1280),c
  2724   002726  0E26               	movlw	high STR_2
  2725   002728  6E06               	movwf	(strcpy@src+1)^(0+1280),c
  2726   00272A  EC65  F02D         	call	_strcpy	;wreg free
  2727   00272E                     
  2728                           ;C:\Program Files\Microchip\xc8\v2.40\pic\sources\c99\common\doprnt.c: 552:         };C:
      +                          \Program Files\Microchip\xc8\v2.40\pic\sources\c99\common\doprnt.c: 553:         w -= ((
      +                          sizeof("inf")/sizeof("inf"[0]))-1);
  2729   00272E  0105               	movlb	5	; () banked
  2730   002730  0EFD               	movlw	253
  2731   002732  2775               	addwf	efgtoa@w& (0+255),f,b
  2732   002734  0EFF               	movlw	255
  2733   002736  2376               	addwfc	(efgtoa@w+1)& (0+255),f,b
  2734   002738                     
  2735                           ; BSR set to: 5
  2736                           ;C:\Program Files\Microchip\xc8\v2.40\pic\sources\c99\common\doprnt.c: 554:         retu
      +                          rn (void) pad(fp, &dbuf[0], w);
  2737   002738  C54A  F515         	movff	efgtoa@fp,pad@fp
  2738   00273C  C54B  F516         	movff	efgtoa@fp+1,pad@fp+1
  2739   002740  0E00               	movlw	low _dbuf
  2740   002742  6E17               	movwf	pad@buf^(0+1280),c
  2741   002744  0E06               	movlw	high _dbuf
  2742   002746  6E18               	movwf	(pad@buf+1)^(0+1280),c
  2743   002748  C575  F519         	movff	efgtoa@w,pad@p
  2744   00274C  C576  F51A         	movff	efgtoa@w+1,pad@p+1
  2745   002750  ECF3  F02A         	call	_pad	;wreg free
  2746   002754  EF5F  F018         	goto	l1415
  2747   002758                     l6119:
  2748                           
  2749                           ;C:\Program Files\Microchip\xc8\v2.40\pic\sources\c99\common\doprnt.c: 556:     if (( __
      +                          fpclassifyf(g.f) == 0 )) {
  2750   002758  C582  F503         	movff	efgtoa@g,___fpclassifyf@x
  2751   00275C  C583  F504         	movff	efgtoa@g+1,___fpclassifyf@x+1
  2752   002760  C584  F505         	movff	efgtoa@g+2,___fpclassifyf@x+2
  2753   002764  C585  F506         	movff	efgtoa@g+3,___fpclassifyf@x+3
  2754   002768  ECC5  F029         	call	___fpclassifyf	;wreg free
  2755   00276C  5003               	movf	?___fpclassifyf^(0+1280),w,c
  2756   00276E  1004               	iorwf	(?___fpclassifyf+1)^(0+1280),w,c
  2757   002770  A4D8               	btfss	status,2,c
  2758   002772  EFBD  F013         	goto	u6901
  2759   002776  EFBF  F013         	goto	u6900
  2760   00277A                     u6901:
  2761   00277A  EFF2  F013         	goto	l6137
  2762   00277E                     u6900:
  2763   00277E                     
  2764                           ;C:\Program Files\Microchip\xc8\v2.40\pic\sources\c99\common\doprnt.c: 557:   if (sign) 
      +                          {
  2765   00277E  0105               	movlb	5	; () banked
  2766   002780  5181               	movf	efgtoa@sign& (0+255),w,b
  2767   002782  B4D8               	btfsc	status,2,c
  2768   002784  EFC6  F013         	goto	u6911
  2769   002788  EFC8  F013         	goto	u6910
  2770   00278C                     u6911:
  2771   00278C  EFD1  F013         	goto	l6129
  2772   002790                     u6910:
  2773   002790                     
  2774                           ; BSR set to: 5
  2775                           ;C:\Program Files\Microchip\xc8\v2.40\pic\sources\c99\common\doprnt.c: 558:    dbuf[0] =
      +                           sign;
  2776   002790  C581  F600         	movff	efgtoa@sign,_dbuf
  2777   002794                     
  2778                           ; BSR set to: 5
  2779                           ;C:\Program Files\Microchip\xc8\v2.40\pic\sources\c99\common\doprnt.c: 559:    w--;
  2780   002794  0775               	decf	efgtoa@w& (0+255),f,b
  2781   002796  A0D8               	btfss	status,0,c
  2782   002798  0776               	decf	(efgtoa@w+1)& (0+255),f,b
  2783   00279A                     
  2784                           ; BSR set to: 5
  2785                           ;C:\Program Files\Microchip\xc8\v2.40\pic\sources\c99\common\doprnt.c: 560:    n = 1;
  2786   00279A  0E00               	movlw	0
  2787   00279C  6F87               	movwf	(efgtoa@n+1)& (0+255),b
  2788   00279E  0E01               	movlw	1
  2789   0027A0  6F86               	movwf	efgtoa@n& (0+255),b
  2790   0027A2                     l6129:
  2791                           
  2792                           ; BSR set to: 5
  2793                           ;C:\Program Files\Microchip\xc8\v2.40\pic\sources\c99\common\doprnt.c: 568:   {;C:\Progr
      +                          am Files\Microchip\xc8\v2.40\pic\sources\c99\common\doprnt.c: 569:             strcpy(&d
      +                          buf[n], "nan");
  2794   0027A2  0E00               	movlw	low _dbuf
  2795   0027A4  2586               	addwf	efgtoa@n& (0+255),w,b
  2796   0027A6  6E03               	movwf	strcpy@dest^(0+1280),c
  2797   0027A8  0E06               	movlw	high _dbuf
  2798   0027AA  2187               	addwfc	(efgtoa@n+1)& (0+255),w,b
  2799   0027AC  6E04               	movwf	(strcpy@dest+1)^(0+1280),c
  2800   0027AE  0E30               	movlw	low STR_5
  2801   0027B0  6E05               	movwf	strcpy@src^(0+1280),c
  2802   0027B2  0E26               	movlw	high STR_5
  2803   0027B4  6E06               	movwf	(strcpy@src+1)^(0+1280),c
  2804   0027B6  EC65  F02D         	call	_strcpy	;wreg free
  2805   0027BA                     
  2806                           ;C:\Program Files\Microchip\xc8\v2.40\pic\sources\c99\common\doprnt.c: 570:         };C:
      +                          \Program Files\Microchip\xc8\v2.40\pic\sources\c99\common\doprnt.c: 571:         w -= ((
      +                          sizeof("nan")/sizeof("nan"[0]))-1);
  2807   0027BA  0105               	movlb	5	; () banked
  2808   0027BC  0EFD               	movlw	253
  2809   0027BE  2775               	addwf	efgtoa@w& (0+255),f,b
  2810   0027C0  0EFF               	movlw	255
  2811   0027C2  2376               	addwfc	(efgtoa@w+1)& (0+255),f,b
  2812   0027C4                     
  2813                           ; BSR set to: 5
  2814                           ;C:\Program Files\Microchip\xc8\v2.40\pic\sources\c99\common\doprnt.c: 572:         retu
      +                          rn (void) pad(fp, &dbuf[0], w);
  2815   0027C4  C54A  F515         	movff	efgtoa@fp,pad@fp
  2816   0027C8  C54B  F516         	movff	efgtoa@fp+1,pad@fp+1
  2817   0027CC  0E00               	movlw	low _dbuf
  2818   0027CE  6E17               	movwf	pad@buf^(0+1280),c
  2819   0027D0  0E06               	movlw	high _dbuf
  2820   0027D2  6E18               	movwf	(pad@buf+1)^(0+1280),c
  2821   0027D4  C575  F519         	movff	efgtoa@w,pad@p
  2822   0027D8  C576  F51A         	movff	efgtoa@w+1,pad@p+1
  2823   0027DC  ECF3  F02A         	call	_pad	;wreg free
  2824   0027E0  EF5F  F018         	goto	l1415
  2825   0027E4                     l6137:
  2826                           
  2827                           ;C:\Program Files\Microchip\xc8\v2.40\pic\sources\c99\common\doprnt.c: 576:     u.f = 1.
      +                          0;
  2828   0027E4  0E00               	movlw	0
  2829   0027E6  0105               	movlb	5	; () banked
  2830   0027E8  6F88               	movwf	efgtoa@u& (0+255),b
  2831   0027EA  0E00               	movlw	0
  2832   0027EC  6F89               	movwf	(efgtoa@u+1)& (0+255),b
  2833   0027EE  0E80               	movlw	128
  2834   0027F0  6F8A               	movwf	(efgtoa@u+2)& (0+255),b
  2835   0027F2  0E3F               	movlw	63
  2836   0027F4  6F8B               	movwf	(efgtoa@u+3)& (0+255),b
  2837                           
  2838                           ;C:\Program Files\Microchip\xc8\v2.40\pic\sources\c99\common\doprnt.c: 577:     e = 0;
  2839   0027F6  0E00               	movlw	0
  2840   0027F8  6F70               	movwf	(efgtoa@e+1)& (0+255),b
  2841   0027FA  0E00               	movlw	0
  2842   0027FC  6F6F               	movwf	efgtoa@e& (0+255),b
  2843   0027FE                     
  2844                           ; BSR set to: 5
  2845                           ;C:\Program Files\Microchip\xc8\v2.40\pic\sources\c99\common\doprnt.c: 578:  if (!(g.f =
      +                          = 0.0)) {
  2846   0027FE  C582  F503         	movff	efgtoa@g,___fleq@ff1
  2847   002802  C583  F504         	movff	efgtoa@g+1,___fleq@ff1+1
  2848   002806  C584  F505         	movff	efgtoa@g+2,___fleq@ff1+2
  2849   00280A  C585  F506         	movff	efgtoa@g+3,___fleq@ff1+3
  2850   00280E  0E00               	movlw	0
  2851   002810  6E07               	movwf	___fleq@ff2^(0+1280),c
  2852   002812  0E00               	movlw	0
  2853   002814  6E08               	movwf	(___fleq@ff2+1)^(0+1280),c
  2854   002816  0E00               	movlw	0
  2855   002818  6E09               	movwf	(___fleq@ff2+2)^(0+1280),c
  2856   00281A  0E00               	movlw	0
  2857   00281C  6E0A               	movwf	(___fleq@ff2+3)^(0+1280),c
  2858   00281E  EC9E  F02A         	call	___fleq	;wreg free
  2859   002822  B0D8               	btfsc	status,0,c
  2860   002824  EF16  F014         	goto	u6921
  2861   002828  EF18  F014         	goto	u6920
  2862   00282C                     u6921:
  2863   00282C  EFF7  F014         	goto	l1418
  2864   002830                     u6920:
  2865   002830  EF25  F014         	goto	l6145
  2866   002834                     l1420:
  2867                           
  2868                           ;C:\Program Files\Microchip\xc8\v2.40\pic\sources\c99\common\doprnt.c: 580:    u = ou;
  2869   002834  C571  F588         	movff	efgtoa@ou,efgtoa@u
  2870   002838  C572  F589         	movff	efgtoa@ou+1,efgtoa@u+1
  2871   00283C  C573  F58A         	movff	efgtoa@ou+2,efgtoa@u+2
  2872   002840  C574  F58B         	movff	efgtoa@ou+3,efgtoa@u+3
  2873   002844                     
  2874                           ;C:\Program Files\Microchip\xc8\v2.40\pic\sources\c99\common\doprnt.c: 581:    ++e;
  2875   002844  0105               	movlb	5	; () banked
  2876   002846  4B6F               	infsnz	efgtoa@e& (0+255),f,b
  2877   002848  2B70               	incf	(efgtoa@e+1)& (0+255),f,b
  2878   00284A                     l6145:
  2879                           
  2880                           ;C:\Program Files\Microchip\xc8\v2.40\pic\sources\c99\common\doprnt.c: 579:   while ((la
      +                          bs((g).u-((ou.f = u.f*10.0,ou)).u) <= 1) || g.f > ou.f) {
  2881   00284A  C588  F51D         	movff	efgtoa@u,___flmul@b
  2882   00284E  C589  F51E         	movff	efgtoa@u+1,___flmul@b+1
  2883   002852  C58A  F51F         	movff	efgtoa@u+2,___flmul@b+2
  2884   002856  C58B  F520         	movff	efgtoa@u+3,___flmul@b+3
  2885   00285A  0E00               	movlw	0
  2886   00285C  6E21               	movwf	___flmul@a^(0+1280),c
  2887   00285E  0E00               	movlw	0
  2888   002860  6E22               	movwf	(___flmul@a+1)^(0+1280),c
  2889   002862  0E20               	movlw	32
  2890   002864  6E23               	movwf	(___flmul@a+2)^(0+1280),c
  2891   002866  0E41               	movlw	65
  2892   002868  6E24               	movwf	(___flmul@a+3)^(0+1280),c
  2893   00286A  EC78  F01D         	call	___flmul	;wreg free
  2894   00286E  C51D  F571         	movff	?___flmul,efgtoa@ou
  2895   002872  C51E  F572         	movff	?___flmul+1,efgtoa@ou+1
  2896   002876  C51F  F573         	movff	?___flmul+2,efgtoa@ou+2
  2897   00287A  C520  F574         	movff	?___flmul+3,efgtoa@ou+3
  2898   00287E  0105               	movlb	5	; () banked
  2899   002880  5171               	movf	efgtoa@ou& (0+255),w,b
  2900   002882  5D82               	subwf	efgtoa@g& (0+255),w,b
  2901   002884  6E03               	movwf	labs@a^(0+1280),c
  2902   002886  5172               	movf	(efgtoa@ou+1)& (0+255),w,b
  2903   002888  5983               	subwfb	(efgtoa@g+1)& (0+255),w,b
  2904   00288A  6E04               	movwf	(labs@a+1)^(0+1280),c
  2905   00288C  5173               	movf	(efgtoa@ou+2)& (0+255),w,b
  2906   00288E  5984               	subwfb	(efgtoa@g+2)& (0+255),w,b
  2907   002890  6E05               	movwf	(labs@a+2)^(0+1280),c
  2908   002892  5174               	movf	(efgtoa@ou+3)& (0+255),w,b
  2909   002894  5985               	subwfb	(efgtoa@g+3)& (0+255),w,b
  2910   002896  6E06               	movwf	(labs@a+3)^(0+1280),c
  2911   002898  EC15  F02C         	call	_labs	;wreg free
  2912   00289C  BE06               	btfsc	(?_labs+3)^(0+1280),7,c
  2913   00289E  EF5C  F014         	goto	u6931
  2914   0028A2  5006               	movf	(?_labs+3)^(0+1280),w,c
  2915   0028A4  1005               	iorwf	(?_labs+2)^(0+1280),w,c
  2916   0028A6  1004               	iorwf	(?_labs+1)^(0+1280),w,c
  2917   0028A8  E109               	bnz	u6930
  2918   0028AA  0E02               	movlw	2
  2919   0028AC  5C03               	subwf	?_labs^(0+1280),w,c
  2920   0028AE  A0D8               	btfss	status,0,c
  2921   0028B0  EF5C  F014         	goto	u6931
  2922   0028B4  EF5E  F014         	goto	u6930
  2923   0028B8                     u6931:
  2924   0028B8  EF1A  F014         	goto	l1420
  2925   0028BC                     u6930:
  2926   0028BC  C571  F536         	movff	efgtoa@ou,___flge@ff1
  2927   0028C0  C572  F537         	movff	efgtoa@ou+1,___flge@ff1+1
  2928   0028C4  C573  F538         	movff	efgtoa@ou+2,___flge@ff1+2
  2929   0028C8  C574  F539         	movff	efgtoa@ou+3,___flge@ff1+3
  2930   0028CC  C582  F53A         	movff	efgtoa@g,___flge@ff2
  2931   0028D0  C583  F53B         	movff	efgtoa@g+1,___flge@ff2+1
  2932   0028D4  C584  F53C         	movff	efgtoa@g+2,___flge@ff2+2
  2933   0028D8  C585  F53D         	movff	efgtoa@g+3,___flge@ff2+3
  2934   0028DC  EC43  F029         	call	___flge	;wreg free
  2935   0028E0  A0D8               	btfss	status,0,c
  2936   0028E2  EF75  F014         	goto	u6941
  2937   0028E6  EF77  F014         	goto	u6940
  2938   0028EA                     u6941:
  2939   0028EA  EF1A  F014         	goto	l1420
  2940   0028EE                     u6940:
  2941   0028EE                     
  2942                           ;C:\Program Files\Microchip\xc8\v2.40\pic\sources\c99\common\doprnt.c: 583:   if ((labs(
      +                          (g).u-(u).u) <= 1)) {
  2943   0028EE  0105               	movlb	5	; () banked
  2944   0028F0  5188               	movf	efgtoa@u& (0+255),w,b
  2945   0028F2  5D82               	subwf	efgtoa@g& (0+255),w,b
  2946   0028F4  6E03               	movwf	labs@a^(0+1280),c
  2947   0028F6  5189               	movf	(efgtoa@u+1)& (0+255),w,b
  2948   0028F8  5983               	subwfb	(efgtoa@g+1)& (0+255),w,b
  2949   0028FA  6E04               	movwf	(labs@a+1)^(0+1280),c
  2950   0028FC  518A               	movf	(efgtoa@u+2)& (0+255),w,b
  2951   0028FE  5984               	subwfb	(efgtoa@g+2)& (0+255),w,b
  2952   002900  6E05               	movwf	(labs@a+2)^(0+1280),c
  2953   002902  518B               	movf	(efgtoa@u+3)& (0+255),w,b
  2954   002904  5985               	subwfb	(efgtoa@g+3)& (0+255),w,b
  2955   002906  6E06               	movwf	(labs@a+3)^(0+1280),c
  2956   002908  EC15  F02C         	call	_labs	;wreg free
  2957   00290C  BE06               	btfsc	(?_labs+3)^(0+1280),7,c
  2958   00290E  EF96  F014         	goto	u6950
  2959   002912  5006               	movf	(?_labs+3)^(0+1280),w,c
  2960   002914  1005               	iorwf	(?_labs+2)^(0+1280),w,c
  2961   002916  1004               	iorwf	(?_labs+1)^(0+1280),w,c
  2962   002918  E107               	bnz	u6951
  2963   00291A  0E02               	movlw	2
  2964   00291C  5C03               	subwf	?_labs^(0+1280),w,c
  2965   00291E  B0D8               	btfsc	status,0,c
  2966   002920  EF94  F014         	goto	u6951
  2967   002924  EF96  F014         	goto	u6950
  2968   002928                     u6951:
  2969   002928  EFDE  F014         	goto	l6163
  2970   00292C                     u6950:
  2971   00292C                     l6153:
  2972                           
  2973                           ;C:\Program Files\Microchip\xc8\v2.40\pic\sources\c99\common\doprnt.c: 584:    g = u;
  2974   00292C  C588  F582         	movff	efgtoa@u,efgtoa@g
  2975   002930  C589  F583         	movff	efgtoa@u+1,efgtoa@g+1
  2976   002934  C58A  F584         	movff	efgtoa@u+2,efgtoa@g+2
  2977   002938  C58B  F585         	movff	efgtoa@u+3,efgtoa@g+3
  2978                           
  2979                           ;C:\Program Files\Microchip\xc8\v2.40\pic\sources\c99\common\doprnt.c: 585:   }
  2980   00293C  EFF7  F014         	goto	l1418
  2981   002940                     l6155:
  2982                           
  2983                           ;C:\Program Files\Microchip\xc8\v2.40\pic\sources\c99\common\doprnt.c: 588:     u.f = u.
      +                          f/10.0;
  2984   002940  C588  F51D         	movff	efgtoa@u,___fldiv@b
  2985   002944  C589  F51E         	movff	efgtoa@u+1,___fldiv@b+1
  2986   002948  C58A  F51F         	movff	efgtoa@u+2,___fldiv@b+2
  2987   00294C  C58B  F520         	movff	efgtoa@u+3,___fldiv@b+3
  2988   002950  0E00               	movlw	0
  2989   002952  6E21               	movwf	___fldiv@a^(0+1280),c
  2990   002954  0E00               	movlw	0
  2991   002956  6E22               	movwf	(___fldiv@a+1)^(0+1280),c
  2992   002958  0E20               	movlw	32
  2993   00295A  6E23               	movwf	(___fldiv@a+2)^(0+1280),c
  2994   00295C  0E41               	movlw	65
  2995   00295E  6E24               	movwf	(___fldiv@a+3)^(0+1280),c
  2996   002960  EC8D  F01F         	call	___fldiv	;wreg free
  2997   002964  C51D  F588         	movff	?___fldiv,efgtoa@u
  2998   002968  C51E  F589         	movff	?___fldiv+1,efgtoa@u+1
  2999   00296C  C51F  F58A         	movff	?___fldiv+2,efgtoa@u+2
  3000   002970  C520  F58B         	movff	?___fldiv+3,efgtoa@u+3
  3001   002974                     
  3002                           ;C:\Program Files\Microchip\xc8\v2.40\pic\sources\c99\common\doprnt.c: 589:     --e;
  3003   002974  0105               	movlb	5	; () banked
  3004   002976  076F               	decf	efgtoa@e& (0+255),f,b
  3005   002978  A0D8               	btfss	status,0,c
  3006   00297A  0770               	decf	(efgtoa@e+1)& (0+255),f,b
  3007   00297C                     
  3008                           ; BSR set to: 5
  3009                           ;C:\Program Files\Microchip\xc8\v2.40\pic\sources\c99\common\doprnt.c: 590:     if ((lab
      +                          s((g).u-(u).u) <= 1)) {
  3010   00297C  5188               	movf	efgtoa@u& (0+255),w,b
  3011   00297E  5D82               	subwf	efgtoa@g& (0+255),w,b
  3012   002980  6E03               	movwf	labs@a^(0+1280),c
  3013   002982  5189               	movf	(efgtoa@u+1)& (0+255),w,b
  3014   002984  5983               	subwfb	(efgtoa@g+1)& (0+255),w,b
  3015   002986  6E04               	movwf	(labs@a+1)^(0+1280),c
  3016   002988  518A               	movf	(efgtoa@u+2)& (0+255),w,b
  3017   00298A  5984               	subwfb	(efgtoa@g+2)& (0+255),w,b
  3018   00298C  6E05               	movwf	(labs@a+2)^(0+1280),c
  3019   00298E  518B               	movf	(efgtoa@u+3)& (0+255),w,b
  3020   002990  5985               	subwfb	(efgtoa@g+3)& (0+255),w,b
  3021   002992  6E06               	movwf	(labs@a+3)^(0+1280),c
  3022   002994  EC15  F02C         	call	_labs	;wreg free
  3023   002998  BE06               	btfsc	(?_labs+3)^(0+1280),7,c
  3024   00299A  EFDC  F014         	goto	u6960
  3025   00299E  5006               	movf	(?_labs+3)^(0+1280),w,c
  3026   0029A0  1005               	iorwf	(?_labs+2)^(0+1280),w,c
  3027   0029A2  1004               	iorwf	(?_labs+1)^(0+1280),w,c
  3028   0029A4  E107               	bnz	u6961
  3029   0029A6  0E02               	movlw	2
  3030   0029A8  5C03               	subwf	?_labs^(0+1280),w,c
  3031   0029AA  B0D8               	btfsc	status,0,c
  3032   0029AC  EFDA  F014         	goto	u6961
  3033   0029B0  EFDC  F014         	goto	u6960
  3034   0029B4                     u6961:
  3035   0029B4  EFDE  F014         	goto	l6163
  3036   0029B8                     u6960:
  3037   0029B8  EF96  F014         	goto	l6153
  3038   0029BC                     l6163:
  3039                           
  3040                           ;C:\Program Files\Microchip\xc8\v2.40\pic\sources\c99\common\doprnt.c: 587:    while (g.
      +                          f < u.f) {
  3041   0029BC  C582  F536         	movff	efgtoa@g,___flge@ff1
  3042   0029C0  C583  F537         	movff	efgtoa@g+1,___flge@ff1+1
  3043   0029C4  C584  F538         	movff	efgtoa@g+2,___flge@ff1+2
  3044   0029C8  C585  F539         	movff	efgtoa@g+3,___flge@ff1+3
  3045   0029CC  C588  F53A         	movff	efgtoa@u,___flge@ff2
  3046   0029D0  C589  F53B         	movff	efgtoa@u+1,___flge@ff2+1
  3047   0029D4  C58A  F53C         	movff	efgtoa@u+2,___flge@ff2+2
  3048   0029D8  C58B  F53D         	movff	efgtoa@u+3,___flge@ff2+3
  3049   0029DC  EC43  F029         	call	___flge	;wreg free
  3050   0029E0  A0D8               	btfss	status,0,c
  3051   0029E2  EFF5  F014         	goto	u6971
  3052   0029E6  EFF7  F014         	goto	u6970
  3053   0029EA                     u6971:
  3054   0029EA  EFA0  F014         	goto	l6155
  3055   0029EE                     u6970:
  3056   0029EE                     l1418:
  3057                           
  3058                           ;C:\Program Files\Microchip\xc8\v2.40\pic\sources\c99\common\doprnt.c: 602:  mode = c;
  3059   0029EE  C550  F569         	movff	efgtoa@c,efgtoa@mode
  3060                           
  3061                           ;C:\Program Files\Microchip\xc8\v2.40\pic\sources\c99\common\doprnt.c: 604:     nmode = 
      +                          mode;
  3062   0029F2  C569  F56A         	movff	efgtoa@mode,efgtoa@nmode
  3063   0029F6                     
  3064                           ;C:\Program Files\Microchip\xc8\v2.40\pic\sources\c99\common\doprnt.c: 614:  {;C:\Progra
      +                          m Files\Microchip\xc8\v2.40\pic\sources\c99\common\doprnt.c: 615:         p = (prec < 0)
      +                           ? 6 : prec;
  3065   0029F6  0105               	movlb	5	; () banked
  3066   0029F8  BFD0               	btfsc	(_prec+1)& (0+255),7,b
  3067   0029FA  EF01  F015         	goto	u6981
  3068   0029FE  EF03  F015         	goto	u6980
  3069   002A02                     u6981:
  3070   002A02  EF09  F015         	goto	l6169
  3071   002A06                     u6980:
  3072   002A06                     
  3073                           ; BSR set to: 5
  3074   002A06  C5CF  F562         	movff	_prec,efgtoa@p
  3075   002A0A  C5D0  F563         	movff	_prec+1,efgtoa@p+1
  3076   002A0E  EF0D  F015         	goto	l6171
  3077   002A12                     l6169:
  3078                           
  3079                           ; BSR set to: 5
  3080   002A12  0E00               	movlw	0
  3081   002A14  6F63               	movwf	(efgtoa@p+1)& (0+255),b
  3082   002A16  0E06               	movlw	6
  3083   002A18  6F62               	movwf	efgtoa@p& (0+255),b
  3084   002A1A                     l6171:
  3085                           
  3086                           ; BSR set to: 5
  3087                           ;C:\Program Files\Microchip\xc8\v2.40\pic\sources\c99\common\doprnt.c: 616:     };C:\Pro
      +                          gram Files\Microchip\xc8\v2.40\pic\sources\c99\common\doprnt.c: 630:     m = p;
  3088   002A1A  C562  F56D         	movff	efgtoa@p,efgtoa@m
  3089   002A1E  C563  F56E         	movff	efgtoa@p+1,efgtoa@m+1
  3090   002A22                     
  3091                           ; BSR set to: 5
  3092                           ;C:\Program Files\Microchip\xc8\v2.40\pic\sources\c99\common\doprnt.c: 634:  {;C:\Progra
      +                          m Files\Microchip\xc8\v2.40\pic\sources\c99\common\doprnt.c: 635:         ++m;
  3093   002A22  4B6D               	infsnz	efgtoa@m& (0+255),f,b
  3094   002A24  2B6E               	incf	(efgtoa@m+1)& (0+255),f,b
  3095   002A26                     
  3096                           ; BSR set to: 5
  3097                           ;C:\Program Files\Microchip\xc8\v2.40\pic\sources\c99\common\doprnt.c: 636:     };C:\Pro
      +                          gram Files\Microchip\xc8\v2.40\pic\sources\c99\common\doprnt.c: 640:     if (nmode == 'f
      +                          ') {
  3098   002A26  0E66               	movlw	102
  3099   002A28  196A               	xorwf	efgtoa@nmode& (0+255),w,b
  3100   002A2A  A4D8               	btfss	status,2,c
  3101   002A2C  EF1A  F015         	goto	u6991
  3102   002A30  EF1C  F015         	goto	u6990
  3103   002A34                     u6991:
  3104   002A34  EF3C  F015         	goto	l6185
  3105   002A38                     u6990:
  3106   002A38                     
  3107                           ; BSR set to: 5
  3108                           ;C:\Program Files\Microchip\xc8\v2.40\pic\sources\c99\common\doprnt.c: 641:         if (
      +                          e < 0) {
  3109   002A38  BF70               	btfsc	(efgtoa@e+1)& (0+255),7,b
  3110   002A3A  EF23  F015         	goto	u7000
  3111   002A3E  EF21  F015         	goto	u7001
  3112   002A42                     u7001:
  3113   002A42  EF2F  F015         	goto	l6181
  3114   002A46                     u7000:
  3115   002A46                     
  3116                           ; BSR set to: 5
  3117                           ;C:\Program Files\Microchip\xc8\v2.40\pic\sources\c99\common\doprnt.c: 642:             
      +                          u.f = 1.0;
  3118   002A46  0E00               	movlw	0
  3119   002A48  6F88               	movwf	efgtoa@u& (0+255),b
  3120   002A4A  0E00               	movlw	0
  3121   002A4C  6F89               	movwf	(efgtoa@u+1)& (0+255),b
  3122   002A4E  0E80               	movlw	128
  3123   002A50  6F8A               	movwf	(efgtoa@u+2)& (0+255),b
  3124   002A52  0E3F               	movlw	63
  3125   002A54  6F8B               	movwf	(efgtoa@u+3)& (0+255),b
  3126                           
  3127                           ;C:\Program Files\Microchip\xc8\v2.40\pic\sources\c99\common\doprnt.c: 643:             
      +                          e = 0;
  3128   002A56  0E00               	movlw	0
  3129   002A58  6F70               	movwf	(efgtoa@e+1)& (0+255),b
  3130   002A5A  0E00               	movlw	0
  3131   002A5C  6F6F               	movwf	efgtoa@e& (0+255),b
  3132   002A5E                     l6181:
  3133                           
  3134                           ; BSR set to: 5
  3135                           ;C:\Program Files\Microchip\xc8\v2.40\pic\sources\c99\common\doprnt.c: 645:         if (
      +                          !(mode == 'g')) {
  3136   002A5E  0E67               	movlw	103
  3137   002A60  1969               	xorwf	efgtoa@mode& (0+255),w,b
  3138   002A62  B4D8               	btfsc	status,2,c
  3139   002A64  EF36  F015         	goto	u7011
  3140   002A68  EF38  F015         	goto	u7010
  3141   002A6C                     u7011:
  3142   002A6C  EF3C  F015         	goto	l6185
  3143   002A70                     u7010:
  3144   002A70                     
  3145                           ; BSR set to: 5
  3146                           ;C:\Program Files\Microchip\xc8\v2.40\pic\sources\c99\common\doprnt.c: 646:             
      +                          m += e;
  3147   002A70  516F               	movf	efgtoa@e& (0+255),w,b
  3148   002A72  276D               	addwf	efgtoa@m& (0+255),f,b
  3149   002A74  5170               	movf	(efgtoa@e+1)& (0+255),w,b
  3150   002A76  236E               	addwfc	(efgtoa@m+1)& (0+255),f,b
  3151   002A78                     l6185:
  3152                           
  3153                           ; BSR set to: 5
  3154                           ;C:\Program Files\Microchip\xc8\v2.40\pic\sources\c99\common\doprnt.c: 652:     i = 0;
  3155   002A78  0E00               	movlw	0
  3156   002A7A  6F80               	movwf	(efgtoa@i+1)& (0+255),b
  3157   002A7C  0E00               	movlw	0
  3158   002A7E  6F7F               	movwf	efgtoa@i& (0+255),b
  3159   002A80                     
  3160                           ; BSR set to: 5
  3161                           ;C:\Program Files\Microchip\xc8\v2.40\pic\sources\c99\common\doprnt.c: 653:     h = g.f;
  3162   002A80  C582  F577         	movff	efgtoa@g,efgtoa@h
  3163   002A84  C583  F578         	movff	efgtoa@g+1,efgtoa@h+1
  3164   002A88  C584  F579         	movff	efgtoa@g+2,efgtoa@h+2
  3165   002A8C  C585  F57A         	movff	efgtoa@g+3,efgtoa@h+3
  3166   002A90                     
  3167                           ; BSR set to: 5
  3168                           ;C:\Program Files\Microchip\xc8\v2.40\pic\sources\c99\common\doprnt.c: 654:     ou = u;
  3169   002A90  C588  F571         	movff	efgtoa@u,efgtoa@ou
  3170   002A94  C589  F572         	movff	efgtoa@u+1,efgtoa@ou+1
  3171   002A98  C58A  F573         	movff	efgtoa@u+2,efgtoa@ou+2
  3172   002A9C  C58B  F574         	movff	efgtoa@u+3,efgtoa@ou+3
  3173                           
  3174                           ;C:\Program Files\Microchip\xc8\v2.40\pic\sources\c99\common\doprnt.c: 655:     while (i
      +                           < m) {
  3175   002AA0  EFCD  F015         	goto	l6199
  3176   002AA4                     l6191:
  3177                           
  3178                           ; BSR set to: 5
  3179                           ;C:\Program Files\Microchip\xc8\v2.40\pic\sources\c99\common\doprnt.c: 656:         l = 
      +                          floorf(h/u.f);
  3180   002AA4  C577  F51D         	movff	efgtoa@h,___fldiv@b
  3181   002AA8  C578  F51E         	movff	efgtoa@h+1,___fldiv@b+1
  3182   002AAC  C579  F51F         	movff	efgtoa@h+2,___fldiv@b+2
  3183   002AB0  C57A  F520         	movff	efgtoa@h+3,___fldiv@b+3
  3184   002AB4  C588  F521         	movff	efgtoa@u,___fldiv@a
  3185   002AB8  C589  F522         	movff	efgtoa@u+1,___fldiv@a+1
  3186   002ABC  C58A  F523         	movff	efgtoa@u+2,___fldiv@a+2
  3187   002AC0  C58B  F524         	movff	efgtoa@u+3,___fldiv@a+3
  3188   002AC4  EC8D  F01F         	call	___fldiv	;wreg free
  3189   002AC8  C51D  F536         	movff	?___fldiv,floorf@x
  3190   002ACC  C51E  F537         	movff	?___fldiv+1,floorf@x+1
  3191   002AD0  C51F  F538         	movff	?___fldiv+2,floorf@x+2
  3192   002AD4  C520  F539         	movff	?___fldiv+3,floorf@x+3
  3193   002AD8  EC33  F024         	call	_floorf	;wreg free
  3194   002ADC  C536  F57B         	movff	?_floorf,efgtoa@l
  3195   002AE0  C537  F57C         	movff	?_floorf+1,efgtoa@l+1
  3196   002AE4  C538  F57D         	movff	?_floorf+2,efgtoa@l+2
  3197   002AE8  C539  F57E         	movff	?_floorf+3,efgtoa@l+3
  3198                           
  3199                           ;C:\Program Files\Microchip\xc8\v2.40\pic\sources\c99\common\doprnt.c: 657:         d = 
      +                          (int)l;
  3200   002AEC  C57B  F503         	movff	efgtoa@l,___fltol@f1
  3201   002AF0  C57C  F504         	movff	efgtoa@l+1,___fltol@f1+1
  3202   002AF4  C57D  F505         	movff	efgtoa@l+2,___fltol@f1+2
  3203   002AF8  C57E  F506         	movff	efgtoa@l+3,___fltol@f1+3
  3204   002AFC  ECC0  F028         	call	___fltol	;wreg free
  3205   002B00  C503  F56B         	movff	?___fltol,efgtoa@d
  3206   002B04  C504  F56C         	movff	?___fltol+1,efgtoa@d+1
  3207   002B08                     
  3208                           ;C:\Program Files\Microchip\xc8\v2.40\pic\sources\c99\common\doprnt.c: 658:         h -=
      +                           l*u.f;
  3209   002B08  C577  F536         	movff	efgtoa@h,___flsub@b
  3210   002B0C  C578  F537         	movff	efgtoa@h+1,___flsub@b+1
  3211   002B10  C579  F538         	movff	efgtoa@h+2,___flsub@b+2
  3212   002B14  C57A  F539         	movff	efgtoa@h+3,___flsub@b+3
  3213   002B18  C57B  F521         	movff	efgtoa@l,___flmul@a
  3214   002B1C  C57C  F522         	movff	efgtoa@l+1,___flmul@a+1
  3215   002B20  C57D  F523         	movff	efgtoa@l+2,___flmul@a+2
  3216   002B24  C57E  F524         	movff	efgtoa@l+3,___flmul@a+3
  3217   002B28  C588  F51D         	movff	efgtoa@u,___flmul@b
  3218   002B2C  C589  F51E         	movff	efgtoa@u+1,___flmul@b+1
  3219   002B30  C58A  F51F         	movff	efgtoa@u+2,___flmul@b+2
  3220   002B34  C58B  F520         	movff	efgtoa@u+3,___flmul@b+3
  3221   002B38  EC78  F01D         	call	___flmul	;wreg free
  3222   002B3C  C51D  F53A         	movff	?___flmul,___flsub@a
  3223   002B40  C51E  F53B         	movff	?___flmul+1,___flsub@a+1
  3224   002B44  C51F  F53C         	movff	?___flmul+2,___flsub@a+2
  3225   002B48  C520  F53D         	movff	?___flmul+3,___flsub@a+3
  3226   002B4C  EC1F  F02D         	call	___flsub	;wreg free
  3227   002B50  C536  F577         	movff	?___flsub,efgtoa@h
  3228   002B54  C537  F578         	movff	?___flsub+1,efgtoa@h+1
  3229   002B58  C538  F579         	movff	?___flsub+2,efgtoa@h+2
  3230   002B5C  C539  F57A         	movff	?___flsub+3,efgtoa@h+3
  3231   002B60                     
  3232                           ;C:\Program Files\Microchip\xc8\v2.40\pic\sources\c99\common\doprnt.c: 659:         u.f 
      +                          = u.f/10.0;
  3233   002B60  C588  F51D         	movff	efgtoa@u,___fldiv@b
  3234   002B64  C589  F51E         	movff	efgtoa@u+1,___fldiv@b+1
  3235   002B68  C58A  F51F         	movff	efgtoa@u+2,___fldiv@b+2
  3236   002B6C  C58B  F520         	movff	efgtoa@u+3,___fldiv@b+3
  3237   002B70  0E00               	movlw	0
  3238   002B72  6E21               	movwf	___fldiv@a^(0+1280),c
  3239   002B74  0E00               	movlw	0
  3240   002B76  6E22               	movwf	(___fldiv@a+1)^(0+1280),c
  3241   002B78  0E20               	movlw	32
  3242   002B7A  6E23               	movwf	(___fldiv@a+2)^(0+1280),c
  3243   002B7C  0E41               	movlw	65
  3244   002B7E  6E24               	movwf	(___fldiv@a+3)^(0+1280),c
  3245   002B80  EC8D  F01F         	call	___fldiv	;wreg free
  3246   002B84  C51D  F588         	movff	?___fldiv,efgtoa@u
  3247   002B88  C51E  F589         	movff	?___fldiv+1,efgtoa@u+1
  3248   002B8C  C51F  F58A         	movff	?___fldiv+2,efgtoa@u+2
  3249   002B90  C520  F58B         	movff	?___fldiv+3,efgtoa@u+3
  3250   002B94                     
  3251                           ;C:\Program Files\Microchip\xc8\v2.40\pic\sources\c99\common\doprnt.c: 660:         ++i;
  3252   002B94  0105               	movlb	5	; () banked
  3253   002B96  4B7F               	infsnz	efgtoa@i& (0+255),f,b
  3254   002B98  2B80               	incf	(efgtoa@i+1)& (0+255),f,b
  3255   002B9A                     l6199:
  3256                           
  3257                           ; BSR set to: 5
  3258                           ;C:\Program Files\Microchip\xc8\v2.40\pic\sources\c99\common\doprnt.c: 655:     while (i
      +                           < m) {
  3259   002B9A  516D               	movf	efgtoa@m& (0+255),w,b
  3260   002B9C  5D7F               	subwf	efgtoa@i& (0+255),w,b
  3261   002B9E  5180               	movf	(efgtoa@i+1)& (0+255),w,b
  3262   002BA0  0A80               	xorlw	128
  3263   002BA2  6E51               	movwf	??_efgtoa^(0+1280),c
  3264   002BA4  516E               	movf	(efgtoa@m+1)& (0+255),w,b
  3265   002BA6  0A80               	xorlw	128
  3266   002BA8  5851               	subwfb	??_efgtoa^(0+1280),w,c
  3267   002BAA  A0D8               	btfss	status,0,c
  3268   002BAC  EFDA  F015         	goto	u7021
  3269   002BB0  EFDC  F015         	goto	u7020
  3270   002BB4                     u7021:
  3271   002BB4  EF52  F015         	goto	l6191
  3272   002BB8                     u7020:
  3273   002BB8                     
  3274                           ; BSR set to: 5
  3275                           ;C:\Program Files\Microchip\xc8\v2.40\pic\sources\c99\common\doprnt.c: 664:     l = u.f*
      +                          5.0;
  3276   002BB8  C588  F51D         	movff	efgtoa@u,___flmul@b
  3277   002BBC  C589  F51E         	movff	efgtoa@u+1,___flmul@b+1
  3278   002BC0  C58A  F51F         	movff	efgtoa@u+2,___flmul@b+2
  3279   002BC4  C58B  F520         	movff	efgtoa@u+3,___flmul@b+3
  3280   002BC8  0E00               	movlw	0
  3281   002BCA  6E21               	movwf	___flmul@a^(0+1280),c
  3282   002BCC  0E00               	movlw	0
  3283   002BCE  6E22               	movwf	(___flmul@a+1)^(0+1280),c
  3284   002BD0  0EA0               	movlw	160
  3285   002BD2  6E23               	movwf	(___flmul@a+2)^(0+1280),c
  3286   002BD4  0E40               	movlw	64
  3287   002BD6  6E24               	movwf	(___flmul@a+3)^(0+1280),c
  3288   002BD8  EC78  F01D         	call	___flmul	;wreg free
  3289   002BDC  C51D  F57B         	movff	?___flmul,efgtoa@l
  3290   002BE0  C51E  F57C         	movff	?___flmul+1,efgtoa@l+1
  3291   002BE4  C51F  F57D         	movff	?___flmul+2,efgtoa@l+2
  3292   002BE8  C520  F57E         	movff	?___flmul+3,efgtoa@l+3
  3293   002BEC                     
  3294                           ;C:\Program Files\Microchip\xc8\v2.40\pic\sources\c99\common\doprnt.c: 665:     if (h < 
      +                          l) {
  3295   002BEC  C577  F536         	movff	efgtoa@h,___flge@ff1
  3296   002BF0  C578  F537         	movff	efgtoa@h+1,___flge@ff1+1
  3297   002BF4  C579  F538         	movff	efgtoa@h+2,___flge@ff1+2
  3298   002BF8  C57A  F539         	movff	efgtoa@h+3,___flge@ff1+3
  3299   002BFC  C57B  F53A         	movff	efgtoa@l,___flge@ff2
  3300   002C00  C57C  F53B         	movff	efgtoa@l+1,___flge@ff2+1
  3301   002C04  C57D  F53C         	movff	efgtoa@l+2,___flge@ff2+2
  3302   002C08  C57E  F53D         	movff	efgtoa@l+3,___flge@ff2+3
  3303   002C0C  EC43  F029         	call	___flge	;wreg free
  3304   002C10  B0D8               	btfsc	status,0,c
  3305   002C12  EF0D  F016         	goto	u7031
  3306   002C16  EF0F  F016         	goto	u7030
  3307   002C1A                     u7031:
  3308   002C1A  EF1A  F016         	goto	l6207
  3309   002C1E                     u7030:
  3310   002C1E                     
  3311                           ;C:\Program Files\Microchip\xc8\v2.40\pic\sources\c99\common\doprnt.c: 666:         l = 
      +                          0.0;
  3312   002C1E  0E00               	movlw	0
  3313   002C20  0105               	movlb	5	; () banked
  3314   002C22  6F7B               	movwf	efgtoa@l& (0+255),b
  3315   002C24  0E00               	movlw	0
  3316   002C26  6F7C               	movwf	(efgtoa@l+1)& (0+255),b
  3317   002C28  0E00               	movlw	0
  3318   002C2A  6F7D               	movwf	(efgtoa@l+2)& (0+255),b
  3319   002C2C  0E00               	movlw	0
  3320   002C2E  6F7E               	movwf	(efgtoa@l+3)& (0+255),b
  3321                           
  3322                           ;C:\Program Files\Microchip\xc8\v2.40\pic\sources\c99\common\doprnt.c: 667:     } else {
  3323   002C30  EF43  F016         	goto	l6213
  3324   002C34                     l6207:
  3325                           
  3326                           ;C:\Program Files\Microchip\xc8\v2.40\pic\sources\c99\common\doprnt.c: 669:         if (
      +                          (h == l) && !(d % 2)) {
  3327   002C34  C577  F503         	movff	efgtoa@h,___fleq@ff1
  3328   002C38  C578  F504         	movff	efgtoa@h+1,___fleq@ff1+1
  3329   002C3C  C579  F505         	movff	efgtoa@h+2,___fleq@ff1+2
  3330   002C40  C57A  F506         	movff	efgtoa@h+3,___fleq@ff1+3
  3331   002C44  C57B  F507         	movff	efgtoa@l,___fleq@ff2
  3332   002C48  C57C  F508         	movff	efgtoa@l+1,___fleq@ff2+1
  3333   002C4C  C57D  F509         	movff	efgtoa@l+2,___fleq@ff2+2
  3334   002C50  C57E  F50A         	movff	efgtoa@l+3,___fleq@ff2+3
  3335   002C54  EC9E  F02A         	call	___fleq	;wreg free
  3336   002C58  A0D8               	btfss	status,0,c
  3337   002C5A  EF31  F016         	goto	u7041
  3338   002C5E  EF33  F016         	goto	u7040
  3339   002C62                     u7041:
  3340   002C62  EF43  F016         	goto	l6213
  3341   002C66                     u7040:
  3342   002C66  0105               	movlb	5	; () banked
  3343   002C68  B16B               	btfsc	efgtoa@d& (0+255),0,b
  3344   002C6A  EF39  F016         	goto	u7051
  3345   002C6E  EF3B  F016         	goto	u7050
  3346   002C72                     u7051:
  3347   002C72  EF43  F016         	goto	l6213
  3348   002C76                     u7050:
  3349   002C76                     
  3350                           ; BSR set to: 5
  3351                           ;C:\Program Files\Microchip\xc8\v2.40\pic\sources\c99\common\doprnt.c: 670:             
      +                          l = 0.0;
  3352   002C76  0E00               	movlw	0
  3353   002C78  6F7B               	movwf	efgtoa@l& (0+255),b
  3354   002C7A  0E00               	movlw	0
  3355   002C7C  6F7C               	movwf	(efgtoa@l+1)& (0+255),b
  3356   002C7E  0E00               	movlw	0
  3357   002C80  6F7D               	movwf	(efgtoa@l+2)& (0+255),b
  3358   002C82  0E00               	movlw	0
  3359   002C84  6F7E               	movwf	(efgtoa@l+3)& (0+255),b
  3360   002C86                     l6213:
  3361                           
  3362                           ;C:\Program Files\Microchip\xc8\v2.40\pic\sources\c99\common\doprnt.c: 675:     h = g.f 
      +                          + l;
  3363   002C86  C582  F503         	movff	efgtoa@g,___fladd@b
  3364   002C8A  C583  F504         	movff	efgtoa@g+1,___fladd@b+1
  3365   002C8E  C584  F505         	movff	efgtoa@g+2,___fladd@b+2
  3366   002C92  C585  F506         	movff	efgtoa@g+3,___fladd@b+3
  3367   002C96  C57B  F507         	movff	efgtoa@l,___fladd@a
  3368   002C9A  C57C  F508         	movff	efgtoa@l+1,___fladd@a+1
  3369   002C9E  C57D  F509         	movff	efgtoa@l+2,___fladd@a+2
  3370   002CA2  C57E  F50A         	movff	efgtoa@l+3,___fladd@a+3
  3371   002CA6  EC18  F01B         	call	___fladd	;wreg free
  3372   002CAA  C503  F577         	movff	?___fladd,efgtoa@h
  3373   002CAE  C504  F578         	movff	?___fladd+1,efgtoa@h+1
  3374   002CB2  C505  F579         	movff	?___fladd+2,efgtoa@h+2
  3375   002CB6  C506  F57A         	movff	?___fladd+3,efgtoa@h+3
  3376   002CBA                     
  3377                           ;C:\Program Files\Microchip\xc8\v2.40\pic\sources\c99\common\doprnt.c: 677:  if (h >= (o
      +                          u.f*10.0)) {
  3378   002CBA  C577  F536         	movff	efgtoa@h,___flge@ff1
  3379   002CBE  C578  F537         	movff	efgtoa@h+1,___flge@ff1+1
  3380   002CC2  C579  F538         	movff	efgtoa@h+2,___flge@ff1+2
  3381   002CC6  C57A  F539         	movff	efgtoa@h+3,___flge@ff1+3
  3382   002CCA  0E00               	movlw	0
  3383   002CCC  6E21               	movwf	___flmul@a^(0+1280),c
  3384   002CCE  0E00               	movlw	0
  3385   002CD0  6E22               	movwf	(___flmul@a+1)^(0+1280),c
  3386   002CD2  0E20               	movlw	32
  3387   002CD4  6E23               	movwf	(___flmul@a+2)^(0+1280),c
  3388   002CD6  0E41               	movlw	65
  3389   002CD8  6E24               	movwf	(___flmul@a+3)^(0+1280),c
  3390   002CDA  C571  F51D         	movff	efgtoa@ou,___flmul@b
  3391   002CDE  C572  F51E         	movff	efgtoa@ou+1,___flmul@b+1
  3392   002CE2  C573  F51F         	movff	efgtoa@ou+2,___flmul@b+2
  3393   002CE6  C574  F520         	movff	efgtoa@ou+3,___flmul@b+3
  3394   002CEA  EC78  F01D         	call	___flmul	;wreg free
  3395   002CEE  C51D  F53A         	movff	?___flmul,___flge@ff2
  3396   002CF2  C51E  F53B         	movff	?___flmul+1,___flge@ff2+1
  3397   002CF6  C51F  F53C         	movff	?___flmul+2,___flge@ff2+2
  3398   002CFA  C520  F53D         	movff	?___flmul+3,___flge@ff2+3
  3399   002CFE  EC43  F029         	call	___flge	;wreg free
  3400   002D02  A0D8               	btfss	status,0,c
  3401   002D04  EF86  F016         	goto	u7061
  3402   002D08  EF88  F016         	goto	u7060
  3403   002D0C                     u7061:
  3404   002D0C  EFB1  F016         	goto	l6225
  3405   002D10                     u7060:
  3406   002D10                     
  3407                           ;C:\Program Files\Microchip\xc8\v2.40\pic\sources\c99\common\doprnt.c: 678:   e++;
  3408   002D10  0105               	movlb	5	; () banked
  3409   002D12  4B6F               	infsnz	efgtoa@e& (0+255),f,b
  3410   002D14  2B70               	incf	(efgtoa@e+1)& (0+255),f,b
  3411   002D16                     
  3412                           ; BSR set to: 5
  3413                           ;C:\Program Files\Microchip\xc8\v2.40\pic\sources\c99\common\doprnt.c: 679:   ou.f *= 10
      +                          .0;
  3414   002D16  C571  F51D         	movff	efgtoa@ou,___flmul@b
  3415   002D1A  C572  F51E         	movff	efgtoa@ou+1,___flmul@b+1
  3416   002D1E  C573  F51F         	movff	efgtoa@ou+2,___flmul@b+2
  3417   002D22  C574  F520         	movff	efgtoa@ou+3,___flmul@b+3
  3418   002D26  0E00               	movlw	0
  3419   002D28  6E21               	movwf	___flmul@a^(0+1280),c
  3420   002D2A  0E00               	movlw	0
  3421   002D2C  6E22               	movwf	(___flmul@a+1)^(0+1280),c
  3422   002D2E  0E20               	movlw	32
  3423   002D30  6E23               	movwf	(___flmul@a+2)^(0+1280),c
  3424   002D32  0E41               	movlw	65
  3425   002D34  6E24               	movwf	(___flmul@a+3)^(0+1280),c
  3426   002D36  EC78  F01D         	call	___flmul	;wreg free
  3427   002D3A  C51D  F571         	movff	?___flmul,efgtoa@ou
  3428   002D3E  C51E  F572         	movff	?___flmul+1,efgtoa@ou+1
  3429   002D42  C51F  F573         	movff	?___flmul+2,efgtoa@ou+2
  3430   002D46  C520  F574         	movff	?___flmul+3,efgtoa@ou+3
  3431   002D4A                     
  3432                           ;C:\Program Files\Microchip\xc8\v2.40\pic\sources\c99\common\doprnt.c: 681:   if (nmode 
      +                          == 'f') {
  3433   002D4A  0E66               	movlw	102
  3434   002D4C  0105               	movlb	5	; () banked
  3435   002D4E  196A               	xorwf	efgtoa@nmode& (0+255),w,b
  3436   002D50  A4D8               	btfss	status,2,c
  3437   002D52  EFAD  F016         	goto	u7071
  3438   002D56  EFAF  F016         	goto	u7070
  3439   002D5A                     u7071:
  3440   002D5A  EFB1  F016         	goto	l6225
  3441   002D5E                     u7070:
  3442   002D5E                     
  3443                           ; BSR set to: 5
  3444                           ;C:\Program Files\Microchip\xc8\v2.40\pic\sources\c99\common\doprnt.c: 683:    m++;
  3445   002D5E  4B6D               	infsnz	efgtoa@m& (0+255),f,b
  3446   002D60  2B6E               	incf	(efgtoa@m+1)& (0+255),f,b
  3447   002D62                     l6225:
  3448                           
  3449                           ;C:\Program Files\Microchip\xc8\v2.40\pic\sources\c99\common\doprnt.c: 689:     u = ou;
  3450   002D62  C571  F588         	movff	efgtoa@ou,efgtoa@u
  3451   002D66  C572  F589         	movff	efgtoa@ou+1,efgtoa@u+1
  3452   002D6A  C573  F58A         	movff	efgtoa@ou+2,efgtoa@u+2
  3453   002D6E  C574  F58B         	movff	efgtoa@ou+3,efgtoa@u+3
  3454   002D72                     
  3455                           ;C:\Program Files\Microchip\xc8\v2.40\pic\sources\c99\common\doprnt.c: 693:  ne = e;
  3456   002D72  C56F  F560         	movff	efgtoa@e,efgtoa@ne
  3457   002D76  C570  F561         	movff	efgtoa@e+1,efgtoa@ne+1
  3458   002D7A                     
  3459                           ;C:\Program Files\Microchip\xc8\v2.40\pic\sources\c99\common\doprnt.c: 695:     pp = 0;
  3460   002D7A  0E00               	movlw	0
  3461   002D7C  0105               	movlb	5	; () banked
  3462   002D7E  6F68               	movwf	efgtoa@pp& (0+255),b
  3463   002D80                     
  3464                           ; BSR set to: 5
  3465                           ;C:\Program Files\Microchip\xc8\v2.40\pic\sources\c99\common\doprnt.c: 696:     t = 0;
  3466   002D80  0E00               	movlw	0
  3467   002D82  6F65               	movwf	(efgtoa@t+1)& (0+255),b
  3468   002D84  0E00               	movlw	0
  3469   002D86  6F64               	movwf	efgtoa@t& (0+255),b
  3470   002D88                     
  3471                           ; BSR set to: 5
  3472                           ;C:\Program Files\Microchip\xc8\v2.40\pic\sources\c99\common\doprnt.c: 697:     i = 0;
  3473   002D88  0E00               	movlw	0
  3474   002D8A  6F80               	movwf	(efgtoa@i+1)& (0+255),b
  3475   002D8C  0E00               	movlw	0
  3476   002D8E  6F7F               	movwf	efgtoa@i& (0+255),b
  3477                           
  3478                           ;C:\Program Files\Microchip\xc8\v2.40\pic\sources\c99\common\doprnt.c: 698:     while ((
      +                          i < m) && (n < (80 - 5))) {
  3479   002D90  EFAF  F017         	goto	l6275
  3480   002D94                     l6235:
  3481                           
  3482                           ; BSR set to: 5
  3483                           ;C:\Program Files\Microchip\xc8\v2.40\pic\sources\c99\common\doprnt.c: 699:         l = 
      +                          floorf(h/u.f);
  3484   002D94  C577  F51D         	movff	efgtoa@h,___fldiv@b
  3485   002D98  C578  F51E         	movff	efgtoa@h+1,___fldiv@b+1
  3486   002D9C  C579  F51F         	movff	efgtoa@h+2,___fldiv@b+2
  3487   002DA0  C57A  F520         	movff	efgtoa@h+3,___fldiv@b+3
  3488   002DA4  C588  F521         	movff	efgtoa@u,___fldiv@a
  3489   002DA8  C589  F522         	movff	efgtoa@u+1,___fldiv@a+1
  3490   002DAC  C58A  F523         	movff	efgtoa@u+2,___fldiv@a+2
  3491   002DB0  C58B  F524         	movff	efgtoa@u+3,___fldiv@a+3
  3492   002DB4  EC8D  F01F         	call	___fldiv	;wreg free
  3493   002DB8  C51D  F536         	movff	?___fldiv,floorf@x
  3494   002DBC  C51E  F537         	movff	?___fldiv+1,floorf@x+1
  3495   002DC0  C51F  F538         	movff	?___fldiv+2,floorf@x+2
  3496   002DC4  C520  F539         	movff	?___fldiv+3,floorf@x+3
  3497   002DC8  EC33  F024         	call	_floorf	;wreg free
  3498   002DCC  C536  F57B         	movff	?_floorf,efgtoa@l
  3499   002DD0  C537  F57C         	movff	?_floorf+1,efgtoa@l+1
  3500   002DD4  C538  F57D         	movff	?_floorf+2,efgtoa@l+2
  3501   002DD8  C539  F57E         	movff	?_floorf+3,efgtoa@l+3
  3502                           
  3503                           ;C:\Program Files\Microchip\xc8\v2.40\pic\sources\c99\common\doprnt.c: 700:         d = 
      +                          (int)l > 9 ? 9 : (int)l;
  3504   002DDC  C57B  F503         	movff	efgtoa@l,___fltol@f1
  3505   002DE0  C57C  F504         	movff	efgtoa@l+1,___fltol@f1+1
  3506   002DE4  C57D  F505         	movff	efgtoa@l+2,___fltol@f1+2
  3507   002DE8  C57E  F506         	movff	efgtoa@l+3,___fltol@f1+3
  3508   002DEC  ECC0  F028         	call	___fltol	;wreg free
  3509   002DF0  BE04               	btfsc	(?___fltol+1)^(0+1280),7,c
  3510   002DF2  EF06  F017         	goto	u7080
  3511   002DF6  5004               	movf	(?___fltol+1)^(0+1280),w,c
  3512   002DF8  E107               	bnz	u7081
  3513   002DFA  0E0A               	movlw	10
  3514   002DFC  5C03               	subwf	?___fltol^(0+1280),w,c
  3515   002DFE  B0D8               	btfsc	status,0,c
  3516   002E00  EF04  F017         	goto	u7081
  3517   002E04  EF06  F017         	goto	u7080
  3518   002E08                     u7081:
  3519   002E08  EF16  F017         	goto	l6239
  3520   002E0C                     u7080:
  3521   002E0C  C57B  F503         	movff	efgtoa@l,___fltol@f1
  3522   002E10  C57C  F504         	movff	efgtoa@l+1,___fltol@f1+1
  3523   002E14  C57D  F505         	movff	efgtoa@l+2,___fltol@f1+2
  3524   002E18  C57E  F506         	movff	efgtoa@l+3,___fltol@f1+3
  3525   002E1C  ECC0  F028         	call	___fltol	;wreg free
  3526   002E20  C503  F56B         	movff	?___fltol,efgtoa@d
  3527   002E24  C504  F56C         	movff	?___fltol+1,efgtoa@d+1
  3528   002E28  EF1B  F017         	goto	l1448
  3529   002E2C                     l6239:
  3530   002E2C  0E00               	movlw	0
  3531   002E2E  0105               	movlb	5	; () banked
  3532   002E30  6F6C               	movwf	(efgtoa@d+1)& (0+255),b
  3533   002E32  0E09               	movlw	9
  3534   002E34  6F6B               	movwf	efgtoa@d& (0+255),b
  3535   002E36                     l1448:
  3536                           
  3537                           ;C:\Program Files\Microchip\xc8\v2.40\pic\sources\c99\common\doprnt.c: 711:   {;C:\Progr
      +                          am Files\Microchip\xc8\v2.40\pic\sources\c99\common\doprnt.c: 712:             if (!pp &
      +                          & (ne < 0)) {
  3538   002E36  0105               	movlb	5	; () banked
  3539   002E38  5168               	movf	efgtoa@pp& (0+255),w,b
  3540   002E3A  A4D8               	btfss	status,2,c
  3541   002E3C  EF22  F017         	goto	u7091
  3542   002E40  EF24  F017         	goto	u7090
  3543   002E44                     u7091:
  3544   002E44  EF4C  F017         	goto	l6259
  3545   002E48                     u7090:
  3546   002E48                     
  3547                           ; BSR set to: 5
  3548   002E48  BF61               	btfsc	(efgtoa@ne+1)& (0+255),7,b
  3549   002E4A  EF2B  F017         	goto	u7100
  3550   002E4E  EF29  F017         	goto	u7101
  3551   002E52                     u7101:
  3552   002E52  EF4C  F017         	goto	l6259
  3553   002E56                     u7100:
  3554   002E56                     
  3555                           ; BSR set to: 5
  3556                           ;C:\Program Files\Microchip\xc8\v2.40\pic\sources\c99\common\doprnt.c: 713:             
      +                              dbuf[n++] = '.';
  3557   002E56  0E00               	movlw	low _dbuf
  3558   002E58  2586               	addwf	efgtoa@n& (0+255),w,b
  3559   002E5A  6ED9               	movwf	fsr2l,c
  3560   002E5C  0E06               	movlw	high _dbuf
  3561   002E5E  2187               	addwfc	(efgtoa@n+1)& (0+255),w,b
  3562   002E60  6EDA               	movwf	fsr2h,c
  3563   002E62  0E2E               	movlw	46
  3564   002E64  6EDF               	movwf	indf2,c
  3565   002E66                     
  3566                           ; BSR set to: 5
  3567   002E66  4B86               	infsnz	efgtoa@n& (0+255),f,b
  3568   002E68  2B87               	incf	(efgtoa@n+1)& (0+255),f,b
  3569   002E6A                     
  3570                           ; BSR set to: 5
  3571                           ;C:\Program Files\Microchip\xc8\v2.40\pic\sources\c99\common\doprnt.c: 714:             
      +                              --w;
  3572   002E6A  0775               	decf	efgtoa@w& (0+255),f,b
  3573   002E6C  A0D8               	btfss	status,0,c
  3574   002E6E  0776               	decf	(efgtoa@w+1)& (0+255),f,b
  3575   002E70                     
  3576                           ; BSR set to: 5
  3577                           ;C:\Program Files\Microchip\xc8\v2.40\pic\sources\c99\common\doprnt.c: 715:             
      +                              pp = 1;
  3578   002E70  0E01               	movlw	1
  3579   002E72  6F68               	movwf	efgtoa@pp& (0+255),b
  3580   002E74  EF4C  F017         	goto	l6259
  3581   002E78                     l6251:
  3582                           
  3583                           ; BSR set to: 5
  3584                           ;C:\Program Files\Microchip\xc8\v2.40\pic\sources\c99\common\doprnt.c: 718:             
      +                              dbuf[n++] = '0';
  3585   002E78  0E00               	movlw	low _dbuf
  3586   002E7A  2586               	addwf	efgtoa@n& (0+255),w,b
  3587   002E7C  6ED9               	movwf	fsr2l,c
  3588   002E7E  0E06               	movlw	high _dbuf
  3589   002E80  2187               	addwfc	(efgtoa@n+1)& (0+255),w,b
  3590   002E82  6EDA               	movwf	fsr2h,c
  3591   002E84  0E30               	movlw	48
  3592   002E86  6EDF               	movwf	indf2,c
  3593   002E88                     
  3594                           ; BSR set to: 5
  3595   002E88  4B86               	infsnz	efgtoa@n& (0+255),f,b
  3596   002E8A  2B87               	incf	(efgtoa@n+1)& (0+255),f,b
  3597   002E8C                     
  3598                           ; BSR set to: 5
  3599                           ;C:\Program Files\Microchip\xc8\v2.40\pic\sources\c99\common\doprnt.c: 719:             
      +                              --w;
  3600   002E8C  0775               	decf	efgtoa@w& (0+255),f,b
  3601   002E8E  A0D8               	btfss	status,0,c
  3602   002E90  0776               	decf	(efgtoa@w+1)& (0+255),f,b
  3603   002E92                     
  3604                           ; BSR set to: 5
  3605                           ;C:\Program Files\Microchip\xc8\v2.40\pic\sources\c99\common\doprnt.c: 720:             
      +                              --t;
  3606   002E92  0764               	decf	efgtoa@t& (0+255),f,b
  3607   002E94  A0D8               	btfss	status,0,c
  3608   002E96  0765               	decf	(efgtoa@t+1)& (0+255),f,b
  3609   002E98                     l6259:
  3610                           
  3611                           ; BSR set to: 5
  3612                           ;C:\Program Files\Microchip\xc8\v2.40\pic\sources\c99\common\doprnt.c: 717:             
      +                          while (t) {
  3613   002E98  5164               	movf	efgtoa@t& (0+255),w,b
  3614   002E9A  1165               	iorwf	(efgtoa@t+1)& (0+255),w,b
  3615   002E9C  A4D8               	btfss	status,2,c
  3616   002E9E  EF53  F017         	goto	u7111
  3617   002EA2  EF55  F017         	goto	u7110
  3618   002EA6                     u7111:
  3619   002EA6  EF3C  F017         	goto	l6251
  3620   002EAA                     u7110:
  3621   002EAA                     
  3622                           ; BSR set to: 5
  3623                           ;C:\Program Files\Microchip\xc8\v2.40\pic\sources\c99\common\doprnt.c: 722:             
      +                          dbuf[n++] = (char)((int)'0' + d);
  3624   002EAA  0E00               	movlw	low _dbuf
  3625   002EAC  2586               	addwf	efgtoa@n& (0+255),w,b
  3626   002EAE  6ED9               	movwf	fsr2l,c
  3627   002EB0  0E06               	movlw	high _dbuf
  3628   002EB2  2187               	addwfc	(efgtoa@n+1)& (0+255),w,b
  3629   002EB4  6EDA               	movwf	fsr2h,c
  3630   002EB6  516B               	movf	efgtoa@d& (0+255),w,b
  3631   002EB8  0F30               	addlw	48
  3632   002EBA  6EDF               	movwf	indf2,c
  3633   002EBC                     
  3634                           ; BSR set to: 5
  3635   002EBC  4B86               	infsnz	efgtoa@n& (0+255),f,b
  3636   002EBE  2B87               	incf	(efgtoa@n+1)& (0+255),f,b
  3637   002EC0                     
  3638                           ; BSR set to: 5
  3639                           ;C:\Program Files\Microchip\xc8\v2.40\pic\sources\c99\common\doprnt.c: 723:             
      +                          --w;
  3640   002EC0  0775               	decf	efgtoa@w& (0+255),f,b
  3641   002EC2  A0D8               	btfss	status,0,c
  3642   002EC4  0776               	decf	(efgtoa@w+1)& (0+255),f,b
  3643   002EC6                     
  3644                           ; BSR set to: 5
  3645                           ;C:\Program Files\Microchip\xc8\v2.40\pic\sources\c99\common\doprnt.c: 724:         };C:
      +                          \Program Files\Microchip\xc8\v2.40\pic\sources\c99\common\doprnt.c: 725:         h -= l*
      +                          u.f;
  3646   002EC6  C577  F536         	movff	efgtoa@h,___flsub@b
  3647   002ECA  C578  F537         	movff	efgtoa@h+1,___flsub@b+1
  3648   002ECE  C579  F538         	movff	efgtoa@h+2,___flsub@b+2
  3649   002ED2  C57A  F539         	movff	efgtoa@h+3,___flsub@b+3
  3650   002ED6  C57B  F521         	movff	efgtoa@l,___flmul@a
  3651   002EDA  C57C  F522         	movff	efgtoa@l+1,___flmul@a+1
  3652   002EDE  C57D  F523         	movff	efgtoa@l+2,___flmul@a+2
  3653   002EE2  C57E  F524         	movff	efgtoa@l+3,___flmul@a+3
  3654   002EE6  C588  F51D         	movff	efgtoa@u,___flmul@b
  3655   002EEA  C589  F51E         	movff	efgtoa@u+1,___flmul@b+1
  3656   002EEE  C58A  F51F         	movff	efgtoa@u+2,___flmul@b+2
  3657   002EF2  C58B  F520         	movff	efgtoa@u+3,___flmul@b+3
  3658   002EF6  EC78  F01D         	call	___flmul	;wreg free
  3659   002EFA  C51D  F53A         	movff	?___flmul,___flsub@a
  3660   002EFE  C51E  F53B         	movff	?___flmul+1,___flsub@a+1
  3661   002F02  C51F  F53C         	movff	?___flmul+2,___flsub@a+2
  3662   002F06  C520  F53D         	movff	?___flmul+3,___flsub@a+3
  3663   002F0A  EC1F  F02D         	call	___flsub	;wreg free
  3664   002F0E  C536  F577         	movff	?___flsub,efgtoa@h
  3665   002F12  C537  F578         	movff	?___flsub+1,efgtoa@h+1
  3666   002F16  C538  F579         	movff	?___flsub+2,efgtoa@h+2
  3667   002F1A  C539  F57A         	movff	?___flsub+3,efgtoa@h+3
  3668   002F1E                     
  3669                           ;C:\Program Files\Microchip\xc8\v2.40\pic\sources\c99\common\doprnt.c: 726:         u.f 
      +                          = u.f/10.0;
  3670   002F1E  C588  F51D         	movff	efgtoa@u,___fldiv@b
  3671   002F22  C589  F51E         	movff	efgtoa@u+1,___fldiv@b+1
  3672   002F26  C58A  F51F         	movff	efgtoa@u+2,___fldiv@b+2
  3673   002F2A  C58B  F520         	movff	efgtoa@u+3,___fldiv@b+3
  3674   002F2E  0E00               	movlw	0
  3675   002F30  6E21               	movwf	___fldiv@a^(0+1280),c
  3676   002F32  0E00               	movlw	0
  3677   002F34  6E22               	movwf	(___fldiv@a+1)^(0+1280),c
  3678   002F36  0E20               	movlw	32
  3679   002F38  6E23               	movwf	(___fldiv@a+2)^(0+1280),c
  3680   002F3A  0E41               	movlw	65
  3681   002F3C  6E24               	movwf	(___fldiv@a+3)^(0+1280),c
  3682   002F3E  EC8D  F01F         	call	___fldiv	;wreg free
  3683   002F42  C51D  F588         	movff	?___fldiv,efgtoa@u
  3684   002F46  C51E  F589         	movff	?___fldiv+1,efgtoa@u+1
  3685   002F4A  C51F  F58A         	movff	?___fldiv+2,efgtoa@u+2
  3686   002F4E  C520  F58B         	movff	?___fldiv+3,efgtoa@u+3
  3687   002F52                     
  3688                           ;C:\Program Files\Microchip\xc8\v2.40\pic\sources\c99\common\doprnt.c: 727:         --ne
      +                          ;
  3689   002F52  0105               	movlb	5	; () banked
  3690   002F54  0760               	decf	efgtoa@ne& (0+255),f,b
  3691   002F56  A0D8               	btfss	status,0,c
  3692   002F58  0761               	decf	(efgtoa@ne+1)& (0+255),f,b
  3693   002F5A                     
  3694                           ; BSR set to: 5
  3695                           ;C:\Program Files\Microchip\xc8\v2.40\pic\sources\c99\common\doprnt.c: 728:         ++i;
  3696   002F5A  4B7F               	infsnz	efgtoa@i& (0+255),f,b
  3697   002F5C  2B80               	incf	(efgtoa@i+1)& (0+255),f,b
  3698   002F5E                     l6275:
  3699                           
  3700                           ; BSR set to: 5
  3701                           ;C:\Program Files\Microchip\xc8\v2.40\pic\sources\c99\common\doprnt.c: 698:     while ((
      +                          i < m) && (n < (80 - 5))) {
  3702   002F5E  516D               	movf	efgtoa@m& (0+255),w,b
  3703   002F60  5D7F               	subwf	efgtoa@i& (0+255),w,b
  3704   002F62  5180               	movf	(efgtoa@i+1)& (0+255),w,b
  3705   002F64  0A80               	xorlw	128
  3706   002F66  6E51               	movwf	??_efgtoa^(0+1280),c
  3707   002F68  516E               	movf	(efgtoa@m+1)& (0+255),w,b
  3708   002F6A  0A80               	xorlw	128
  3709   002F6C  5851               	subwfb	??_efgtoa^(0+1280),w,c
  3710   002F6E  B0D8               	btfsc	status,0,c
  3711   002F70  EFBC  F017         	goto	u7121
  3712   002F74  EFBE  F017         	goto	u7120
  3713   002F78                     u7121:
  3714   002F78  EFCC  F017         	goto	l6279
  3715   002F7C                     u7120:
  3716   002F7C                     
  3717                           ; BSR set to: 5
  3718   002F7C  BF87               	btfsc	(efgtoa@n+1)& (0+255),7,b
  3719   002F7E  EFCA  F017         	goto	u7131
  3720   002F82  5187               	movf	(efgtoa@n+1)& (0+255),w,b
  3721   002F84  E109               	bnz	u7130
  3722   002F86  0E4B               	movlw	75
  3723   002F88  5D86               	subwf	efgtoa@n& (0+255),w,b
  3724   002F8A  A0D8               	btfss	status,0,c
  3725   002F8C  EFCA  F017         	goto	u7131
  3726   002F90  EFCC  F017         	goto	u7130
  3727   002F94                     u7131:
  3728   002F94  EFCA  F016         	goto	l6235
  3729   002F98                     u7130:
  3730   002F98                     l6279:
  3731                           
  3732                           ; BSR set to: 5
  3733                           ;C:\Program Files\Microchip\xc8\v2.40\pic\sources\c99\common\doprnt.c: 735:  i = sizeof(
      +                          dbuf) - 1;
  3734   002F98  0E00               	movlw	0
  3735   002F9A  6F80               	movwf	(efgtoa@i+1)& (0+255),b
  3736   002F9C  0E4F               	movlw	79
  3737   002F9E  6F7F               	movwf	efgtoa@i& (0+255),b
  3738   002FA0                     
  3739                           ; BSR set to: 5
  3740                           ;C:\Program Files\Microchip\xc8\v2.40\pic\sources\c99\common\doprnt.c: 736:     dbuf[i] 
      +                          = '\0';
  3741   002FA0  0E00               	movlw	low _dbuf
  3742   002FA2  257F               	addwf	efgtoa@i& (0+255),w,b
  3743   002FA4  6ED9               	movwf	fsr2l,c
  3744   002FA6  0E06               	movlw	high _dbuf
  3745   002FA8  2180               	addwfc	(efgtoa@i+1)& (0+255),w,b
  3746   002FAA  6EDA               	movwf	fsr2h,c
  3747   002FAC  0E00               	movlw	0
  3748   002FAE  6EDF               	movwf	indf2,c
  3749   002FB0                     
  3750                           ; BSR set to: 5
  3751                           ;C:\Program Files\Microchip\xc8\v2.40\pic\sources\c99\common\doprnt.c: 767:  memcpy(&dbu
      +                          f[i-n], &dbuf[0], (size_t)n);
  3752   002FB0  0E00               	movlw	low _dbuf
  3753   002FB2  6E51               	movwf	??_efgtoa^(0+1280),c
  3754   002FB4  0E06               	movlw	high _dbuf
  3755   002FB6  6E52               	movwf	(??_efgtoa+1)^(0+1280),c
  3756   002FB8  5186               	movf	efgtoa@n& (0+255),w,b
  3757   002FBA  5E51               	subwf	??_efgtoa^(0+1280),f,c
  3758   002FBC  5187               	movf	(efgtoa@n+1)& (0+255),w,b
  3759   002FBE  5A52               	subwfb	(??_efgtoa+1)^(0+1280),f,c
  3760   002FC0  517F               	movf	efgtoa@i& (0+255),w,b
  3761   002FC2  2451               	addwf	??_efgtoa^(0+1280),w,c
  3762   002FC4  6E03               	movwf	memcpy@d1^(0+1280),c
  3763   002FC6  5180               	movf	(efgtoa@i+1)& (0+255),w,b
  3764   002FC8  2052               	addwfc	(??_efgtoa+1)^(0+1280),w,c
  3765   002FCA  6E04               	movwf	(memcpy@d1+1)^(0+1280),c
  3766   002FCC  0E00               	movlw	low _dbuf
  3767   002FCE  6E05               	movwf	memcpy@s1^(0+1280),c
  3768   002FD0  0E06               	movlw	high _dbuf
  3769   002FD2  6E06               	movwf	(memcpy@s1+1)^(0+1280),c
  3770   002FD4  C586  F507         	movff	efgtoa@n,memcpy@n
  3771   002FD8  C587  F508         	movff	efgtoa@n+1,memcpy@n+1
  3772   002FDC  ECD0  F02C         	call	_memcpy	;wreg free
  3773   002FE0                     
  3774                           ;C:\Program Files\Microchip\xc8\v2.40\pic\sources\c99\common\doprnt.c: 768:  n = i-n;
  3775   002FE0  0105               	movlb	5	; () banked
  3776   002FE2  5186               	movf	efgtoa@n& (0+255),w,b
  3777   002FE4  5D7F               	subwf	efgtoa@i& (0+255),w,b
  3778   002FE6  6F86               	movwf	efgtoa@n& (0+255),b
  3779   002FE8  5187               	movf	(efgtoa@n+1)& (0+255),w,b
  3780   002FEA  5980               	subwfb	(efgtoa@i+1)& (0+255),w,b
  3781   002FEC  6F87               	movwf	(efgtoa@n+1)& (0+255),b
  3782   002FEE                     
  3783                           ; BSR set to: 5
  3784                           ;C:\Program Files\Microchip\xc8\v2.40\pic\sources\c99\common\doprnt.c: 769:  i = sign ==
      +                           0 ? 0 : 1;
  3785   002FEE  5181               	movf	efgtoa@sign& (0+255),w,b
  3786   002FF0  A4D8               	btfss	status,2,c
  3787   002FF2  EFFD  F017         	goto	u7141
  3788   002FF6  EF00  F018         	goto	u7140
  3789   002FFA                     u7141:
  3790   002FFA  0E01               	movlw	1
  3791   002FFC  EF01  F018         	goto	u7150
  3792   003000                     u7140:
  3793   003000  0E00               	movlw	0
  3794   003002                     u7150:
  3795   003002  6F7F               	movwf	efgtoa@i& (0+255),b
  3796   003004  6B80               	clrf	(efgtoa@i+1)& (0+255),b
  3797   003006                     
  3798                           ; BSR set to: 5
  3799                           ;C:\Program Files\Microchip\xc8\v2.40\pic\sources\c99\common\doprnt.c: 772:  if (flags &
      +                           (1 << 1)) {
  3800   003006  A25C               	btfss	_flags^(0+1280),1,c
  3801   003008  EF08  F018         	goto	u7161
  3802   00300C  EF0A  F018         	goto	u7160
  3803   003010                     u7161:
  3804   003010  EF38  F018         	goto	l6301
  3805   003014                     u7160:
  3806   003014  EF1A  F018         	goto	l6297
  3807   003018                     l6293:
  3808                           
  3809                           ; BSR set to: 5
  3810                           ;C:\Program Files\Microchip\xc8\v2.40\pic\sources\c99\common\doprnt.c: 774:    dbuf[--n]
      +                           = '0';
  3811   003018  0786               	decf	efgtoa@n& (0+255),f,b
  3812   00301A  A0D8               	btfss	status,0,c
  3813   00301C  0787               	decf	(efgtoa@n+1)& (0+255),f,b
  3814   00301E  0E00               	movlw	low _dbuf
  3815   003020  2586               	addwf	efgtoa@n& (0+255),w,b
  3816   003022  6ED9               	movwf	fsr2l,c
  3817   003024  0E06               	movlw	high _dbuf
  3818   003026  2187               	addwfc	(efgtoa@n+1)& (0+255),w,b
  3819   003028  6EDA               	movwf	fsr2h,c
  3820   00302A  0E30               	movlw	48
  3821   00302C  6EDF               	movwf	indf2,c
  3822   00302E                     
  3823                           ; BSR set to: 5
  3824                           ;C:\Program Files\Microchip\xc8\v2.40\pic\sources\c99\common\doprnt.c: 775:    w--;
  3825   00302E  0775               	decf	efgtoa@w& (0+255),f,b
  3826   003030  A0D8               	btfss	status,0,c
  3827   003032  0776               	decf	(efgtoa@w+1)& (0+255),f,b
  3828   003034                     l6297:
  3829                           
  3830                           ; BSR set to: 5
  3831                           ;C:\Program Files\Microchip\xc8\v2.40\pic\sources\c99\common\doprnt.c: 773:   while (w >
      +                           i && n > i) {
  3832   003034  5175               	movf	efgtoa@w& (0+255),w,b
  3833   003036  5D7F               	subwf	efgtoa@i& (0+255),w,b
  3834   003038  5180               	movf	(efgtoa@i+1)& (0+255),w,b
  3835   00303A  0A80               	xorlw	128
  3836   00303C  6E51               	movwf	??_efgtoa^(0+1280),c
  3837   00303E  5176               	movf	(efgtoa@w+1)& (0+255),w,b
  3838   003040  0A80               	xorlw	128
  3839   003042  5851               	subwfb	??_efgtoa^(0+1280),w,c
  3840   003044  B0D8               	btfsc	status,0,c
  3841   003046  EF27  F018         	goto	u7171
  3842   00304A  EF29  F018         	goto	u7170
  3843   00304E                     u7171:
  3844   00304E  EF38  F018         	goto	l6301
  3845   003052                     u7170:
  3846   003052                     
  3847                           ; BSR set to: 5
  3848   003052  5186               	movf	efgtoa@n& (0+255),w,b
  3849   003054  5D7F               	subwf	efgtoa@i& (0+255),w,b
  3850   003056  5180               	movf	(efgtoa@i+1)& (0+255),w,b
  3851   003058  0A80               	xorlw	128
  3852   00305A  6E51               	movwf	??_efgtoa^(0+1280),c
  3853   00305C  5187               	movf	(efgtoa@n+1)& (0+255),w,b
  3854   00305E  0A80               	xorlw	128
  3855   003060  5851               	subwfb	??_efgtoa^(0+1280),w,c
  3856   003062  A0D8               	btfss	status,0,c
  3857   003064  EF36  F018         	goto	u7181
  3858   003068  EF38  F018         	goto	u7180
  3859   00306C                     u7181:
  3860   00306C  EF0C  F018         	goto	l6293
  3861   003070                     u7180:
  3862   003070                     l6301:
  3863                           
  3864                           ; BSR set to: 5
  3865                           ;C:\Program Files\Microchip\xc8\v2.40\pic\sources\c99\common\doprnt.c: 780:  if (sign) {
  3866   003070  5181               	movf	efgtoa@sign& (0+255),w,b
  3867   003072  B4D8               	btfsc	status,2,c
  3868   003074  EF3E  F018         	goto	u7191
  3869   003078  EF40  F018         	goto	u7190
  3870   00307C                     u7191:
  3871   00307C  EF4B  F018         	goto	l6305
  3872   003080                     u7190:
  3873   003080                     
  3874                           ; BSR set to: 5
  3875                           ;C:\Program Files\Microchip\xc8\v2.40\pic\sources\c99\common\doprnt.c: 781:   dbuf[--n] 
      +                          = sign;
  3876   003080  0786               	decf	efgtoa@n& (0+255),f,b
  3877   003082  A0D8               	btfss	status,0,c
  3878   003084  0787               	decf	(efgtoa@n+1)& (0+255),f,b
  3879   003086  0E00               	movlw	low _dbuf
  3880   003088  2586               	addwf	efgtoa@n& (0+255),w,b
  3881   00308A  6ED9               	movwf	fsr2l,c
  3882   00308C  0E06               	movlw	high _dbuf
  3883   00308E  2187               	addwfc	(efgtoa@n+1)& (0+255),w,b
  3884   003090  6EDA               	movwf	fsr2h,c
  3885   003092  C581  F4DF         	movff	efgtoa@sign,indf2
  3886   003096                     l6305:
  3887                           
  3888                           ; BSR set to: 5
  3889                           ;C:\Program Files\Microchip\xc8\v2.40\pic\sources\c99\common\doprnt.c: 783:  w -= i;
  3890   003096  517F               	movf	efgtoa@i& (0+255),w,b
  3891   003098  5F75               	subwf	efgtoa@w& (0+255),f,b
  3892   00309A  5180               	movf	(efgtoa@i+1)& (0+255),w,b
  3893   00309C  5B76               	subwfb	(efgtoa@w+1)& (0+255),f,b
  3894   00309E                     
  3895                           ; BSR set to: 5
  3896                           ;C:\Program Files\Microchip\xc8\v2.40\pic\sources\c99\common\doprnt.c: 786:     return (
      +                          void) pad(fp, &dbuf[n], w);
  3897   00309E  C54A  F515         	movff	efgtoa@fp,pad@fp
  3898   0030A2  C54B  F516         	movff	efgtoa@fp+1,pad@fp+1
  3899   0030A6  0E00               	movlw	low _dbuf
  3900   0030A8  2586               	addwf	efgtoa@n& (0+255),w,b
  3901   0030AA  6E17               	movwf	pad@buf^(0+1280),c
  3902   0030AC  0E06               	movlw	high _dbuf
  3903   0030AE  2187               	addwfc	(efgtoa@n+1)& (0+255),w,b
  3904   0030B0  6E18               	movwf	(pad@buf+1)^(0+1280),c
  3905   0030B2  C575  F519         	movff	efgtoa@w,pad@p
  3906   0030B6  C576  F51A         	movff	efgtoa@w+1,pad@p+1
  3907   0030BA  ECF3  F02A         	call	_pad	;wreg free
  3908   0030BE                     l1415:
  3909   0030BE  0012               	return		;funcret
  3910   0030C0                     __end_of_efgtoa:
  3911                           	callstack 0
  3912                           
  3913 ;; *************** function _strcpy *****************
  3914 ;; Defined at:
  3915 ;;		line 3 in file "C:\Program Files\Microchip\xc8\v2.40\pic\sources\c99\common\strcpy.c"
  3916 ;; Parameters:    Size  Location     Type
  3917 ;;  dest            2    2[COMRAM] PTR unsigned char 
  3918 ;;		 -> dbuf(80), 
  3919 ;;  src             2    4[COMRAM] PTR const unsigned char 
  3920 ;;		 -> STR_5(4), STR_2(4), 
  3921 ;; Auto vars:     Size  Location     Type
  3922 ;;  d               2    8[COMRAM] PTR unsigned char 
  3923 ;;		 -> dbuf(80), 
  3924 ;;  s               2    6[COMRAM] PTR const unsigned char 
  3925 ;;		 -> STR_5(4), STR_2(4), 
  3926 ;; Return value:  Size  Location     Type
  3927 ;;                  2    2[COMRAM] PTR unsigned char 
  3928 ;; Registers used:
  3929 ;;		wreg, fsr2l, fsr2h, status,2, status,0, tblptrl, tblptrh, tblptru
  3930 ;; Tracked objects:
  3931 ;;		On entry : 0/0
  3932 ;;		On exit  : 0/0
  3933 ;;		Unchanged: 0/0
  3934 ;; Data sizes:     COMRAM   BANK5   BANK6   BANK7   BANK8   BANK9  BANK10  BANK11  BANK12  BANK13  BANK14  BANK15  BANK1
      +6  BANK17  BANK18  BANK19  BANK20  BANK21  BANK22  BANK23  BANK24  BANK25  BANK26  BANK27  BANK28  BANK29  BANK30  BANK3
      +1  BANK32  BANK33  BANK34  BANK35  BANK36
  3935 ;;      Params:         4       0       0       0       0       0       0       0       0       0       0       0       
      +0       0       0       0       0       0       0       0       0       0       0       0       0       0       0       
      +0       0       0       0       0       0
  3936 ;;      Locals:         4       0       0       0       0       0       0       0       0       0       0       0       
      +0       0       0       0       0       0       0       0       0       0       0       0       0       0       0       
      +0       0       0       0       0       0
  3937 ;;      Temps:          0       0       0       0       0       0       0       0       0       0       0       0       
      +0       0       0       0       0       0       0       0       0       0       0       0       0       0       0       
      +0       0       0       0       0       0
  3938 ;;      Totals:         8       0       0       0       0       0       0       0       0       0       0       0       
      +0       0       0       0       0       0       0       0       0       0       0       0       0       0       0       
      +0       0       0       0       0       0
  3939 ;;Total ram usage:        8 bytes
  3940 ;; Hardware stack levels used: 1
  3941 ;; Hardware stack levels required when called: 4
  3942 ;; This function calls:
  3943 ;;		Nothing
  3944 ;; This function is called by:
  3945 ;;		_efgtoa
  3946 ;; This function uses a non-reentrant model
  3947 ;;
  3948                           
  3949                           	psect	text5
  3950   005ACA                     __ptext5:
  3951                           	callstack 0
  3952   005ACA                     _strcpy:
  3953                           	callstack 118
  3954   005ACA  C505  F507         	movff	strcpy@src,strcpy@s
  3955   005ACE  C506  F508         	movff	strcpy@src+1,strcpy@s+1
  3956   005AD2  C503  F509         	movff	strcpy@dest,strcpy@d
  3957   005AD6  C504  F50A         	movff	strcpy@dest+1,strcpy@d+1
  3958   005ADA                     l5955:
  3959   005ADA  C507  F4F6         	movff	strcpy@s,tblptrl
  3960   005ADE  C508  F4F7         	movff	strcpy@s+1,tblptrh
  3961   005AE2  4A07               	infsnz	strcpy@s^(0+1280),f,c
  3962   005AE4  2A08               	incf	(strcpy@s+1)^(0+1280),f,c
  3963   005AE6                     	if	0	;tblptru may be non-zero
  3964   005AE6                     	endif
  3965   005AE6                     	if	1	;Program memory is > 0xFFFF, there are 3 active tblptr bytes
  3966   005AE6  0E00               	movlw	low (__mediumconst shr (0+16))
  3967   005AE8  6EF8               	movwf	tblptru,c
  3968   005AEA                     	endif
  3969   005AEA  C509  F4D9         	movff	strcpy@d,fsr2l
  3970   005AEE  C50A  F4DA         	movff	strcpy@d+1,fsr2h
  3971   005AF2  4A09               	infsnz	strcpy@d^(0+1280),f,c
  3972   005AF4  2A0A               	incf	(strcpy@d+1)^(0+1280),f,c
  3973   005AF6  0008               	tblrd		*
  3974   005AF8  C4F5 F4DF          	movff	tablat,indf2
  3975   005AFC  50DF               	movf	indf2,w,c
  3976   005AFE  A4D8               	btfss	status,2,c
  3977   005B00  EF84  F02D         	goto	u6551
  3978   005B04  EF86  F02D         	goto	u6550
  3979   005B08                     u6551:
  3980   005B08  EF6D  F02D         	goto	l5955
  3981   005B0C                     u6550:
  3982   005B0C  0012               	return		;funcret
  3983   005B0E                     __end_of_strcpy:
  3984                           	callstack 0
  3985                           
  3986 ;; *************** function _memcpy *****************
  3987 ;; Defined at:
  3988 ;;		line 4 in file "C:\Program Files\Microchip\xc8\v2.40\pic\sources\c99\common\memcpy.c"
  3989 ;; Parameters:    Size  Location     Type
  3990 ;;  d1              2    2[COMRAM] PTR void 
  3991 ;;		 -> dbuf(80), 
  3992 ;;  s1              2    4[COMRAM] PTR const void 
  3993 ;;		 -> dbuf(80), 
  3994 ;;  n               2    6[COMRAM] unsigned int 
  3995 ;; Auto vars:     Size  Location     Type
  3996 ;;  s               2   11[COMRAM] PTR const unsigned char 
  3997 ;;		 -> dbuf(80), 
  3998 ;;  d               2    9[COMRAM] PTR unsigned char 
  3999 ;;		 -> dbuf(80), 
  4000 ;;  tmp             1    8[COMRAM] unsigned char 
  4001 ;; Return value:  Size  Location     Type
  4002 ;;                  2    2[COMRAM] PTR void 
  4003 ;; Registers used:
  4004 ;;		wreg, fsr2l, fsr2h, status,2, status,0
  4005 ;; Tracked objects:
  4006 ;;		On entry : 0/0
  4007 ;;		On exit  : 0/0
  4008 ;;		Unchanged: 0/0
  4009 ;; Data sizes:     COMRAM   BANK5   BANK6   BANK7   BANK8   BANK9  BANK10  BANK11  BANK12  BANK13  BANK14  BANK15  BANK1
      +6  BANK17  BANK18  BANK19  BANK20  BANK21  BANK22  BANK23  BANK24  BANK25  BANK26  BANK27  BANK28  BANK29  BANK30  BANK3
      +1  BANK32  BANK33  BANK34  BANK35  BANK36
  4010 ;;      Params:         6       0       0       0       0       0       0       0       0       0       0       0       
      +0       0       0       0       0       0       0       0       0       0       0       0       0       0       0       
      +0       0       0       0       0       0
  4011 ;;      Locals:         5       0       0       0       0       0       0       0       0       0       0       0       
      +0       0       0       0       0       0       0       0       0       0       0       0       0       0       0       
      +0       0       0       0       0       0
  4012 ;;      Temps:          0       0       0       0       0       0       0       0       0       0       0       0       
      +0       0       0       0       0       0       0       0       0       0       0       0       0       0       0       
      +0       0       0       0       0       0
  4013 ;;      Totals:        11       0       0       0       0       0       0       0       0       0       0       0       
      +0       0       0       0       0       0       0       0       0       0       0       0       0       0       0       
      +0       0       0       0       0       0
  4014 ;;Total ram usage:       11 bytes
  4015 ;; Hardware stack levels used: 1
  4016 ;; Hardware stack levels required when called: 4
  4017 ;; This function calls:
  4018 ;;		Nothing
  4019 ;; This function is called by:
  4020 ;;		_efgtoa
  4021 ;; This function uses a non-reentrant model
  4022 ;;
  4023                           
  4024                           	psect	text6
  4025   0059A0                     __ptext6:
  4026                           	callstack 0
  4027   0059A0                     _memcpy:
  4028                           	callstack 118
  4029   0059A0  C505  F50C         	movff	memcpy@s1,memcpy@s
  4030   0059A4  C506  F50D         	movff	memcpy@s1+1,memcpy@s+1
  4031   0059A8  C503  F50A         	movff	memcpy@d1,memcpy@d
  4032   0059AC  C504  F50B         	movff	memcpy@d1+1,memcpy@d+1
  4033   0059B0  EFEA  F02C         	goto	l5999
  4034   0059B4                     l5991:
  4035   0059B4  C50C  F4D9         	movff	memcpy@s,fsr2l
  4036   0059B8  C50D  F4DA         	movff	memcpy@s+1,fsr2h
  4037   0059BC  50DF               	movf	indf2,w,c
  4038   0059BE  6E09               	movwf	memcpy@tmp^(0+1280),c
  4039   0059C0  4A0C               	infsnz	memcpy@s^(0+1280),f,c
  4040   0059C2  2A0D               	incf	(memcpy@s+1)^(0+1280),f,c
  4041   0059C4  C50A  F4D9         	movff	memcpy@d,fsr2l
  4042   0059C8  C50B  F4DA         	movff	memcpy@d+1,fsr2h
  4043   0059CC  C509  F4DF         	movff	memcpy@tmp,indf2
  4044   0059D0  4A0A               	infsnz	memcpy@d^(0+1280),f,c
  4045   0059D2  2A0B               	incf	(memcpy@d+1)^(0+1280),f,c
  4046   0059D4                     l5999:
  4047   0059D4  0607               	decf	memcpy@n^(0+1280),f,c
  4048   0059D6  A0D8               	btfss	status,0,c
  4049   0059D8  0608               	decf	(memcpy@n+1)^(0+1280),f,c
  4050   0059DA  2807               	incf	memcpy@n^(0+1280),w,c
  4051   0059DC  E106               	bnz	u6671
  4052   0059DE  2808               	incf	(memcpy@n+1)^(0+1280),w,c
  4053   0059E0  A4D8               	btfss	status,2,c
  4054   0059E2  EFF5  F02C         	goto	u6671
  4055   0059E6  EFF7  F02C         	goto	u6670
  4056   0059EA                     u6671:
  4057   0059EA  EFDA  F02C         	goto	l5991
  4058   0059EE                     u6670:
  4059   0059EE  0012               	return		;funcret
  4060   0059F0                     __end_of_memcpy:
  4061                           	callstack 0
  4062                           
  4063 ;; *************** function _labs *****************
  4064 ;; Defined at:
  4065 ;;		line 1 in file "C:\Program Files\Microchip\xc8\v2.40\pic\sources\c99\common\labs.c"
  4066 ;; Parameters:    Size  Location     Type
  4067 ;;  a               4    2[COMRAM] long 
  4068 ;; Auto vars:     Size  Location     Type
  4069 ;;		None
  4070 ;; Return value:  Size  Location     Type
  4071 ;;                  4    2[COMRAM] long 
  4072 ;; Registers used:
  4073 ;;		wreg, status,2, status,0
  4074 ;; Tracked objects:
  4075 ;;		On entry : 0/0
  4076 ;;		On exit  : 0/0
  4077 ;;		Unchanged: 0/0
  4078 ;; Data sizes:     COMRAM   BANK5   BANK6   BANK7   BANK8   BANK9  BANK10  BANK11  BANK12  BANK13  BANK14  BANK15  BANK1
      +6  BANK17  BANK18  BANK19  BANK20  BANK21  BANK22  BANK23  BANK24  BANK25  BANK26  BANK27  BANK28  BANK29  BANK30  BANK3
      +1  BANK32  BANK33  BANK34  BANK35  BANK36
  4079 ;;      Params:         4       0       0       0       0       0       0       0       0       0       0       0       
      +0       0       0       0       0       0       0       0       0       0       0       0       0       0       0       
      +0       0       0       0       0       0
  4080 ;;      Locals:         0       0       0       0       0       0       0       0       0       0       0       0       
      +0       0       0       0       0       0       0       0       0       0       0       0       0       0       0       
      +0       0       0       0       0       0
  4081 ;;      Temps:          4       0       0       0       0       0       0       0       0       0       0       0       
      +0       0       0       0       0       0       0       0       0       0       0       0       0       0       0       
      +0       0       0       0       0       0
  4082 ;;      Totals:         8       0       0       0       0       0       0       0       0       0       0       0       
      +0       0       0       0       0       0       0       0       0       0       0       0       0       0       0       
      +0       0       0       0       0       0
  4083 ;;Total ram usage:        8 bytes
  4084 ;; Hardware stack levels used: 1
  4085 ;; Hardware stack levels required when called: 4
  4086 ;; This function calls:
  4087 ;;		Nothing
  4088 ;; This function is called by:
  4089 ;;		_efgtoa
  4090 ;; This function uses a non-reentrant model
  4091 ;;
  4092                           
  4093                           	psect	text7
  4094   00582A                     __ptext7:
  4095                           	callstack 0
  4096   00582A                     _labs:
  4097                           	callstack 118
  4098   00582A  BE06               	btfsc	(labs@a+3)^(0+1280),7,c
  4099   00582C  EF24  F02C         	goto	u6560
  4100   005830  5006               	movf	(labs@a+3)^(0+1280),w,c
  4101   005832  1005               	iorwf	(labs@a+2)^(0+1280),w,c
  4102   005834  1004               	iorwf	(labs@a+1)^(0+1280),w,c
  4103   005836  E106               	bnz	u6561
  4104   005838  0403               	decf	labs@a^(0+1280),w,c
  4105   00583A  B0D8               	btfsc	status,0,c
  4106   00583C  EF22  F02C         	goto	u6561
  4107   005840  EF24  F02C         	goto	u6560
  4108   005844                     u6561:
  4109   005844  EF3F  F02C         	goto	l1588
  4110   005848                     u6560:
  4111   005848  C503  F507         	movff	labs@a,??_labs
  4112   00584C  C504  F508         	movff	labs@a+1,??_labs+1
  4113   005850  C505  F509         	movff	labs@a+2,??_labs+2
  4114   005854  C506  F50A         	movff	labs@a+3,??_labs+3
  4115   005858  1E07               	comf	??_labs^(0+1280),f,c
  4116   00585A  1E08               	comf	(??_labs+1)^(0+1280),f,c
  4117   00585C  1E09               	comf	(??_labs+2)^(0+1280),f,c
  4118   00585E  1E0A               	comf	(??_labs+3)^(0+1280),f,c
  4119   005860  2A07               	incf	??_labs^(0+1280),f,c
  4120   005862  0E00               	movlw	0
  4121   005864  2208               	addwfc	(??_labs+1)^(0+1280),f,c
  4122   005866  2209               	addwfc	(??_labs+2)^(0+1280),f,c
  4123   005868  220A               	addwfc	(??_labs+3)^(0+1280),f,c
  4124   00586A  C507  F503         	movff	??_labs,?_labs
  4125   00586E  C508  F504         	movff	??_labs+1,?_labs+1
  4126   005872  C509  F505         	movff	??_labs+2,?_labs+2
  4127   005876  C50A  F506         	movff	??_labs+3,?_labs+3
  4128   00587A  EF47  F02C         	goto	l1591
  4129   00587E                     l1588:
  4130   00587E  C503  F503         	movff	labs@a,?_labs
  4131   005882  C504  F504         	movff	labs@a+1,?_labs+1
  4132   005886  C505  F505         	movff	labs@a+2,?_labs+2
  4133   00588A  C506  F506         	movff	labs@a+3,?_labs+3
  4134   00588E                     l1591:
  4135   00588E  0012               	return		;funcret
  4136   005890                     __end_of_labs:
  4137                           	callstack 0
  4138                           
  4139 ;; *************** function _floorf *****************
  4140 ;; Defined at:
  4141 ;;		line 3 in file "C:\Program Files\Microchip\xc8\v2.40\pic\sources\c99\common\floorf.c"
  4142 ;; Parameters:    Size  Location     Type
  4143 ;;  x               4   53[COMRAM] float 
  4144 ;; Auto vars:     Size  Location     Type
  4145 ;;  u               4   69[COMRAM] struct .
  4146 ;;  m               4   63[COMRAM] unsigned long 
  4147 ;;  e               2   67[COMRAM] int 
  4148 ;; Return value:  Size  Location     Type
  4149 ;;                  4   53[COMRAM] float 
  4150 ;; Registers used:
  4151 ;;		wreg, status,2, status,0
  4152 ;; Tracked objects:
  4153 ;;		On entry : 0/0
  4154 ;;		On exit  : 0/0
  4155 ;;		Unchanged: 0/0
  4156 ;; Data sizes:     COMRAM   BANK5   BANK6   BANK7   BANK8   BANK9  BANK10  BANK11  BANK12  BANK13  BANK14  BANK15  BANK1
      +6  BANK17  BANK18  BANK19  BANK20  BANK21  BANK22  BANK23  BANK24  BANK25  BANK26  BANK27  BANK28  BANK29  BANK30  BANK3
      +1  BANK32  BANK33  BANK34  BANK35  BANK36
  4157 ;;      Params:         4       0       0       0       0       0       0       0       0       0       0       0       
      +0       0       0       0       0       0       0       0       0       0       0       0       0       0       0       
      +0       0       0       0       0       0
  4158 ;;      Locals:        10       0       0       0       0       0       0       0       0       0       0       0       
      +0       0       0       0       0       0       0       0       0       0       0       0       0       0       0       
      +0       0       0       0       0       0
  4159 ;;      Temps:          6       0       0       0       0       0       0       0       0       0       0       0       
      +0       0       0       0       0       0       0       0       0       0       0       0       0       0       0       
      +0       0       0       0       0       0
  4160 ;;      Totals:        20       0       0       0       0       0       0       0       0       0       0       0       
      +0       0       0       0       0       0       0       0       0       0       0       0       0       0       0       
      +0       0       0       0       0       0
  4161 ;;Total ram usage:       20 bytes
  4162 ;; Hardware stack levels used: 1
  4163 ;; Hardware stack levels required when called: 4
  4164 ;; This function calls:
  4165 ;;		Nothing
  4166 ;; This function is called by:
  4167 ;;		_efgtoa
  4168 ;; This function uses a non-reentrant model
  4169 ;;
  4170                           
  4171                           	psect	text8
  4172   004866                     __ptext8:
  4173                           	callstack 0
  4174   004866                     _floorf:
  4175                           	callstack 118
  4176   004866  C5C1  F546         	movff	floorf@F526,floorf@u
  4177   00486A  C5C2  F547         	movff	floorf@F526+1,floorf@u+1
  4178   00486E  C5C3  F548         	movff	floorf@F526+2,floorf@u+2
  4179   004872  C5C4  F549         	movff	floorf@F526+3,floorf@u+3
  4180   004876  C536  F546         	movff	floorf@x,floorf@u
  4181   00487A  C537  F547         	movff	floorf@x+1,floorf@u+1
  4182   00487E  C538  F548         	movff	floorf@x+2,floorf@u+2
  4183   004882  C539  F549         	movff	floorf@x+3,floorf@u+3
  4184   004886  0E81               	movlw	129
  4185   004888  6E3A               	movwf	??_floorf^(0+1280),c
  4186   00488A  0EFF               	movlw	255
  4187   00488C  6E3B               	movwf	(??_floorf+1)^(0+1280),c
  4188   00488E  C546  F53C         	movff	floorf@u,??_floorf+2
  4189   004892  C547  F53D         	movff	floorf@u+1,??_floorf+3
  4190   004896  C548  F53E         	movff	floorf@u+2,??_floorf+4
  4191   00489A  C549  F53F         	movff	floorf@u+3,??_floorf+5
  4192   00489E  0E18               	movlw	24
  4193   0048A0  EF57  F024         	goto	u6570
  4194   0048A4                     u6575:
  4195   0048A4  90D8               	bcf	status,0,c
  4196   0048A6  323F               	rrcf	(??_floorf+5)^(0+1280),f,c
  4197   0048A8  323E               	rrcf	(??_floorf+4)^(0+1280),f,c
  4198   0048AA  323D               	rrcf	(??_floorf+3)^(0+1280),f,c
  4199   0048AC  323C               	rrcf	(??_floorf+2)^(0+1280),f,c
  4200   0048AE                     u6570:
  4201   0048AE  2EE8               	decfsz	wreg,f,c
  4202   0048B0  EF52  F024         	goto	u6575
  4203   0048B4  503C               	movf	(??_floorf+2)^(0+1280),w,c
  4204   0048B6  243A               	addwf	??_floorf^(0+1280),w,c
  4205   0048B8  6E44               	movwf	floorf@e^(0+1280),c
  4206   0048BA  0E00               	movlw	0
  4207   0048BC  203B               	addwfc	(??_floorf+1)^(0+1280),w,c
  4208   0048BE  6E45               	movwf	(floorf@e+1)^(0+1280),c
  4209   0048C0  BE45               	btfsc	(floorf@e+1)^(0+1280),7,c
  4210   0048C2  EF6C  F024         	goto	u6581
  4211   0048C6  5045               	movf	(floorf@e+1)^(0+1280),w,c
  4212   0048C8  E109               	bnz	u6580
  4213   0048CA  0E17               	movlw	23
  4214   0048CC  5C44               	subwf	floorf@e^(0+1280),w,c
  4215   0048CE  A0D8               	btfss	status,0,c
  4216   0048D0  EF6C  F024         	goto	u6581
  4217   0048D4  EF6E  F024         	goto	u6580
  4218   0048D8                     u6581:
  4219   0048D8  EF78  F024         	goto	l5967
  4220   0048DC                     u6580:
  4221   0048DC                     l5965:
  4222   0048DC  C536  F536         	movff	floorf@x,?_floorf
  4223   0048E0  C537  F537         	movff	floorf@x+1,?_floorf+1
  4224   0048E4  C538  F538         	movff	floorf@x+2,?_floorf+2
  4225   0048E8  C539  F539         	movff	floorf@x+3,?_floorf+3
  4226   0048EC  EF3B  F025         	goto	l1563
  4227   0048F0                     l5967:
  4228   0048F0  BE45               	btfsc	(floorf@e+1)^(0+1280),7,c
  4229   0048F2  EF7D  F024         	goto	u6591
  4230   0048F6  EF7F  F024         	goto	u6590
  4231   0048FA                     u6591:
  4232   0048FA  EFEF  F024         	goto	l5977
  4233   0048FE                     u6590:
  4234   0048FE  C544  F53A         	movff	floorf@e,??_floorf
  4235   004902  0EFF               	movlw	255
  4236   004904  6E3B               	movwf	(??_floorf+1)^(0+1280),c
  4237   004906  0EFF               	movlw	255
  4238   004908  6E3C               	movwf	(??_floorf+2)^(0+1280),c
  4239   00490A  0E7F               	movlw	127
  4240   00490C  6E3D               	movwf	(??_floorf+3)^(0+1280),c
  4241   00490E  0E00               	movlw	0
  4242   004910  6E3E               	movwf	(??_floorf+4)^(0+1280),c
  4243   004912                     u6605:
  4244   004912  663A               	tstfsz	??_floorf^(0+1280),c
  4245   004914  EF8E  F024         	goto	u6606
  4246   004918  EF96  F024         	goto	u6607
  4247   00491C                     u6606:
  4248   00491C  343E               	rlcf	(??_floorf+4)^(0+1280),w,c
  4249   00491E  323E               	rrcf	(??_floorf+4)^(0+1280),f,c
  4250   004920  323D               	rrcf	(??_floorf+3)^(0+1280),f,c
  4251   004922  323C               	rrcf	(??_floorf+2)^(0+1280),f,c
  4252   004924  323B               	rrcf	(??_floorf+1)^(0+1280),f,c
  4253   004926  2E3A               	decfsz	??_floorf^(0+1280),f,c
  4254   004928  EF89  F024         	goto	u6605
  4255   00492C                     u6607:
  4256   00492C  C53B  F540         	movff	??_floorf+1,floorf@m
  4257   004930  C53C  F541         	movff	??_floorf+2,floorf@m+1
  4258   004934  C53D  F542         	movff	??_floorf+3,floorf@m+2
  4259   004938  C53E  F543         	movff	??_floorf+4,floorf@m+3
  4260   00493C  5040               	movf	floorf@m^(0+1280),w,c
  4261   00493E  1446               	andwf	floorf@u^(0+1280),w,c
  4262   004940  6E3A               	movwf	??_floorf^(0+1280),c
  4263   004942  5041               	movf	(floorf@m+1)^(0+1280),w,c
  4264   004944  1447               	andwf	(floorf@u+1)^(0+1280),w,c
  4265   004946  6E3B               	movwf	(??_floorf+1)^(0+1280),c
  4266   004948  5042               	movf	(floorf@m+2)^(0+1280),w,c
  4267   00494A  1448               	andwf	(floorf@u+2)^(0+1280),w,c
  4268   00494C  6E3C               	movwf	(??_floorf+2)^(0+1280),c
  4269   00494E  5043               	movf	(floorf@m+3)^(0+1280),w,c
  4270   004950  1449               	andwf	(floorf@u+3)^(0+1280),w,c
  4271   004952  6E3D               	movwf	(??_floorf+3)^(0+1280),c
  4272   004954  503A               	movf	??_floorf^(0+1280),w,c
  4273   004956  103B               	iorwf	(??_floorf+1)^(0+1280),w,c
  4274   004958  103C               	iorwf	(??_floorf+2)^(0+1280),w,c
  4275   00495A  103D               	iorwf	(??_floorf+3)^(0+1280),w,c
  4276   00495C  A4D8               	btfss	status,2,c
  4277   00495E  EFB3  F024         	goto	u6611
  4278   004962  EFB5  F024         	goto	u6610
  4279   004966                     u6611:
  4280   004966  EFB7  F024         	goto	l5973
  4281   00496A                     u6610:
  4282   00496A  EF6E  F024         	goto	l5965
  4283   00496E                     l5973:
  4284   00496E  C546  F53A         	movff	floorf@u,??_floorf
  4285   004972  C547  F53B         	movff	floorf@u+1,??_floorf+1
  4286   004976  C548  F53C         	movff	floorf@u+2,??_floorf+2
  4287   00497A  C549  F53D         	movff	floorf@u+3,??_floorf+3
  4288   00497E  0E20               	movlw	32
  4289   004980  EFC7  F024         	goto	u6620
  4290   004984                     u6625:
  4291   004984  90D8               	bcf	status,0,c
  4292   004986  323D               	rrcf	(??_floorf+3)^(0+1280),f,c
  4293   004988  323C               	rrcf	(??_floorf+2)^(0+1280),f,c
  4294   00498A  323B               	rrcf	(??_floorf+1)^(0+1280),f,c
  4295   00498C  323A               	rrcf	??_floorf^(0+1280),f,c
  4296   00498E                     u6620:
  4297   00498E  2EE8               	decfsz	wreg,f,c
  4298   004990  EFC2  F024         	goto	u6625
  4299   004994  503A               	movf	??_floorf^(0+1280),w,c
  4300   004996  103B               	iorwf	(??_floorf+1)^(0+1280),w,c
  4301   004998  103C               	iorwf	(??_floorf+2)^(0+1280),w,c
  4302   00499A  103D               	iorwf	(??_floorf+3)^(0+1280),w,c
  4303   00499C  B4D8               	btfsc	status,2,c
  4304   00499E  EFD3  F024         	goto	u6631
  4305   0049A2  EFD5  F024         	goto	u6630
  4306   0049A6                     u6631:
  4307   0049A6  EFDD  F024         	goto	l1566
  4308   0049AA                     u6630:
  4309   0049AA  5040               	movf	floorf@m^(0+1280),w,c
  4310   0049AC  2646               	addwf	floorf@u^(0+1280),f,c
  4311   0049AE  5041               	movf	(floorf@m+1)^(0+1280),w,c
  4312   0049B0  2247               	addwfc	(floorf@u+1)^(0+1280),f,c
  4313   0049B2  5042               	movf	(floorf@m+2)^(0+1280),w,c
  4314   0049B4  2248               	addwfc	(floorf@u+2)^(0+1280),f,c
  4315   0049B6  5043               	movf	(floorf@m+3)^(0+1280),w,c
  4316   0049B8  2249               	addwfc	(floorf@u+3)^(0+1280),f,c
  4317   0049BA                     l1566:
  4318   0049BA  1C40               	comf	floorf@m^(0+1280),w,c
  4319   0049BC  6E3A               	movwf	??_floorf^(0+1280),c
  4320   0049BE  1C41               	comf	(floorf@m+1)^(0+1280),w,c
  4321   0049C0  6E3B               	movwf	(??_floorf+1)^(0+1280),c
  4322   0049C2  1C42               	comf	(floorf@m+2)^(0+1280),w,c
  4323   0049C4  6E3C               	movwf	(??_floorf+2)^(0+1280),c
  4324   0049C6  1C43               	comf	(floorf@m+3)^(0+1280),w,c
  4325   0049C8  6E3D               	movwf	(??_floorf+3)^(0+1280),c
  4326   0049CA  503A               	movf	??_floorf^(0+1280),w,c
  4327   0049CC  1646               	andwf	floorf@u^(0+1280),f,c
  4328   0049CE  503B               	movf	(??_floorf+1)^(0+1280),w,c
  4329   0049D0  1647               	andwf	(floorf@u+1)^(0+1280),f,c
  4330   0049D2  503C               	movf	(??_floorf+2)^(0+1280),w,c
  4331   0049D4  1648               	andwf	(floorf@u+2)^(0+1280),f,c
  4332   0049D6  503D               	movf	(??_floorf+3)^(0+1280),w,c
  4333   0049D8  1649               	andwf	(floorf@u+3)^(0+1280),f,c
  4334   0049DA  EF33  F025         	goto	l5985
  4335   0049DE                     l5977:
  4336   0049DE  C546  F53A         	movff	floorf@u,??_floorf
  4337   0049E2  C547  F53B         	movff	floorf@u+1,??_floorf+1
  4338   0049E6  C548  F53C         	movff	floorf@u+2,??_floorf+2
  4339   0049EA  C549  F53D         	movff	floorf@u+3,??_floorf+3
  4340   0049EE  0E20               	movlw	32
  4341   0049F0  EFFF  F024         	goto	u6640
  4342   0049F4                     u6645:
  4343   0049F4  90D8               	bcf	status,0,c
  4344   0049F6  323D               	rrcf	(??_floorf+3)^(0+1280),f,c
  4345   0049F8  323C               	rrcf	(??_floorf+2)^(0+1280),f,c
  4346   0049FA  323B               	rrcf	(??_floorf+1)^(0+1280),f,c
  4347   0049FC  323A               	rrcf	??_floorf^(0+1280),f,c
  4348   0049FE                     u6640:
  4349   0049FE  2EE8               	decfsz	wreg,f,c
  4350   004A00  EFFA  F024         	goto	u6645
  4351   004A04  503A               	movf	??_floorf^(0+1280),w,c
  4352   004A06  103B               	iorwf	(??_floorf+1)^(0+1280),w,c
  4353   004A08  103C               	iorwf	(??_floorf+2)^(0+1280),w,c
  4354   004A0A  103D               	iorwf	(??_floorf+3)^(0+1280),w,c
  4355   004A0C  A4D8               	btfss	status,2,c
  4356   004A0E  EF0B  F025         	goto	u6651
  4357   004A12  EF0D  F025         	goto	u6650
  4358   004A16                     u6651:
  4359   004A16  EF17  F025         	goto	l5981
  4360   004A1A                     u6650:
  4361   004A1A  0E00               	movlw	0
  4362   004A1C  6E46               	movwf	floorf@u^(0+1280),c
  4363   004A1E  0E00               	movlw	0
  4364   004A20  6E47               	movwf	(floorf@u+1)^(0+1280),c
  4365   004A22  0E00               	movlw	0
  4366   004A24  6E48               	movwf	(floorf@u+2)^(0+1280),c
  4367   004A26  0E00               	movlw	0
  4368   004A28  6E49               	movwf	(floorf@u+3)^(0+1280),c
  4369   004A2A  EF33  F025         	goto	l5985
  4370   004A2E                     l5981:
  4371   004A2E  90D8               	bcf	status,0,c
  4372   004A30  3446               	rlcf	floorf@u^(0+1280),w,c
  4373   004A32  6E3A               	movwf	??_floorf^(0+1280),c
  4374   004A34  3447               	rlcf	(floorf@u+1)^(0+1280),w,c
  4375   004A36  6E3B               	movwf	(??_floorf+1)^(0+1280),c
  4376   004A38  3448               	rlcf	(floorf@u+2)^(0+1280),w,c
  4377   004A3A  6E3C               	movwf	(??_floorf+2)^(0+1280),c
  4378   004A3C  3449               	rlcf	(floorf@u+3)^(0+1280),w,c
  4379   004A3E  6E3D               	movwf	(??_floorf+3)^(0+1280),c
  4380   004A40  503A               	movf	??_floorf^(0+1280),w,c
  4381   004A42  103B               	iorwf	(??_floorf+1)^(0+1280),w,c
  4382   004A44  103C               	iorwf	(??_floorf+2)^(0+1280),w,c
  4383   004A46  103D               	iorwf	(??_floorf+3)^(0+1280),w,c
  4384   004A48  B4D8               	btfsc	status,2,c
  4385   004A4A  EF29  F025         	goto	u6661
  4386   004A4E  EF2B  F025         	goto	u6660
  4387   004A52                     u6661:
  4388   004A52  EF33  F025         	goto	l5985
  4389   004A56                     u6660:
  4390   004A56  0E00               	movlw	0
  4391   004A58  6E46               	movwf	floorf@u^(0+1280),c
  4392   004A5A  0E00               	movlw	0
  4393   004A5C  6E47               	movwf	(floorf@u+1)^(0+1280),c
  4394   004A5E  0E80               	movlw	128
  4395   004A60  6E48               	movwf	(floorf@u+2)^(0+1280),c
  4396   004A62  0EBF               	movlw	191
  4397   004A64  6E49               	movwf	(floorf@u+3)^(0+1280),c
  4398   004A66                     l5985:
  4399   004A66  C546  F536         	movff	floorf@u,?_floorf
  4400   004A6A  C547  F537         	movff	floorf@u+1,?_floorf+1
  4401   004A6E  C548  F538         	movff	floorf@u+2,?_floorf+2
  4402   004A72  C549  F539         	movff	floorf@u+3,?_floorf+3
  4403   004A76                     l1563:
  4404   004A76  0012               	return		;funcret
  4405   004A78                     __end_of_floorf:
  4406                           	callstack 0
  4407                           
  4408 ;; *************** function ___fpclassifyf *****************
  4409 ;; Defined at:
  4410 ;;		line 4 in file "C:\Program Files\Microchip\xc8\v2.40\pic\sources\c99\common\__fpclassifyf.c"
  4411 ;; Parameters:    Size  Location     Type
  4412 ;;  x               4    2[COMRAM] float 
  4413 ;; Auto vars:     Size  Location     Type
  4414 ;;  u               4   12[COMRAM] struct .
  4415 ;;  e               2   10[COMRAM] int 
  4416 ;; Return value:  Size  Location     Type
  4417 ;;                  2    2[COMRAM] int 
  4418 ;; Registers used:
  4419 ;;		wreg, status,2, status,0
  4420 ;; Tracked objects:
  4421 ;;		On entry : 0/0
  4422 ;;		On exit  : 0/0
  4423 ;;		Unchanged: 0/0
  4424 ;; Data sizes:     COMRAM   BANK5   BANK6   BANK7   BANK8   BANK9  BANK10  BANK11  BANK12  BANK13  BANK14  BANK15  BANK1
      +6  BANK17  BANK18  BANK19  BANK20  BANK21  BANK22  BANK23  BANK24  BANK25  BANK26  BANK27  BANK28  BANK29  BANK30  BANK3
      +1  BANK32  BANK33  BANK34  BANK35  BANK36
  4425 ;;      Params:         4       0       0       0       0       0       0       0       0       0       0       0       
      +0       0       0       0       0       0       0       0       0       0       0       0       0       0       0       
      +0       0       0       0       0       0
  4426 ;;      Locals:         6       0       0       0       0       0       0       0       0       0       0       0       
      +0       0       0       0       0       0       0       0       0       0       0       0       0       0       0       
      +0       0       0       0       0       0
  4427 ;;      Temps:          4       0       0       0       0       0       0       0       0       0       0       0       
      +0       0       0       0       0       0       0       0       0       0       0       0       0       0       0       
      +0       0       0       0       0       0
  4428 ;;      Totals:        14       0       0       0       0       0       0       0       0       0       0       0       
      +0       0       0       0       0       0       0       0       0       0       0       0       0       0       0       
      +0       0       0       0       0       0
  4429 ;;Total ram usage:       14 bytes
  4430 ;; Hardware stack levels used: 1
  4431 ;; Hardware stack levels required when called: 4
  4432 ;; This function calls:
  4433 ;;		Nothing
  4434 ;; This function is called by:
  4435 ;;		_efgtoa
  4436 ;; This function uses a non-reentrant model
  4437 ;;
  4438                           
  4439                           	psect	text9
  4440   00538A                     __ptext9:
  4441                           	callstack 0
  4442   00538A                     ___fpclassifyf:
  4443                           	callstack 118
  4444   00538A  C5C5  F50D         	movff	___fpclassifyf@F465,___fpclassifyf@u
  4445   00538E  C5C6  F50E         	movff	___fpclassifyf@F465+1,___fpclassifyf@u+1
  4446   005392  C5C7  F50F         	movff	___fpclassifyf@F465+2,___fpclassifyf@u+2
  4447   005396  C5C8  F510         	movff	___fpclassifyf@F465+3,___fpclassifyf@u+3
  4448   00539A  C503  F50D         	movff	___fpclassifyf@x,___fpclassifyf@u
  4449   00539E  C504  F50E         	movff	___fpclassifyf@x+1,___fpclassifyf@u+1
  4450   0053A2  C505  F50F         	movff	___fpclassifyf@x+2,___fpclassifyf@u+2
  4451   0053A6  C506  F510         	movff	___fpclassifyf@x+3,___fpclassifyf@u+3
  4452   0053AA  C50D  F507         	movff	___fpclassifyf@u,??___fpclassifyf
  4453   0053AE  C50E  F508         	movff	___fpclassifyf@u+1,??___fpclassifyf+1
  4454   0053B2  C50F  F509         	movff	___fpclassifyf@u+2,??___fpclassifyf+2
  4455   0053B6  C510  F50A         	movff	___fpclassifyf@u+3,??___fpclassifyf+3
  4456   0053BA  0E18               	movlw	24
  4457   0053BC  EFE5  F029         	goto	u6480
  4458   0053C0                     u6485:
  4459   0053C0  90D8               	bcf	status,0,c
  4460   0053C2  320A               	rrcf	(??___fpclassifyf+3)^(0+1280),f,c
  4461   0053C4  3209               	rrcf	(??___fpclassifyf+2)^(0+1280),f,c
  4462   0053C6  3208               	rrcf	(??___fpclassifyf+1)^(0+1280),f,c
  4463   0053C8  3207               	rrcf	??___fpclassifyf^(0+1280),f,c
  4464   0053CA                     u6480:
  4465   0053CA  2EE8               	decfsz	wreg,f,c
  4466   0053CC  EFE0  F029         	goto	u6485
  4467   0053D0  5007               	movf	??___fpclassifyf^(0+1280),w,c
  4468   0053D2  6E0B               	movwf	___fpclassifyf@e^(0+1280),c
  4469   0053D4  6A0C               	clrf	(___fpclassifyf@e+1)^(0+1280),c
  4470   0053D6  500B               	movf	___fpclassifyf@e^(0+1280),w,c
  4471   0053D8  100C               	iorwf	(___fpclassifyf@e+1)^(0+1280),w,c
  4472   0053DA  A4D8               	btfss	status,2,c
  4473   0053DC  EFF2  F029         	goto	u6491
  4474   0053E0  EFF4  F029         	goto	u6490
  4475   0053E4                     u6491:
  4476   0053E4  EF14  F02A         	goto	l5943
  4477   0053E8                     u6490:
  4478   0053E8  90D8               	bcf	status,0,c
  4479   0053EA  340D               	rlcf	___fpclassifyf@u^(0+1280),w,c
  4480   0053EC  6E07               	movwf	??___fpclassifyf^(0+1280),c
  4481   0053EE  340E               	rlcf	(___fpclassifyf@u+1)^(0+1280),w,c
  4482   0053F0  6E08               	movwf	(??___fpclassifyf+1)^(0+1280),c
  4483   0053F2  340F               	rlcf	(___fpclassifyf@u+2)^(0+1280),w,c
  4484   0053F4  6E09               	movwf	(??___fpclassifyf+2)^(0+1280),c
  4485   0053F6  3410               	rlcf	(___fpclassifyf@u+3)^(0+1280),w,c
  4486   0053F8  6E0A               	movwf	(??___fpclassifyf+3)^(0+1280),c
  4487   0053FA  5007               	movf	??___fpclassifyf^(0+1280),w,c
  4488   0053FC  1008               	iorwf	(??___fpclassifyf+1)^(0+1280),w,c
  4489   0053FE  1009               	iorwf	(??___fpclassifyf+2)^(0+1280),w,c
  4490   005400  100A               	iorwf	(??___fpclassifyf+3)^(0+1280),w,c
  4491   005402  A4D8               	btfss	status,2,c
  4492   005404  EF06  F02A         	goto	u6501
  4493   005408  EF08  F02A         	goto	u6500
  4494   00540C                     u6501:
  4495   00540C  EF0E  F02A         	goto	l5939
  4496   005410                     u6500:
  4497   005410  0E00               	movlw	0
  4498   005412  6E04               	movwf	(?___fpclassifyf+1)^(0+1280),c
  4499   005414  0E02               	movlw	2
  4500   005416  6E03               	movwf	?___fpclassifyf^(0+1280),c
  4501   005418  EF43  F02A         	goto	l1524
  4502   00541C                     l5939:
  4503   00541C  0E00               	movlw	0
  4504   00541E  6E04               	movwf	(?___fpclassifyf+1)^(0+1280),c
  4505   005420  0E03               	movlw	3
  4506   005422  6E03               	movwf	?___fpclassifyf^(0+1280),c
  4507   005424  EF43  F02A         	goto	l1524
  4508   005428                     l5943:
  4509   005428  280B               	incf	___fpclassifyf@e^(0+1280),w,c
  4510   00542A  100C               	iorwf	(___fpclassifyf@e+1)^(0+1280),w,c
  4511   00542C  A4D8               	btfss	status,2,c
  4512   00542E  EF1B  F02A         	goto	u6511
  4513   005432  EF1D  F02A         	goto	u6510
  4514   005436                     u6511:
  4515   005436  EF3F  F02A         	goto	l5949
  4516   00543A                     u6510:
  4517   00543A  C50D  F507         	movff	___fpclassifyf@u,??___fpclassifyf
  4518   00543E  C50E  F508         	movff	___fpclassifyf@u+1,??___fpclassifyf+1
  4519   005442  C50F  F509         	movff	___fpclassifyf@u+2,??___fpclassifyf+2
  4520   005446  C510  F50A         	movff	___fpclassifyf@u+3,??___fpclassifyf+3
  4521   00544A  0E09               	movlw	9
  4522   00544C                     u6525:
  4523   00544C  90D8               	bcf	status,0,c
  4524   00544E  3607               	rlcf	??___fpclassifyf^(0+1280),f,c
  4525   005450  3608               	rlcf	(??___fpclassifyf+1)^(0+1280),f,c
  4526   005452  3609               	rlcf	(??___fpclassifyf+2)^(0+1280),f,c
  4527   005454  360A               	rlcf	(??___fpclassifyf+3)^(0+1280),f,c
  4528   005456  2EE8               	decfsz	wreg,f,c
  4529   005458  EF26  F02A         	goto	u6525
  4530   00545C  5007               	movf	??___fpclassifyf^(0+1280),w,c
  4531   00545E  1008               	iorwf	(??___fpclassifyf+1)^(0+1280),w,c
  4532   005460  1009               	iorwf	(??___fpclassifyf+2)^(0+1280),w,c
  4533   005462  100A               	iorwf	(??___fpclassifyf+3)^(0+1280),w,c
  4534   005464  B4D8               	btfsc	status,2,c
  4535   005466  EF37  F02A         	goto	u6531
  4536   00546A  EF3A  F02A         	goto	u6530
  4537   00546E                     u6531:
  4538   00546E  0E01               	movlw	1
  4539   005470  EF3B  F02A         	goto	u6540
  4540   005474                     u6530:
  4541   005474  0E00               	movlw	0
  4542   005476                     u6540:
  4543   005476  6E03               	movwf	?___fpclassifyf^(0+1280),c
  4544   005478  6A04               	clrf	(?___fpclassifyf+1)^(0+1280),c
  4545   00547A  EF43  F02A         	goto	l1524
  4546   00547E                     l5949:
  4547   00547E  0E00               	movlw	0
  4548   005480  6E04               	movwf	(?___fpclassifyf+1)^(0+1280),c
  4549   005482  0E04               	movlw	4
  4550   005484  6E03               	movwf	?___fpclassifyf^(0+1280),c
  4551   005486                     l1524:
  4552   005486  0012               	return		;funcret
  4553   005488                     __end_of___fpclassifyf:
  4554                           	callstack 0
  4555                           
  4556 ;; *************** function ___fltol *****************
  4557 ;; Defined at:
  4558 ;;		line 43 in file "C:\Program Files\Microchip\xc8\v2.40\pic\sources\c99\common\fltol.c"
  4559 ;; Parameters:    Size  Location     Type
  4560 ;;  f1              4    2[COMRAM] int 
  4561 ;; Auto vars:     Size  Location     Type
  4562 ;;  exp1            1   11[COMRAM] unsigned char 
  4563 ;;  sign1           1   10[COMRAM] unsigned char 
  4564 ;; Return value:  Size  Location     Type
  4565 ;;                  4    2[COMRAM] long 
  4566 ;; Registers used:
  4567 ;;		wreg, status,2, status,0
  4568 ;; Tracked objects:
  4569 ;;		On entry : 0/0
  4570 ;;		On exit  : 0/0
  4571 ;;		Unchanged: 0/0
  4572 ;; Data sizes:     COMRAM   BANK5   BANK6   BANK7   BANK8   BANK9  BANK10  BANK11  BANK12  BANK13  BANK14  BANK15  BANK1
      +6  BANK17  BANK18  BANK19  BANK20  BANK21  BANK22  BANK23  BANK24  BANK25  BANK26  BANK27  BANK28  BANK29  BANK30  BANK3
      +1  BANK32  BANK33  BANK34  BANK35  BANK36
  4573 ;;      Params:         4       0       0       0       0       0       0       0       0       0       0       0       
      +0       0       0       0       0       0       0       0       0       0       0       0       0       0       0       
      +0       0       0       0       0       0
  4574 ;;      Locals:         2       0       0       0       0       0       0       0       0       0       0       0       
      +0       0       0       0       0       0       0       0       0       0       0       0       0       0       0       
      +0       0       0       0       0       0
  4575 ;;      Temps:          4       0       0       0       0       0       0       0       0       0       0       0       
      +0       0       0       0       0       0       0       0       0       0       0       0       0       0       0       
      +0       0       0       0       0       0
  4576 ;;      Totals:        10       0       0       0       0       0       0       0       0       0       0       0       
      +0       0       0       0       0       0       0       0       0       0       0       0       0       0       0       
      +0       0       0       0       0       0
  4577 ;;Total ram usage:       10 bytes
  4578 ;; Hardware stack levels used: 1
  4579 ;; Hardware stack levels required when called: 4
  4580 ;; This function calls:
  4581 ;;		Nothing
  4582 ;; This function is called by:
  4583 ;;		_efgtoa
  4584 ;; This function uses a non-reentrant model
  4585 ;;
  4586                           
  4587                           	psect	text10
  4588   005180                     __ptext10:
  4589                           	callstack 0
  4590   005180                     ___fltol:
  4591                           	callstack 118
  4592   005180  3405               	rlcf	(___fltol@f1+2)^(0+1280),w,c
  4593   005182  3406               	rlcf	(___fltol@f1+3)^(0+1280),w,c
  4594   005184  6E0C               	movwf	___fltol@exp1^(0+1280),c
  4595   005186  500C               	movf	___fltol@exp1^(0+1280),w,c
  4596   005188  A4D8               	btfss	status,2,c
  4597   00518A  EFC9  F028         	goto	u6361
  4598   00518E  EFCB  F028         	goto	u6360
  4599   005192                     u6361:
  4600   005192  EFD5  F028         	goto	l5871
  4601   005196                     u6360:
  4602   005196                     l5867:
  4603   005196  0E00               	movlw	0
  4604   005198  6E03               	movwf	?___fltol^(0+1280),c
  4605   00519A  0E00               	movlw	0
  4606   00519C  6E04               	movwf	(?___fltol+1)^(0+1280),c
  4607   00519E  0E00               	movlw	0
  4608   0051A0  6E05               	movwf	(?___fltol+2)^(0+1280),c
  4609   0051A2  0E00               	movlw	0
  4610   0051A4  6E06               	movwf	(?___fltol+3)^(0+1280),c
  4611   0051A6  EF42  F029         	goto	l959
  4612   0051AA                     l5871:
  4613   0051AA  C503  F507         	movff	___fltol@f1,??___fltol
  4614   0051AE  C504  F508         	movff	___fltol@f1+1,??___fltol+1
  4615   0051B2  C505  F509         	movff	___fltol@f1+2,??___fltol+2
  4616   0051B6  C506  F50A         	movff	___fltol@f1+3,??___fltol+3
  4617   0051BA  0E20               	movlw	32
  4618   0051BC  EFE5  F028         	goto	u6370
  4619   0051C0                     u6375:
  4620   0051C0  90D8               	bcf	status,0,c
  4621   0051C2  320A               	rrcf	(??___fltol+3)^(0+1280),f,c
  4622   0051C4  3209               	rrcf	(??___fltol+2)^(0+1280),f,c
  4623   0051C6  3208               	rrcf	(??___fltol+1)^(0+1280),f,c
  4624   0051C8  3207               	rrcf	??___fltol^(0+1280),f,c
  4625   0051CA                     u6370:
  4626   0051CA  2EE8               	decfsz	wreg,f,c
  4627   0051CC  EFE0  F028         	goto	u6375
  4628   0051D0  5007               	movf	??___fltol^(0+1280),w,c
  4629   0051D2  6E0B               	movwf	___fltol@sign1^(0+1280),c
  4630   0051D4  8E05               	bsf	(___fltol@f1+2)^(0+1280),7,c
  4631   0051D6  0EFF               	movlw	255
  4632   0051D8  1603               	andwf	___fltol@f1^(0+1280),f,c
  4633   0051DA  0EFF               	movlw	255
  4634   0051DC  1604               	andwf	(___fltol@f1+1)^(0+1280),f,c
  4635   0051DE  0EFF               	movlw	255
  4636   0051E0  1605               	andwf	(___fltol@f1+2)^(0+1280),f,c
  4637   0051E2  0E00               	movlw	0
  4638   0051E4  1606               	andwf	(___fltol@f1+3)^(0+1280),f,c
  4639   0051E6  0E96               	movlw	150
  4640   0051E8  5E0C               	subwf	___fltol@exp1^(0+1280),f,c
  4641   0051EA  BE0C               	btfsc	___fltol@exp1^(0+1280),7,c
  4642   0051EC  EFFC  F028         	goto	u6380
  4643   0051F0  EFFA  F028         	goto	u6381
  4644   0051F4                     u6381:
  4645   0051F4  EF12  F029         	goto	l5891
  4646   0051F8                     u6380:
  4647   0051F8  500C               	movf	___fltol@exp1^(0+1280),w,c
  4648   0051FA  0A80               	xorlw	128
  4649   0051FC  0F97               	addlw	151
  4650   0051FE  B0D8               	btfsc	status,0,c
  4651   005200  EF04  F029         	goto	u6391
  4652   005204  EF06  F029         	goto	u6390
  4653   005208                     u6391:
  4654   005208  EF08  F029         	goto	l5887
  4655   00520C                     u6390:
  4656   00520C  EFCB  F028         	goto	l5867
  4657   005210                     l5887:
  4658   005210  90D8               	bcf	status,0,c
  4659   005212  3206               	rrcf	(___fltol@f1+3)^(0+1280),f,c
  4660   005214  3205               	rrcf	(___fltol@f1+2)^(0+1280),f,c
  4661   005216  3204               	rrcf	(___fltol@f1+1)^(0+1280),f,c
  4662   005218  3203               	rrcf	___fltol@f1^(0+1280),f,c
  4663   00521A  3E0C               	incfsz	___fltol@exp1^(0+1280),f,c
  4664   00521C  EF08  F029         	goto	l5887
  4665   005220  EF2A  F029         	goto	l5901
  4666   005224                     l5891:
  4667   005224  0E1F               	movlw	31
  4668   005226  640C               	cpfsgt	___fltol@exp1^(0+1280),c
  4669   005228  EF18  F029         	goto	u6401
  4670   00522C  EF1A  F029         	goto	u6400
  4671   005230                     u6401:
  4672   005230  EF22  F029         	goto	l5899
  4673   005234                     u6400:
  4674   005234  EFCB  F028         	goto	l5867
  4675   005238                     l5897:
  4676   005238  90D8               	bcf	status,0,c
  4677   00523A  3603               	rlcf	___fltol@f1^(0+1280),f,c
  4678   00523C  3604               	rlcf	(___fltol@f1+1)^(0+1280),f,c
  4679   00523E  3605               	rlcf	(___fltol@f1+2)^(0+1280),f,c
  4680   005240  3606               	rlcf	(___fltol@f1+3)^(0+1280),f,c
  4681   005242  060C               	decf	___fltol@exp1^(0+1280),f,c
  4682   005244                     l5899:
  4683   005244  500C               	movf	___fltol@exp1^(0+1280),w,c
  4684   005246  A4D8               	btfss	status,2,c
  4685   005248  EF28  F029         	goto	u6411
  4686   00524C  EF2A  F029         	goto	u6410
  4687   005250                     u6411:
  4688   005250  EF1C  F029         	goto	l5897
  4689   005254                     u6410:
  4690   005254                     l5901:
  4691   005254  500B               	movf	___fltol@sign1^(0+1280),w,c
  4692   005256  B4D8               	btfsc	status,2,c
  4693   005258  EF30  F029         	goto	u6421
  4694   00525C  EF32  F029         	goto	u6420
  4695   005260                     u6421:
  4696   005260  EF3A  F029         	goto	l5905
  4697   005264                     u6420:
  4698   005264  1E06               	comf	(___fltol@f1+3)^(0+1280),f,c
  4699   005266  1E05               	comf	(___fltol@f1+2)^(0+1280),f,c
  4700   005268  1E04               	comf	(___fltol@f1+1)^(0+1280),f,c
  4701   00526A  6C03               	negf	___fltol@f1^(0+1280),c
  4702   00526C  0E00               	movlw	0
  4703   00526E  2204               	addwfc	(___fltol@f1+1)^(0+1280),f,c
  4704   005270  2205               	addwfc	(___fltol@f1+2)^(0+1280),f,c
  4705   005272  2206               	addwfc	(___fltol@f1+3)^(0+1280),f,c
  4706   005274                     l5905:
  4707   005274  C503  F503         	movff	___fltol@f1,?___fltol
  4708   005278  C504  F504         	movff	___fltol@f1+1,?___fltol+1
  4709   00527C  C505  F505         	movff	___fltol@f1+2,?___fltol+2
  4710   005280  C506  F506         	movff	___fltol@f1+3,?___fltol+3
  4711   005284                     l959:
  4712   005284  0012               	return		;funcret
  4713   005286                     __end_of___fltol:
  4714                           	callstack 0
  4715                           
  4716 ;; *************** function ___flsub *****************
  4717 ;; Defined at:
  4718 ;;		line 245 in file "C:\Program Files\Microchip\xc8\v2.40\pic\sources\c99\common\sprcadd.c"
  4719 ;; Parameters:    Size  Location     Type
  4720 ;;  b               4   53[COMRAM] long 
  4721 ;;  a               4   57[COMRAM] long 
  4722 ;; Auto vars:     Size  Location     Type
  4723 ;;		None
  4724 ;; Return value:  Size  Location     Type
  4725 ;;                  4   53[COMRAM] long 
  4726 ;; Registers used:
  4727 ;;		wreg, status,2, status,0, cstack
  4728 ;; Tracked objects:
  4729 ;;		On entry : 0/0
  4730 ;;		On exit  : 0/0
  4731 ;;		Unchanged: 0/0
  4732 ;; Data sizes:     COMRAM   BANK5   BANK6   BANK7   BANK8   BANK9  BANK10  BANK11  BANK12  BANK13  BANK14  BANK15  BANK1
      +6  BANK17  BANK18  BANK19  BANK20  BANK21  BANK22  BANK23  BANK24  BANK25  BANK26  BANK27  BANK28  BANK29  BANK30  BANK3
      +1  BANK32  BANK33  BANK34  BANK35  BANK36
  4733 ;;      Params:         8       0       0       0       0       0       0       0       0       0       0       0       
      +0       0       0       0       0       0       0       0       0       0       0       0       0       0       0       
      +0       0       0       0       0       0
  4734 ;;      Locals:         0       0       0       0       0       0       0       0       0       0       0       0       
      +0       0       0       0       0       0       0       0       0       0       0       0       0       0       0       
      +0       0       0       0       0       0
  4735 ;;      Temps:          0       0       0       0       0       0       0       0       0       0       0       0       
      +0       0       0       0       0       0       0       0       0       0       0       0       0       0       0       
      +0       0       0       0       0       0
  4736 ;;      Totals:         8       0       0       0       0       0       0       0       0       0       0       0       
      +0       0       0       0       0       0       0       0       0       0       0       0       0       0       0       
      +0       0       0       0       0       0
  4737 ;;Total ram usage:        8 bytes
  4738 ;; Hardware stack levels used: 1
  4739 ;; Hardware stack levels required when called: 5
  4740 ;; This function calls:
  4741 ;;		___fladd
  4742 ;; This function is called by:
  4743 ;;		_efgtoa
  4744 ;; This function uses a non-reentrant model
  4745 ;;
  4746                           
  4747                           	psect	text11
  4748   005A3E                     __ptext11:
  4749                           	callstack 0
  4750   005A3E                     ___flsub:
  4751                           	callstack 117
  4752   005A3E  0E00               	movlw	0
  4753   005A40  1A3A               	xorwf	___flsub@a^(0+1280),f,c
  4754   005A42  0E00               	movlw	0
  4755   005A44  1A3B               	xorwf	(___flsub@a+1)^(0+1280),f,c
  4756   005A46  0E00               	movlw	0
  4757   005A48  1A3C               	xorwf	(___flsub@a+2)^(0+1280),f,c
  4758   005A4A  0E80               	movlw	128
  4759   005A4C  1A3D               	xorwf	(___flsub@a+3)^(0+1280),f,c
  4760   005A4E  C536  F503         	movff	___flsub@b,___fladd@b
  4761   005A52  C537  F504         	movff	___flsub@b+1,___fladd@b+1
  4762   005A56  C538  F505         	movff	___flsub@b+2,___fladd@b+2
  4763   005A5A  C539  F506         	movff	___flsub@b+3,___fladd@b+3
  4764   005A5E  C53A  F507         	movff	___flsub@a,___fladd@a
  4765   005A62  C53B  F508         	movff	___flsub@a+1,___fladd@a+1
  4766   005A66  C53C  F509         	movff	___flsub@a+2,___fladd@a+2
  4767   005A6A  C53D  F50A         	movff	___flsub@a+3,___fladd@a+3
  4768   005A6E  EC18  F01B         	call	___fladd	;wreg free
  4769   005A72  C503  F536         	movff	?___fladd,?___flsub
  4770   005A76  C504  F537         	movff	?___fladd+1,?___flsub+1
  4771   005A7A  C505  F538         	movff	?___fladd+2,?___flsub+2
  4772   005A7E  C506  F539         	movff	?___fladd+3,?___flsub+3
  4773   005A82  0012               	return		;funcret
  4774   005A84                     __end_of___flsub:
  4775                           	callstack 0
  4776                           
  4777 ;; *************** function ___fladd *****************
  4778 ;; Defined at:
  4779 ;;		line 10 in file "C:\Program Files\Microchip\xc8\v2.40\pic\sources\c99\common\sprcadd.c"
  4780 ;; Parameters:    Size  Location     Type
  4781 ;;  b               4    2[COMRAM] long 
  4782 ;;  a               4    6[COMRAM] long 
  4783 ;; Auto vars:     Size  Location     Type
  4784 ;;  grs             1   17[COMRAM] unsigned char 
  4785 ;;  bexp            1   16[COMRAM] unsigned char 
  4786 ;;  aexp            1   15[COMRAM] unsigned char 
  4787 ;;  signs           1   14[COMRAM] unsigned char 
  4788 ;; Return value:  Size  Location     Type
  4789 ;;                  4    2[COMRAM] unsigned char 
  4790 ;; Registers used:
  4791 ;;		wreg, status,2, status,0
  4792 ;; Tracked objects:
  4793 ;;		On entry : 0/0
  4794 ;;		On exit  : 0/0
  4795 ;;		Unchanged: 0/0
  4796 ;; Data sizes:     COMRAM   BANK5   BANK6   BANK7   BANK8   BANK9  BANK10  BANK11  BANK12  BANK13  BANK14  BANK15  BANK1
      +6  BANK17  BANK18  BANK19  BANK20  BANK21  BANK22  BANK23  BANK24  BANK25  BANK26  BANK27  BANK28  BANK29  BANK30  BANK3
      +1  BANK32  BANK33  BANK34  BANK35  BANK36
  4797 ;;      Params:         8       0       0       0       0       0       0       0       0       0       0       0       
      +0       0       0       0       0       0       0       0       0       0       0       0       0       0       0       
      +0       0       0       0       0       0
  4798 ;;      Locals:         4       0       0       0       0       0       0       0       0       0       0       0       
      +0       0       0       0       0       0       0       0       0       0       0       0       0       0       0       
      +0       0       0       0       0       0
  4799 ;;      Temps:          4       0       0       0       0       0       0       0       0       0       0       0       
      +0       0       0       0       0       0       0       0       0       0       0       0       0       0       0       
      +0       0       0       0       0       0
  4800 ;;      Totals:        16       0       0       0       0       0       0       0       0       0       0       0       
      +0       0       0       0       0       0       0       0       0       0       0       0       0       0       0       
      +0       0       0       0       0       0
  4801 ;;Total ram usage:       16 bytes
  4802 ;; Hardware stack levels used: 1
  4803 ;; Hardware stack levels required when called: 4
  4804 ;; This function calls:
  4805 ;;		Nothing
  4806 ;; This function is called by:
  4807 ;;		___flsub
  4808 ;;		_efgtoa
  4809 ;; This function uses a non-reentrant model
  4810 ;;
  4811                           
  4812                           	psect	text12
  4813   003630                     __ptext12:
  4814                           	callstack 0
  4815   003630                     ___fladd:
  4816                           	callstack 117
  4817   003630  5006               	movf	(___fladd@b+3)^(0+1280),w,c
  4818   003632  0B80               	andlw	128
  4819   003634  6E0F               	movwf	___fladd@signs^(0+1280),c
  4820   003636  5006               	movf	(___fladd@b+3)^(0+1280),w,c
  4821   003638  2406               	addwf	(___fladd@b+3)^(0+1280),w,c
  4822   00363A  6E11               	movwf	___fladd@bexp^(0+1280),c
  4823   00363C  AE05               	btfss	(___fladd@b+2)^(0+1280),7,c
  4824   00363E  EF23  F01B         	goto	u5321
  4825   003642  EF25  F01B         	goto	u5320
  4826   003646                     u5321:
  4827   003646  EF26  F01B         	goto	l5255
  4828   00364A                     u5320:
  4829   00364A  8011               	bsf	___fladd@bexp^(0+1280),0,c
  4830   00364C                     l5255:
  4831   00364C  5011               	movf	___fladd@bexp^(0+1280),w,c
  4832   00364E  B4D8               	btfsc	status,2,c
  4833   003650  EF2C  F01B         	goto	u5331
  4834   003654  EF2E  F01B         	goto	u5330
  4835   003658                     u5331:
  4836   003658  EF43  F01B         	goto	l5265
  4837   00365C                     u5330:
  4838   00365C  2811               	incf	___fladd@bexp^(0+1280),w,c
  4839   00365E  A4D8               	btfss	status,2,c
  4840   003660  EF34  F01B         	goto	u5341
  4841   003664  EF36  F01B         	goto	u5340
  4842   003668                     u5341:
  4843   003668  EF3E  F01B         	goto	l5261
  4844   00366C                     u5340:
  4845   00366C  0E00               	movlw	0
  4846   00366E  6E03               	movwf	___fladd@b^(0+1280),c
  4847   003670  0E00               	movlw	0
  4848   003672  6E04               	movwf	(___fladd@b+1)^(0+1280),c
  4849   003674  0E00               	movlw	0
  4850   003676  6E05               	movwf	(___fladd@b+2)^(0+1280),c
  4851   003678  0E00               	movlw	0
  4852   00367A  6E06               	movwf	(___fladd@b+3)^(0+1280),c
  4853   00367C                     l5261:
  4854   00367C  8E05               	bsf	(___fladd@b+2)^(0+1280),7,c
  4855   00367E  0E00               	movlw	0
  4856   003680  6E06               	movwf	(___fladd@b+3)^(0+1280),c
  4857   003682  EF4B  F01B         	goto	l5267
  4858   003686                     l5265:
  4859   003686  0E00               	movlw	0
  4860   003688  6E03               	movwf	___fladd@b^(0+1280),c
  4861   00368A  0E00               	movlw	0
  4862   00368C  6E04               	movwf	(___fladd@b+1)^(0+1280),c
  4863   00368E  0E00               	movlw	0
  4864   003690  6E05               	movwf	(___fladd@b+2)^(0+1280),c
  4865   003692  0E00               	movlw	0
  4866   003694  6E06               	movwf	(___fladd@b+3)^(0+1280),c
  4867   003696                     l5267:
  4868   003696  500A               	movf	(___fladd@a+3)^(0+1280),w,c
  4869   003698  0B80               	andlw	128
  4870   00369A  6E10               	movwf	___fladd@aexp^(0+1280),c
  4871   00369C  500F               	movf	___fladd@signs^(0+1280),w,c
  4872   00369E  1810               	xorwf	___fladd@aexp^(0+1280),w,c
  4873   0036A0  B4D8               	btfsc	status,2,c
  4874   0036A2  EF55  F01B         	goto	u5351
  4875   0036A6  EF57  F01B         	goto	u5350
  4876   0036AA                     u5351:
  4877   0036AA  EF58  F01B         	goto	l5273
  4878   0036AE                     u5350:
  4879   0036AE  8C0F               	bsf	___fladd@signs^(0+1280),6,c
  4880   0036B0                     l5273:
  4881   0036B0  500A               	movf	(___fladd@a+3)^(0+1280),w,c
  4882   0036B2  240A               	addwf	(___fladd@a+3)^(0+1280),w,c
  4883   0036B4  6E10               	movwf	___fladd@aexp^(0+1280),c
  4884   0036B6  AE09               	btfss	(___fladd@a+2)^(0+1280),7,c
  4885   0036B8  EF60  F01B         	goto	u5361
  4886   0036BC  EF62  F01B         	goto	u5360
  4887   0036C0                     u5361:
  4888   0036C0  EF63  F01B         	goto	l5279
  4889   0036C4                     u5360:
  4890   0036C4  8010               	bsf	___fladd@aexp^(0+1280),0,c
  4891   0036C6                     l5279:
  4892   0036C6  5010               	movf	___fladd@aexp^(0+1280),w,c
  4893   0036C8  B4D8               	btfsc	status,2,c
  4894   0036CA  EF69  F01B         	goto	u5371
  4895   0036CE  EF6B  F01B         	goto	u5370
  4896   0036D2                     u5371:
  4897   0036D2  EF80  F01B         	goto	l5289
  4898   0036D6                     u5370:
  4899   0036D6  2810               	incf	___fladd@aexp^(0+1280),w,c
  4900   0036D8  A4D8               	btfss	status,2,c
  4901   0036DA  EF71  F01B         	goto	u5381
  4902   0036DE  EF73  F01B         	goto	u5380
  4903   0036E2                     u5381:
  4904   0036E2  EF7B  F01B         	goto	l5285
  4905   0036E6                     u5380:
  4906   0036E6  0E00               	movlw	0
  4907   0036E8  6E07               	movwf	___fladd@a^(0+1280),c
  4908   0036EA  0E00               	movlw	0
  4909   0036EC  6E08               	movwf	(___fladd@a+1)^(0+1280),c
  4910   0036EE  0E00               	movlw	0
  4911   0036F0  6E09               	movwf	(___fladd@a+2)^(0+1280),c
  4912   0036F2  0E00               	movlw	0
  4913   0036F4  6E0A               	movwf	(___fladd@a+3)^(0+1280),c
  4914   0036F6                     l5285:
  4915   0036F6  8E09               	bsf	(___fladd@a+2)^(0+1280),7,c
  4916   0036F8  0E00               	movlw	0
  4917   0036FA  6E0A               	movwf	(___fladd@a+3)^(0+1280),c
  4918   0036FC  EF88  F01B         	goto	l5291
  4919   003700                     l5289:
  4920   003700  0E00               	movlw	0
  4921   003702  6E07               	movwf	___fladd@a^(0+1280),c
  4922   003704  0E00               	movlw	0
  4923   003706  6E08               	movwf	(___fladd@a+1)^(0+1280),c
  4924   003708  0E00               	movlw	0
  4925   00370A  6E09               	movwf	(___fladd@a+2)^(0+1280),c
  4926   00370C  0E00               	movlw	0
  4927   00370E  6E0A               	movwf	(___fladd@a+3)^(0+1280),c
  4928   003710                     l5291:
  4929   003710  5011               	movf	___fladd@bexp^(0+1280),w,c
  4930   003712  5C10               	subwf	___fladd@aexp^(0+1280),w,c
  4931   003714  B0D8               	btfsc	status,0,c
  4932   003716  EF8F  F01B         	goto	u5391
  4933   00371A  EF91  F01B         	goto	u5390
  4934   00371E                     u5391:
  4935   00371E  EFB8  F01B         	goto	l5327
  4936   003722                     u5390:
  4937   003722  AC0F               	btfss	___fladd@signs^(0+1280),6,c
  4938   003724  EF96  F01B         	goto	u5401
  4939   003728  EF98  F01B         	goto	u5400
  4940   00372C                     u5401:
  4941   00372C  EF9A  F01B         	goto	l5297
  4942   003730                     u5400:
  4943   003730  0E80               	movlw	128
  4944   003732  1A0F               	xorwf	___fladd@signs^(0+1280),f,c
  4945   003734                     l5297:
  4946   003734  C511  F512         	movff	___fladd@bexp,___fladd@grs
  4947   003738  C510  F511         	movff	___fladd@aexp,___fladd@bexp
  4948   00373C  C512  F510         	movff	___fladd@grs,___fladd@aexp
  4949   003740  C503  F512         	movff	___fladd@b,___fladd@grs
  4950   003744  C507  F503         	movff	___fladd@a,___fladd@b
  4951   003748  C512  F507         	movff	___fladd@grs,___fladd@a
  4952   00374C  C504  F512         	movff	___fladd@b+1,___fladd@grs
  4953   003750  C508  F504         	movff	___fladd@a+1,___fladd@b+1
  4954   003754  C512  F508         	movff	___fladd@grs,___fladd@a+1
  4955   003758  C505  F512         	movff	___fladd@b+2,___fladd@grs
  4956   00375C  C509  F505         	movff	___fladd@a+2,___fladd@b+2
  4957   003760  C512  F509         	movff	___fladd@grs,___fladd@a+2
  4958   003764  C506  F512         	movff	___fladd@b+3,___fladd@grs
  4959   003768  C50A  F506         	movff	___fladd@a+3,___fladd@b+3
  4960   00376C  C512  F50A         	movff	___fladd@grs,___fladd@a+3
  4961   003770                     l5327:
  4962   003770  0E00               	movlw	0
  4963   003772  6E12               	movwf	___fladd@grs^(0+1280),c
  4964   003774  5011               	movf	___fladd@bexp^(0+1280),w,c
  4965   003776  C510  F50B         	movff	___fladd@aexp,??___fladd
  4966   00377A  6A0C               	clrf	(??___fladd+1)^(0+1280),c
  4967   00377C  5E0B               	subwf	??___fladd^(0+1280),f,c
  4968   00377E  0E00               	movlw	0
  4969   003780  5A0C               	subwfb	(??___fladd+1)^(0+1280),f,c
  4970   003782  BE0C               	btfsc	(??___fladd+1)^(0+1280),7,c
  4971   003784  EFCD  F01B         	goto	u5411
  4972   003788  500C               	movf	(??___fladd+1)^(0+1280),w,c
  4973   00378A  E109               	bnz	u5410
  4974   00378C  0E1A               	movlw	26
  4975   00378E  5C0B               	subwf	??___fladd^(0+1280),w,c
  4976   003790  A0D8               	btfss	status,0,c
  4977   003792  EFCD  F01B         	goto	u5411
  4978   003796  EFCF  F01B         	goto	u5410
  4979   00379A                     u5411:
  4980   00379A  EF06  F01C         	goto	l1191
  4981   00379E                     u5410:
  4982   00379E  5003               	movf	___fladd@b^(0+1280),w,c
  4983   0037A0  1004               	iorwf	(___fladd@b+1)^(0+1280),w,c
  4984   0037A2  1005               	iorwf	(___fladd@b+2)^(0+1280),w,c
  4985   0037A4  1006               	iorwf	(___fladd@b+3)^(0+1280),w,c
  4986   0037A6  A4D8               	btfss	status,2,c
  4987   0037A8  EFD8  F01B         	goto	u5421
  4988   0037AC  EFDB  F01B         	goto	u5420
  4989   0037B0                     u5421:
  4990   0037B0  0E01               	movlw	1
  4991   0037B2  EFDC  F01B         	goto	u5430
  4992   0037B6                     u5420:
  4993   0037B6  0E00               	movlw	0
  4994   0037B8                     u5430:
  4995   0037B8  6E12               	movwf	___fladd@grs^(0+1280),c
  4996   0037BA  0E00               	movlw	0
  4997   0037BC  6E03               	movwf	___fladd@b^(0+1280),c
  4998   0037BE  0E00               	movlw	0
  4999   0037C0  6E04               	movwf	(___fladd@b+1)^(0+1280),c
  5000   0037C2  0E00               	movlw	0
  5001   0037C4  6E05               	movwf	(___fladd@b+2)^(0+1280),c
  5002   0037C6  0E00               	movlw	0
  5003   0037C8  6E06               	movwf	(___fladd@b+3)^(0+1280),c
  5004   0037CA  C510  F511         	movff	___fladd@aexp,___fladd@bexp
  5005   0037CE  EF0F  F01C         	goto	l1190
  5006   0037D2                     l1192:
  5007   0037D2  A012               	btfss	___fladd@grs^(0+1280),0,c
  5008   0037D4  EFEE  F01B         	goto	u5441
  5009   0037D8  EFF0  F01B         	goto	u5440
  5010   0037DC                     u5441:
  5011   0037DC  EFF6  F01B         	goto	l5339
  5012   0037E0                     u5440:
  5013   0037E0  90D8               	bcf	status,0,c
  5014   0037E2  3012               	rrcf	___fladd@grs^(0+1280),w,c
  5015   0037E4  0901               	iorlw	1
  5016   0037E6  6E12               	movwf	___fladd@grs^(0+1280),c
  5017   0037E8  EFF8  F01B         	goto	l5341
  5018   0037EC                     l5339:
  5019   0037EC  90D8               	bcf	status,0,c
  5020   0037EE  3212               	rrcf	___fladd@grs^(0+1280),f,c
  5021   0037F0                     l5341:
  5022   0037F0  A003               	btfss	___fladd@b^(0+1280),0,c
  5023   0037F2  EFFD  F01B         	goto	u5451
  5024   0037F6  EFFF  F01B         	goto	u5450
  5025   0037FA                     u5451:
  5026   0037FA  EF00  F01C         	goto	l5345
  5027   0037FE                     u5450:
  5028   0037FE  8E12               	bsf	___fladd@grs^(0+1280),7,c
  5029   003800                     l5345:
  5030   003800  3406               	rlcf	(___fladd@b+3)^(0+1280),w,c
  5031   003802  3206               	rrcf	(___fladd@b+3)^(0+1280),f,c
  5032   003804  3205               	rrcf	(___fladd@b+2)^(0+1280),f,c
  5033   003806  3204               	rrcf	(___fladd@b+1)^(0+1280),f,c
  5034   003808  3203               	rrcf	___fladd@b^(0+1280),f,c
  5035   00380A  2A11               	incf	___fladd@bexp^(0+1280),f,c
  5036   00380C                     l1191:
  5037   00380C  5010               	movf	___fladd@aexp^(0+1280),w,c
  5038   00380E  5C11               	subwf	___fladd@bexp^(0+1280),w,c
  5039   003810  A0D8               	btfss	status,0,c
  5040   003812  EF0D  F01C         	goto	u5461
  5041   003816  EF0F  F01C         	goto	u5460
  5042   00381A                     u5461:
  5043   00381A  EFE9  F01B         	goto	l1192
  5044   00381E                     u5460:
  5045   00381E                     l1190:
  5046   00381E  BC0F               	btfsc	___fladd@signs^(0+1280),6,c
  5047   003820  EF14  F01C         	goto	u5471
  5048   003824  EF16  F01C         	goto	u5470
  5049   003828                     u5471:
  5050   003828  EF56  F01C         	goto	l5373
  5051   00382C                     u5470:
  5052   00382C  5011               	movf	___fladd@bexp^(0+1280),w,c
  5053   00382E  A4D8               	btfss	status,2,c
  5054   003830  EF1C  F01C         	goto	u5481
  5055   003834  EF1E  F01C         	goto	u5480
  5056   003838                     u5481:
  5057   003838  EF28  F01C         	goto	l5355
  5058   00383C                     u5480:
  5059   00383C  0E00               	movlw	0
  5060   00383E  6E03               	movwf	?___fladd^(0+1280),c
  5061   003840  0E00               	movlw	0
  5062   003842  6E04               	movwf	(?___fladd+1)^(0+1280),c
  5063   003844  0E00               	movlw	0
  5064   003846  6E05               	movwf	(?___fladd+2)^(0+1280),c
  5065   003848  0E00               	movlw	0
  5066   00384A  6E06               	movwf	(?___fladd+3)^(0+1280),c
  5067   00384C  EF77  F01D         	goto	l1199
  5068   003850                     l5355:
  5069   003850  5007               	movf	___fladd@a^(0+1280),w,c
  5070   003852  2603               	addwf	___fladd@b^(0+1280),f,c
  5071   003854  5008               	movf	(___fladd@a+1)^(0+1280),w,c
  5072   003856  2204               	addwfc	(___fladd@b+1)^(0+1280),f,c
  5073   003858  5009               	movf	(___fladd@a+2)^(0+1280),w,c
  5074   00385A  2205               	addwfc	(___fladd@b+2)^(0+1280),f,c
  5075   00385C  500A               	movf	(___fladd@a+3)^(0+1280),w,c
  5076   00385E  2206               	addwfc	(___fladd@b+3)^(0+1280),f,c
  5077   003860  A006               	btfss	(___fladd@b+3)^(0+1280),0,c
  5078   003862  EF35  F01C         	goto	u5491
  5079   003866  EF37  F01C         	goto	u5490
  5080   00386A                     u5491:
  5081   00386A  EFE3  F01C         	goto	l5409
  5082   00386E                     u5490:
  5083   00386E  A012               	btfss	___fladd@grs^(0+1280),0,c
  5084   003870  EF3C  F01C         	goto	u5501
  5085   003874  EF3E  F01C         	goto	u5500
  5086   003878                     u5501:
  5087   003878  EF44  F01C         	goto	l5363
  5088   00387C                     u5500:
  5089   00387C  90D8               	bcf	status,0,c
  5090   00387E  3012               	rrcf	___fladd@grs^(0+1280),w,c
  5091   003880  0901               	iorlw	1
  5092   003882  6E12               	movwf	___fladd@grs^(0+1280),c
  5093   003884  EF46  F01C         	goto	l5365
  5094   003888                     l5363:
  5095   003888  90D8               	bcf	status,0,c
  5096   00388A  3212               	rrcf	___fladd@grs^(0+1280),f,c
  5097   00388C                     l5365:
  5098   00388C  A003               	btfss	___fladd@b^(0+1280),0,c
  5099   00388E  EF4B  F01C         	goto	u5511
  5100   003892  EF4D  F01C         	goto	u5510
  5101   003896                     u5511:
  5102   003896  EF4E  F01C         	goto	l5369
  5103   00389A                     u5510:
  5104   00389A  8E12               	bsf	___fladd@grs^(0+1280),7,c
  5105   00389C                     l5369:
  5106   00389C  3406               	rlcf	(___fladd@b+3)^(0+1280),w,c
  5107   00389E  3206               	rrcf	(___fladd@b+3)^(0+1280),f,c
  5108   0038A0  3205               	rrcf	(___fladd@b+2)^(0+1280),f,c
  5109   0038A2  3204               	rrcf	(___fladd@b+1)^(0+1280),f,c
  5110   0038A4  3203               	rrcf	___fladd@b^(0+1280),f,c
  5111   0038A6  2A11               	incf	___fladd@bexp^(0+1280),f,c
  5112   0038A8  EFE3  F01C         	goto	l5409
  5113   0038AC                     l5373:
  5114   0038AC  5007               	movf	___fladd@a^(0+1280),w,c
  5115   0038AE  5C03               	subwf	___fladd@b^(0+1280),w,c
  5116   0038B0  5008               	movf	(___fladd@a+1)^(0+1280),w,c
  5117   0038B2  5804               	subwfb	(___fladd@b+1)^(0+1280),w,c
  5118   0038B4  5009               	movf	(___fladd@a+2)^(0+1280),w,c
  5119   0038B6  5805               	subwfb	(___fladd@b+2)^(0+1280),w,c
  5120   0038B8  5006               	movf	(___fladd@b+3)^(0+1280),w,c
  5121   0038BA  0A80               	xorlw	128
  5122   0038BC  6E0B               	movwf	??___fladd^(0+1280),c
  5123   0038BE  500A               	movf	(___fladd@a+3)^(0+1280),w,c
  5124   0038C0  0A80               	xorlw	128
  5125   0038C2  580B               	subwfb	??___fladd^(0+1280),w,c
  5126   0038C4  B0D8               	btfsc	status,0,c
  5127   0038C6  EF67  F01C         	goto	u5521
  5128   0038CA  EF69  F01C         	goto	u5520
  5129   0038CE                     u5521:
  5130   0038CE  EF94  F01C         	goto	l5383
  5131   0038D2                     u5520:
  5132   0038D2  5003               	movf	___fladd@b^(0+1280),w,c
  5133   0038D4  5C07               	subwf	___fladd@a^(0+1280),w,c
  5134   0038D6  6E0B               	movwf	??___fladd^(0+1280),c
  5135   0038D8  5004               	movf	(___fladd@b+1)^(0+1280),w,c
  5136   0038DA  5808               	subwfb	(___fladd@a+1)^(0+1280),w,c
  5137   0038DC  6E0C               	movwf	(??___fladd+1)^(0+1280),c
  5138   0038DE  5005               	movf	(___fladd@b+2)^(0+1280),w,c
  5139   0038E0  5809               	subwfb	(___fladd@a+2)^(0+1280),w,c
  5140   0038E2  6E0D               	movwf	(??___fladd+2)^(0+1280),c
  5141   0038E4  5006               	movf	(___fladd@b+3)^(0+1280),w,c
  5142   0038E6  580A               	subwfb	(___fladd@a+3)^(0+1280),w,c
  5143   0038E8  6E0E               	movwf	(??___fladd+3)^(0+1280),c
  5144   0038EA  0EFF               	movlw	255
  5145   0038EC  240B               	addwf	??___fladd^(0+1280),w,c
  5146   0038EE  6E03               	movwf	___fladd@b^(0+1280),c
  5147   0038F0  0EFF               	movlw	255
  5148   0038F2  200C               	addwfc	(??___fladd+1)^(0+1280),w,c
  5149   0038F4  6E04               	movwf	(___fladd@b+1)^(0+1280),c
  5150   0038F6  0EFF               	movlw	255
  5151   0038F8  200D               	addwfc	(??___fladd+2)^(0+1280),w,c
  5152   0038FA  6E05               	movwf	(___fladd@b+2)^(0+1280),c
  5153   0038FC  0EFF               	movlw	255
  5154   0038FE  200E               	addwfc	(??___fladd+3)^(0+1280),w,c
  5155   003900  6E06               	movwf	(___fladd@b+3)^(0+1280),c
  5156   003902  0E80               	movlw	128
  5157   003904  1A0F               	xorwf	___fladd@signs^(0+1280),f,c
  5158   003906  6C12               	negf	___fladd@grs^(0+1280),c
  5159   003908  5012               	movf	___fladd@grs^(0+1280),w,c
  5160   00390A  A4D8               	btfss	status,2,c
  5161   00390C  EF8A  F01C         	goto	u5531
  5162   003910  EF8C  F01C         	goto	u5530
  5163   003914                     u5531:
  5164   003914  EF9C  F01C         	goto	l1207
  5165   003918                     u5530:
  5166   003918  0E01               	movlw	1
  5167   00391A  2603               	addwf	___fladd@b^(0+1280),f,c
  5168   00391C  0E00               	movlw	0
  5169   00391E  2204               	addwfc	(___fladd@b+1)^(0+1280),f,c
  5170   003920  2205               	addwfc	(___fladd@b+2)^(0+1280),f,c
  5171   003922  2206               	addwfc	(___fladd@b+3)^(0+1280),f,c
  5172   003924  EF9C  F01C         	goto	l1207
  5173   003928                     l5383:
  5174   003928  5007               	movf	___fladd@a^(0+1280),w,c
  5175   00392A  5E03               	subwf	___fladd@b^(0+1280),f,c
  5176   00392C  5008               	movf	(___fladd@a+1)^(0+1280),w,c
  5177   00392E  5A04               	subwfb	(___fladd@b+1)^(0+1280),f,c
  5178   003930  5009               	movf	(___fladd@a+2)^(0+1280),w,c
  5179   003932  5A05               	subwfb	(___fladd@b+2)^(0+1280),f,c
  5180   003934  500A               	movf	(___fladd@a+3)^(0+1280),w,c
  5181   003936  5A06               	subwfb	(___fladd@b+3)^(0+1280),f,c
  5182   003938                     l1207:
  5183   003938  5003               	movf	___fladd@b^(0+1280),w,c
  5184   00393A  1004               	iorwf	(___fladd@b+1)^(0+1280),w,c
  5185   00393C  1005               	iorwf	(___fladd@b+2)^(0+1280),w,c
  5186   00393E  1006               	iorwf	(___fladd@b+3)^(0+1280),w,c
  5187   003940  A4D8               	btfss	status,2,c
  5188   003942  EFA5  F01C         	goto	u5541
  5189   003946  EFA7  F01C         	goto	u5540
  5190   00394A                     u5541:
  5191   00394A  EFDC  F01C         	goto	l5407
  5192   00394E                     u5540:
  5193   00394E  5012               	movf	___fladd@grs^(0+1280),w,c
  5194   003950  A4D8               	btfss	status,2,c
  5195   003952  EFAD  F01C         	goto	u5551
  5196   003956  EFAF  F01C         	goto	u5550
  5197   00395A                     u5551:
  5198   00395A  EFDC  F01C         	goto	l5407
  5199   00395E                     u5550:
  5200   00395E  0E00               	movlw	0
  5201   003960  6E03               	movwf	?___fladd^(0+1280),c
  5202   003962  0E00               	movlw	0
  5203   003964  6E04               	movwf	(?___fladd+1)^(0+1280),c
  5204   003966  0E00               	movlw	0
  5205   003968  6E05               	movwf	(?___fladd+2)^(0+1280),c
  5206   00396A  0E00               	movlw	0
  5207   00396C  6E06               	movwf	(?___fladd+3)^(0+1280),c
  5208   00396E  EF77  F01D         	goto	l1199
  5209   003972                     l5391:
  5210   003972  90D8               	bcf	status,0,c
  5211   003974  3603               	rlcf	___fladd@b^(0+1280),f,c
  5212   003976  3604               	rlcf	(___fladd@b+1)^(0+1280),f,c
  5213   003978  3605               	rlcf	(___fladd@b+2)^(0+1280),f,c
  5214   00397A  3606               	rlcf	(___fladd@b+3)^(0+1280),f,c
  5215   00397C  AE12               	btfss	___fladd@grs^(0+1280),7,c
  5216   00397E  EFC3  F01C         	goto	u5561
  5217   003982  EFC5  F01C         	goto	u5560
  5218   003986                     u5561:
  5219   003986  EFC6  F01C         	goto	l5397
  5220   00398A                     u5560:
  5221   00398A  8003               	bsf	___fladd@b^(0+1280),0,c
  5222   00398C                     l5397:
  5223   00398C  A012               	btfss	___fladd@grs^(0+1280),0,c
  5224   00398E  EFCB  F01C         	goto	u5571
  5225   003992  EFCD  F01C         	goto	u5570
  5226   003996                     u5571:
  5227   003996  EFD1  F01C         	goto	l5401
  5228   00399A                     u5570:
  5229   00399A  80D8               	bsf	status,0,c
  5230   00399C  3612               	rlcf	___fladd@grs^(0+1280),f,c
  5231   00399E  EFD3  F01C         	goto	l5403
  5232   0039A2                     l5401:
  5233   0039A2  90D8               	bcf	status,0,c
  5234   0039A4  3612               	rlcf	___fladd@grs^(0+1280),f,c
  5235   0039A6                     l5403:
  5236   0039A6  5011               	movf	___fladd@bexp^(0+1280),w,c
  5237   0039A8  B4D8               	btfsc	status,2,c
  5238   0039AA  EFD9  F01C         	goto	u5581
  5239   0039AE  EFDB  F01C         	goto	u5580
  5240   0039B2                     u5581:
  5241   0039B2  EFDC  F01C         	goto	l5407
  5242   0039B6                     u5580:
  5243   0039B6  0611               	decf	___fladd@bexp^(0+1280),f,c
  5244   0039B8                     l5407:
  5245   0039B8  AE05               	btfss	(___fladd@b+2)^(0+1280),7,c
  5246   0039BA  EFE1  F01C         	goto	u5591
  5247   0039BE  EFE3  F01C         	goto	u5590
  5248   0039C2                     u5591:
  5249   0039C2  EFB9  F01C         	goto	l5391
  5250   0039C6                     u5590:
  5251   0039C6                     l5409:
  5252   0039C6  0E00               	movlw	0
  5253   0039C8  6E10               	movwf	___fladd@aexp^(0+1280),c
  5254   0039CA  AE12               	btfss	___fladd@grs^(0+1280),7,c
  5255   0039CC  EFEA  F01C         	goto	u5601
  5256   0039D0  EFEC  F01C         	goto	u5600
  5257   0039D4                     u5601:
  5258   0039D4  EF04  F01D         	goto	l1216
  5259   0039D8                     u5600:
  5260   0039D8  C512  F50B         	movff	___fladd@grs,??___fladd
  5261   0039DC  0E7F               	movlw	127
  5262   0039DE  160B               	andwf	??___fladd^(0+1280),f,c
  5263   0039E0  B4D8               	btfsc	status,2,c
  5264   0039E2  EFF5  F01C         	goto	u5611
  5265   0039E6  EFF7  F01C         	goto	u5610
  5266   0039EA                     u5611:
  5267   0039EA  EFFB  F01C         	goto	l1217
  5268   0039EE                     u5610:
  5269   0039EE                     l5415:
  5270   0039EE  0E01               	movlw	1
  5271   0039F0  6E10               	movwf	___fladd@aexp^(0+1280),c
  5272   0039F2  EF04  F01D         	goto	l1216
  5273   0039F6                     l1217:
  5274   0039F6  A003               	btfss	___fladd@b^(0+1280),0,c
  5275   0039F8  EF00  F01D         	goto	u5621
  5276   0039FC  EF02  F01D         	goto	u5620
  5277   003A00                     u5621:
  5278   003A00  EF04  F01D         	goto	l1216
  5279   003A04                     u5620:
  5280   003A04  EFF7  F01C         	goto	l5415
  5281   003A08                     l1216:
  5282   003A08  5010               	movf	___fladd@aexp^(0+1280),w,c
  5283   003A0A  B4D8               	btfsc	status,2,c
  5284   003A0C  EF0A  F01D         	goto	u5631
  5285   003A10  EF0C  F01D         	goto	u5630
  5286   003A14                     u5631:
  5287   003A14  EF37  F01D         	goto	l5427
  5288   003A18                     u5630:
  5289   003A18  0E01               	movlw	1
  5290   003A1A  2603               	addwf	___fladd@b^(0+1280),f,c
  5291   003A1C  0E00               	movlw	0
  5292   003A1E  2204               	addwfc	(___fladd@b+1)^(0+1280),f,c
  5293   003A20  2205               	addwfc	(___fladd@b+2)^(0+1280),f,c
  5294   003A22  2206               	addwfc	(___fladd@b+3)^(0+1280),f,c
  5295   003A24  A006               	btfss	(___fladd@b+3)^(0+1280),0,c
  5296   003A26  EF17  F01D         	goto	u5641
  5297   003A2A  EF19  F01D         	goto	u5640
  5298   003A2E                     u5641:
  5299   003A2E  EF37  F01D         	goto	l5427
  5300   003A32                     u5640:
  5301   003A32  C503  F50B         	movff	___fladd@b,??___fladd
  5302   003A36  C504  F50C         	movff	___fladd@b+1,??___fladd+1
  5303   003A3A  C505  F50D         	movff	___fladd@b+2,??___fladd+2
  5304   003A3E  C506  F50E         	movff	___fladd@b+3,??___fladd+3
  5305   003A42  340E               	rlcf	(??___fladd+3)^(0+1280),w,c
  5306   003A44  320E               	rrcf	(??___fladd+3)^(0+1280),f,c
  5307   003A46  320D               	rrcf	(??___fladd+2)^(0+1280),f,c
  5308   003A48  320C               	rrcf	(??___fladd+1)^(0+1280),f,c
  5309   003A4A  320B               	rrcf	??___fladd^(0+1280),f,c
  5310   003A4C  C50B  F503         	movff	??___fladd,___fladd@b
  5311   003A50  C50C  F504         	movff	??___fladd+1,___fladd@b+1
  5312   003A54  C50D  F505         	movff	??___fladd+2,___fladd@b+2
  5313   003A58  C50E  F506         	movff	??___fladd+3,___fladd@b+3
  5314   003A5C  2811               	incf	___fladd@bexp^(0+1280),w,c
  5315   003A5E  B4D8               	btfsc	status,2,c
  5316   003A60  EF34  F01D         	goto	u5651
  5317   003A64  EF36  F01D         	goto	u5650
  5318   003A68                     u5651:
  5319   003A68  EF37  F01D         	goto	l5427
  5320   003A6C                     u5650:
  5321   003A6C  2A11               	incf	___fladd@bexp^(0+1280),f,c
  5322   003A6E                     l5427:
  5323   003A6E  2811               	incf	___fladd@bexp^(0+1280),w,c
  5324   003A70  B4D8               	btfsc	status,2,c
  5325   003A72  EF3D  F01D         	goto	u5661
  5326   003A76  EF3F  F01D         	goto	u5660
  5327   003A7A                     u5661:
  5328   003A7A  EF47  F01D         	goto	l5431
  5329   003A7E                     u5660:
  5330   003A7E  5011               	movf	___fladd@bexp^(0+1280),w,c
  5331   003A80  A4D8               	btfss	status,2,c
  5332   003A82  EF45  F01D         	goto	u5671
  5333   003A86  EF47  F01D         	goto	u5670
  5334   003A8A                     u5671:
  5335   003A8A  EF59  F01D         	goto	l5435
  5336   003A8E                     u5670:
  5337   003A8E                     l5431:
  5338   003A8E  0E00               	movlw	0
  5339   003A90  6E03               	movwf	___fladd@b^(0+1280),c
  5340   003A92  0E00               	movlw	0
  5341   003A94  6E04               	movwf	(___fladd@b+1)^(0+1280),c
  5342   003A96  0E00               	movlw	0
  5343   003A98  6E05               	movwf	(___fladd@b+2)^(0+1280),c
  5344   003A9A  0E00               	movlw	0
  5345   003A9C  6E06               	movwf	(___fladd@b+3)^(0+1280),c
  5346   003A9E  5011               	movf	___fladd@bexp^(0+1280),w,c
  5347   003AA0  A4D8               	btfss	status,2,c
  5348   003AA2  EF55  F01D         	goto	u5681
  5349   003AA6  EF57  F01D         	goto	u5680
  5350   003AAA                     u5681:
  5351   003AAA  EF59  F01D         	goto	l5435
  5352   003AAE                     u5680:
  5353   003AAE  0E00               	movlw	0
  5354   003AB0  6E0F               	movwf	___fladd@signs^(0+1280),c
  5355   003AB2                     l5435:
  5356   003AB2  A011               	btfss	___fladd@bexp^(0+1280),0,c
  5357   003AB4  EF5E  F01D         	goto	u5691
  5358   003AB8  EF60  F01D         	goto	u5690
  5359   003ABC                     u5691:
  5360   003ABC  EF63  F01D         	goto	l5439
  5361   003AC0                     u5690:
  5362   003AC0  8E05               	bsf	(___fladd@b+2)^(0+1280),7,c
  5363   003AC2  EF64  F01D         	goto	l5441
  5364   003AC6                     l5439:
  5365   003AC6  9E05               	bcf	(___fladd@b+2)^(0+1280),7,c
  5366   003AC8                     l5441:
  5367   003AC8  90D8               	bcf	status,0,c
  5368   003ACA  3011               	rrcf	___fladd@bexp^(0+1280),w,c
  5369   003ACC  6E06               	movwf	(___fladd@b+3)^(0+1280),c
  5370   003ACE  AE0F               	btfss	___fladd@signs^(0+1280),7,c
  5371   003AD0  EF6C  F01D         	goto	u5701
  5372   003AD4  EF6E  F01D         	goto	u5700
  5373   003AD8                     u5701:
  5374   003AD8  EF6F  F01D         	goto	l5447
  5375   003ADC                     u5700:
  5376   003ADC  8E06               	bsf	(___fladd@b+3)^(0+1280),7,c
  5377   003ADE                     l5447:
  5378   003ADE  C503  F503         	movff	___fladd@b,?___fladd
  5379   003AE2  C504  F504         	movff	___fladd@b+1,?___fladd+1
  5380   003AE6  C505  F505         	movff	___fladd@b+2,?___fladd+2
  5381   003AEA  C506  F506         	movff	___fladd@b+3,?___fladd+3
  5382   003AEE                     l1199:
  5383   003AEE  0012               	return		;funcret
  5384   003AF0                     __end_of___fladd:
  5385                           	callstack 0
  5386                           
  5387 ;; *************** function ___flneg *****************
  5388 ;; Defined at:
  5389 ;;		line 15 in file "C:\Program Files\Microchip\xc8\v2.40\pic\sources\c99\common\flneg.c"
  5390 ;; Parameters:    Size  Location     Type
  5391 ;;  f1              4    2[COMRAM] unsigned char 
  5392 ;; Auto vars:     Size  Location     Type
  5393 ;;		None
  5394 ;; Return value:  Size  Location     Type
  5395 ;;                  4    2[COMRAM] unsigned char 
  5396 ;; Registers used:
  5397 ;;		wreg, status,2, status,0
  5398 ;; Tracked objects:
  5399 ;;		On entry : 0/0
  5400 ;;		On exit  : 0/0
  5401 ;;		Unchanged: 0/0
  5402 ;; Data sizes:     COMRAM   BANK5   BANK6   BANK7   BANK8   BANK9  BANK10  BANK11  BANK12  BANK13  BANK14  BANK15  BANK1
      +6  BANK17  BANK18  BANK19  BANK20  BANK21  BANK22  BANK23  BANK24  BANK25  BANK26  BANK27  BANK28  BANK29  BANK30  BANK3
      +1  BANK32  BANK33  BANK34  BANK35  BANK36
  5403 ;;      Params:         4       0       0       0       0       0       0       0       0       0       0       0       
      +0       0       0       0       0       0       0       0       0       0       0       0       0       0       0       
      +0       0       0       0       0       0
  5404 ;;      Locals:         0       0       0       0       0       0       0       0       0       0       0       0       
      +0       0       0       0       0       0       0       0       0       0       0       0       0       0       0       
      +0       0       0       0       0       0
  5405 ;;      Temps:          0       0       0       0       0       0       0       0       0       0       0       0       
      +0       0       0       0       0       0       0       0       0       0       0       0       0       0       0       
      +0       0       0       0       0       0
  5406 ;;      Totals:         4       0       0       0       0       0       0       0       0       0       0       0       
      +0       0       0       0       0       0       0       0       0       0       0       0       0       0       0       
      +0       0       0       0       0       0
  5407 ;;Total ram usage:        4 bytes
  5408 ;; Hardware stack levels used: 1
  5409 ;; Hardware stack levels required when called: 4
  5410 ;; This function calls:
  5411 ;;		Nothing
  5412 ;; This function is called by:
  5413 ;;		_efgtoa
  5414 ;; This function uses a non-reentrant model
  5415 ;;
  5416                           
  5417                           	psect	text13
  5418   005B92                     __ptext13:
  5419                           	callstack 0
  5420   005B92                     ___flneg:
  5421                           	callstack 118
  5422   005B92  5003               	movf	___flneg@f1^(0+1280),w,c
  5423   005B94  1004               	iorwf	(___flneg@f1+1)^(0+1280),w,c
  5424   005B96  1005               	iorwf	(___flneg@f1+2)^(0+1280),w,c
  5425   005B98  1006               	iorwf	(___flneg@f1+3)^(0+1280),w,c
  5426   005B9A  B4D8               	btfsc	status,2,c
  5427   005B9C  EFD2  F02D         	goto	u6351
  5428   005BA0  EFD4  F02D         	goto	u6350
  5429   005BA4                     u6351:
  5430   005BA4  EFDC  F02D         	goto	l5861
  5431   005BA8                     u6350:
  5432   005BA8  0E00               	movlw	0
  5433   005BAA  1A03               	xorwf	___flneg@f1^(0+1280),f,c
  5434   005BAC  0E00               	movlw	0
  5435   005BAE  1A04               	xorwf	(___flneg@f1+1)^(0+1280),f,c
  5436   005BB0  0E00               	movlw	0
  5437   005BB2  1A05               	xorwf	(___flneg@f1+2)^(0+1280),f,c
  5438   005BB4  0E80               	movlw	128
  5439   005BB6  1A06               	xorwf	(___flneg@f1+3)^(0+1280),f,c
  5440   005BB8                     l5861:
  5441   005BB8  C503  F503         	movff	___flneg@f1,?___flneg
  5442   005BBC  C504  F504         	movff	___flneg@f1+1,?___flneg+1
  5443   005BC0  C505  F505         	movff	___flneg@f1+2,?___flneg+2
  5444   005BC4  C506  F506         	movff	___flneg@f1+3,?___flneg+3
  5445   005BC8  0012               	return		;funcret
  5446   005BCA                     __end_of___flneg:
  5447                           	callstack 0
  5448                           
  5449 ;; *************** function ___flmul *****************
  5450 ;; Defined at:
  5451 ;;		line 8 in file "C:\Program Files\Microchip\xc8\v2.40\pic\sources\c99\common\sprcmul.c"
  5452 ;; Parameters:    Size  Location     Type
  5453 ;;  b               4   28[COMRAM] unsigned char 
  5454 ;;  a               4   32[COMRAM] unsigned char 
  5455 ;; Auto vars:     Size  Location     Type
  5456 ;;  prod            4   47[COMRAM] struct .
  5457 ;;  grs             4   42[COMRAM] unsigned long 
  5458 ;;  temp            2   51[COMRAM] struct .
  5459 ;;  bexp            1   46[COMRAM] unsigned char 
  5460 ;;  aexp            1   41[COMRAM] unsigned char 
  5461 ;;  sign            1   40[COMRAM] unsigned char 
  5462 ;; Return value:  Size  Location     Type
  5463 ;;                  4   28[COMRAM] unsigned char 
  5464 ;; Registers used:
  5465 ;;		wreg, status,2, status,0, prodl, prodh
  5466 ;; Tracked objects:
  5467 ;;		On entry : 0/0
  5468 ;;		On exit  : 0/0
  5469 ;;		Unchanged: 0/0
  5470 ;; Data sizes:     COMRAM   BANK5   BANK6   BANK7   BANK8   BANK9  BANK10  BANK11  BANK12  BANK13  BANK14  BANK15  BANK1
      +6  BANK17  BANK18  BANK19  BANK20  BANK21  BANK22  BANK23  BANK24  BANK25  BANK26  BANK27  BANK28  BANK29  BANK30  BANK3
      +1  BANK32  BANK33  BANK34  BANK35  BANK36
  5471 ;;      Params:         8       0       0       0       0       0       0       0       0       0       0       0       
      +0       0       0       0       0       0       0       0       0       0       0       0       0       0       0       
      +0       0       0       0       0       0
  5472 ;;      Locals:        13       0       0       0       0       0       0       0       0       0       0       0       
      +0       0       0       0       0       0       0       0       0       0       0       0       0       0       0       
      +0       0       0       0       0       0
  5473 ;;      Temps:          4       0       0       0       0       0       0       0       0       0       0       0       
      +0       0       0       0       0       0       0       0       0       0       0       0       0       0       0       
      +0       0       0       0       0       0
  5474 ;;      Totals:        25       0       0       0       0       0       0       0       0       0       0       0       
      +0       0       0       0       0       0       0       0       0       0       0       0       0       0       0       
      +0       0       0       0       0       0
  5475 ;;Total ram usage:       25 bytes
  5476 ;; Hardware stack levels used: 1
  5477 ;; Hardware stack levels required when called: 4
  5478 ;; This function calls:
  5479 ;;		Nothing
  5480 ;; This function is called by:
  5481 ;;		_main
  5482 ;;		_efgtoa
  5483 ;; This function uses a non-reentrant model
  5484 ;;
  5485                           
  5486                           	psect	text14
  5487   003AF0                     __ptext14:
  5488                           	callstack 0
  5489   003AF0                     ___flmul:
  5490                           	callstack 118
  5491   003AF0  5020               	movf	(___flmul@b+3)^(0+1280),w,c
  5492   003AF2  0B80               	andlw	128
  5493   003AF4  6E29               	movwf	___flmul@sign^(0+1280),c
  5494   003AF6  5020               	movf	(___flmul@b+3)^(0+1280),w,c
  5495   003AF8  2420               	addwf	(___flmul@b+3)^(0+1280),w,c
  5496   003AFA  6E2F               	movwf	___flmul@bexp^(0+1280),c
  5497   003AFC  AE1F               	btfss	(___flmul@b+2)^(0+1280),7,c
  5498   003AFE  EF83  F01D         	goto	u6081
  5499   003B02  EF85  F01D         	goto	u6080
  5500   003B06                     u6081:
  5501   003B06  EF86  F01D         	goto	l5689
  5502   003B0A                     u6080:
  5503   003B0A  802F               	bsf	___flmul@bexp^(0+1280),0,c
  5504   003B0C                     l5689:
  5505   003B0C  502F               	movf	___flmul@bexp^(0+1280),w,c
  5506   003B0E  B4D8               	btfsc	status,2,c
  5507   003B10  EF8C  F01D         	goto	u6091
  5508   003B14  EF8E  F01D         	goto	u6090
  5509   003B18                     u6091:
  5510   003B18  EFA1  F01D         	goto	l5697
  5511   003B1C                     u6090:
  5512   003B1C  282F               	incf	___flmul@bexp^(0+1280),w,c
  5513   003B1E  A4D8               	btfss	status,2,c
  5514   003B20  EF94  F01D         	goto	u6101
  5515   003B24  EF96  F01D         	goto	u6100
  5516   003B28                     u6101:
  5517   003B28  EF9E  F01D         	goto	l5695
  5518   003B2C                     u6100:
  5519   003B2C  0E00               	movlw	0
  5520   003B2E  6E1D               	movwf	___flmul@b^(0+1280),c
  5521   003B30  0E00               	movlw	0
  5522   003B32  6E1E               	movwf	(___flmul@b+1)^(0+1280),c
  5523   003B34  0E00               	movlw	0
  5524   003B36  6E1F               	movwf	(___flmul@b+2)^(0+1280),c
  5525   003B38  0E00               	movlw	0
  5526   003B3A  6E20               	movwf	(___flmul@b+3)^(0+1280),c
  5527   003B3C                     l5695:
  5528   003B3C  8E1F               	bsf	(___flmul@b+2)^(0+1280),7,c
  5529   003B3E  EFA9  F01D         	goto	l5699
  5530   003B42                     l5697:
  5531   003B42  0E00               	movlw	0
  5532   003B44  6E1D               	movwf	___flmul@b^(0+1280),c
  5533   003B46  0E00               	movlw	0
  5534   003B48  6E1E               	movwf	(___flmul@b+1)^(0+1280),c
  5535   003B4A  0E00               	movlw	0
  5536   003B4C  6E1F               	movwf	(___flmul@b+2)^(0+1280),c
  5537   003B4E  0E00               	movlw	0
  5538   003B50  6E20               	movwf	(___flmul@b+3)^(0+1280),c
  5539   003B52                     l5699:
  5540   003B52  5024               	movf	(___flmul@a+3)^(0+1280),w,c
  5541   003B54  0B80               	andlw	128
  5542   003B56  1A29               	xorwf	___flmul@sign^(0+1280),f,c
  5543   003B58  5024               	movf	(___flmul@a+3)^(0+1280),w,c
  5544   003B5A  2424               	addwf	(___flmul@a+3)^(0+1280),w,c
  5545   003B5C  6E2A               	movwf	___flmul@aexp^(0+1280),c
  5546   003B5E  AE23               	btfss	(___flmul@a+2)^(0+1280),7,c
  5547   003B60  EFB4  F01D         	goto	u6111
  5548   003B64  EFB6  F01D         	goto	u6110
  5549   003B68                     u6111:
  5550   003B68  EFB7  F01D         	goto	l5707
  5551   003B6C                     u6110:
  5552   003B6C  802A               	bsf	___flmul@aexp^(0+1280),0,c
  5553   003B6E                     l5707:
  5554   003B6E  502A               	movf	___flmul@aexp^(0+1280),w,c
  5555   003B70  B4D8               	btfsc	status,2,c
  5556   003B72  EFBD  F01D         	goto	u6121
  5557   003B76  EFBF  F01D         	goto	u6120
  5558   003B7A                     u6121:
  5559   003B7A  EFD2  F01D         	goto	l5715
  5560   003B7E                     u6120:
  5561   003B7E  282A               	incf	___flmul@aexp^(0+1280),w,c
  5562   003B80  A4D8               	btfss	status,2,c
  5563   003B82  EFC5  F01D         	goto	u6131
  5564   003B86  EFC7  F01D         	goto	u6130
  5565   003B8A                     u6131:
  5566   003B8A  EFCF  F01D         	goto	l5713
  5567   003B8E                     u6130:
  5568   003B8E  0E00               	movlw	0
  5569   003B90  6E21               	movwf	___flmul@a^(0+1280),c
  5570   003B92  0E00               	movlw	0
  5571   003B94  6E22               	movwf	(___flmul@a+1)^(0+1280),c
  5572   003B96  0E00               	movlw	0
  5573   003B98  6E23               	movwf	(___flmul@a+2)^(0+1280),c
  5574   003B9A  0E00               	movlw	0
  5575   003B9C  6E24               	movwf	(___flmul@a+3)^(0+1280),c
  5576   003B9E                     l5713:
  5577   003B9E  8E23               	bsf	(___flmul@a+2)^(0+1280),7,c
  5578   003BA0  EFDA  F01D         	goto	l1276
  5579   003BA4                     l5715:
  5580   003BA4  0E00               	movlw	0
  5581   003BA6  6E21               	movwf	___flmul@a^(0+1280),c
  5582   003BA8  0E00               	movlw	0
  5583   003BAA  6E22               	movwf	(___flmul@a+1)^(0+1280),c
  5584   003BAC  0E00               	movlw	0
  5585   003BAE  6E23               	movwf	(___flmul@a+2)^(0+1280),c
  5586   003BB0  0E00               	movlw	0
  5587   003BB2  6E24               	movwf	(___flmul@a+3)^(0+1280),c
  5588   003BB4                     l1276:
  5589   003BB4  502A               	movf	___flmul@aexp^(0+1280),w,c
  5590   003BB6  B4D8               	btfsc	status,2,c
  5591   003BB8  EFE0  F01D         	goto	u6141
  5592   003BBC  EFE2  F01D         	goto	u6140
  5593   003BC0                     u6141:
  5594   003BC0  EFEA  F01D         	goto	l5719
  5595   003BC4                     u6140:
  5596   003BC4  502F               	movf	___flmul@bexp^(0+1280),w,c
  5597   003BC6  A4D8               	btfss	status,2,c
  5598   003BC8  EFE8  F01D         	goto	u6151
  5599   003BCC  EFEA  F01D         	goto	u6150
  5600   003BD0                     u6151:
  5601   003BD0  EFF4  F01D         	goto	l5723
  5602   003BD4                     u6150:
  5603   003BD4                     l5719:
  5604   003BD4  0E00               	movlw	0
  5605   003BD6  6E1D               	movwf	?___flmul^(0+1280),c
  5606   003BD8  0E00               	movlw	0
  5607   003BDA  6E1E               	movwf	(?___flmul+1)^(0+1280),c
  5608   003BDC  0E00               	movlw	0
  5609   003BDE  6E1F               	movwf	(?___flmul+2)^(0+1280),c
  5610   003BE0  0E00               	movlw	0
  5611   003BE2  6E20               	movwf	(?___flmul+3)^(0+1280),c
  5612   003BE4  EF8C  F01F         	goto	l1280
  5613   003BE8                     l5723:
  5614   003BE8  5023               	movf	(___flmul@a+2)^(0+1280),w,c
  5615   003BEA  021D               	mulwf	___flmul@b^(0+1280),c
  5616   003BEC  C4F3 F534          	movff	prodl,___flmul@temp
  5617   003BF0  C4F4 F535          	movff	prodh,___flmul@temp+1
  5618   003BF4  5034               	movf	___flmul@temp^(0+1280),w,c
  5619   003BF6  6E2B               	movwf	___flmul@grs^(0+1280),c
  5620   003BF8  6A2C               	clrf	(___flmul@grs+1)^(0+1280),c
  5621   003BFA  6A2D               	clrf	(___flmul@grs+2)^(0+1280),c
  5622   003BFC  6A2E               	clrf	(___flmul@grs+3)^(0+1280),c
  5623   003BFE  5035               	movf	(___flmul@temp+1)^(0+1280),w,c
  5624   003C00  6E30               	movwf	___flmul@prod^(0+1280),c
  5625   003C02  6A31               	clrf	(___flmul@prod+1)^(0+1280),c
  5626   003C04  6A32               	clrf	(___flmul@prod+2)^(0+1280),c
  5627   003C06  6A33               	clrf	(___flmul@prod+3)^(0+1280),c
  5628   003C08  5022               	movf	(___flmul@a+1)^(0+1280),w,c
  5629   003C0A  021E               	mulwf	(___flmul@b+1)^(0+1280),c
  5630   003C0C  C4F3 F534          	movff	prodl,___flmul@temp
  5631   003C10  C4F4 F535          	movff	prodh,___flmul@temp+1
  5632   003C14  5034               	movf	___flmul@temp^(0+1280),w,c
  5633   003C16  262B               	addwf	___flmul@grs^(0+1280),f,c
  5634   003C18  0E00               	movlw	0
  5635   003C1A  222C               	addwfc	(___flmul@grs+1)^(0+1280),f,c
  5636   003C1C  222D               	addwfc	(___flmul@grs+2)^(0+1280),f,c
  5637   003C1E  222E               	addwfc	(___flmul@grs+3)^(0+1280),f,c
  5638   003C20  5035               	movf	(___flmul@temp+1)^(0+1280),w,c
  5639   003C22  2630               	addwf	___flmul@prod^(0+1280),f,c
  5640   003C24  0E00               	movlw	0
  5641   003C26  2231               	addwfc	(___flmul@prod+1)^(0+1280),f,c
  5642   003C28  2232               	addwfc	(___flmul@prod+2)^(0+1280),f,c
  5643   003C2A  2233               	addwfc	(___flmul@prod+3)^(0+1280),f,c
  5644   003C2C  5021               	movf	___flmul@a^(0+1280),w,c
  5645   003C2E  021F               	mulwf	(___flmul@b+2)^(0+1280),c
  5646   003C30  C4F3 F534          	movff	prodl,___flmul@temp
  5647   003C34  C4F4 F535          	movff	prodh,___flmul@temp+1
  5648   003C38  5034               	movf	___flmul@temp^(0+1280),w,c
  5649   003C3A  262B               	addwf	___flmul@grs^(0+1280),f,c
  5650   003C3C  0E00               	movlw	0
  5651   003C3E  222C               	addwfc	(___flmul@grs+1)^(0+1280),f,c
  5652   003C40  222D               	addwfc	(___flmul@grs+2)^(0+1280),f,c
  5653   003C42  222E               	addwfc	(___flmul@grs+3)^(0+1280),f,c
  5654   003C44  5035               	movf	(___flmul@temp+1)^(0+1280),w,c
  5655   003C46  2630               	addwf	___flmul@prod^(0+1280),f,c
  5656   003C48  0E00               	movlw	0
  5657   003C4A  2231               	addwfc	(___flmul@prod+1)^(0+1280),f,c
  5658   003C4C  2232               	addwfc	(___flmul@prod+2)^(0+1280),f,c
  5659   003C4E  2233               	addwfc	(___flmul@prod+3)^(0+1280),f,c
  5660   003C50  C52D  F52E         	movff	___flmul@grs+2,___flmul@grs+3
  5661   003C54  C52C  F52D         	movff	___flmul@grs+1,___flmul@grs+2
  5662   003C58  C52B  F52C         	movff	___flmul@grs,___flmul@grs+1
  5663   003C5C  6A2B               	clrf	___flmul@grs^(0+1280),c
  5664   003C5E  5021               	movf	___flmul@a^(0+1280),w,c
  5665   003C60  021E               	mulwf	(___flmul@b+1)^(0+1280),c
  5666   003C62  C4F3 F534          	movff	prodl,___flmul@temp
  5667   003C66  C4F4 F535          	movff	prodh,___flmul@temp+1
  5668   003C6A  5034               	movf	___flmul@temp^(0+1280),w,c
  5669   003C6C  262B               	addwf	___flmul@grs^(0+1280),f,c
  5670   003C6E  5035               	movf	(___flmul@temp+1)^(0+1280),w,c
  5671   003C70  222C               	addwfc	(___flmul@grs+1)^(0+1280),f,c
  5672   003C72  0E00               	movlw	0
  5673   003C74  222D               	addwfc	(___flmul@grs+2)^(0+1280),f,c
  5674   003C76  0E00               	movlw	0
  5675   003C78  222E               	addwfc	(___flmul@grs+3)^(0+1280),f,c
  5676   003C7A  5022               	movf	(___flmul@a+1)^(0+1280),w,c
  5677   003C7C  021D               	mulwf	___flmul@b^(0+1280),c
  5678   003C7E  C4F3 F534          	movff	prodl,___flmul@temp
  5679   003C82  C4F4 F535          	movff	prodh,___flmul@temp+1
  5680   003C86  5034               	movf	___flmul@temp^(0+1280),w,c
  5681   003C88  262B               	addwf	___flmul@grs^(0+1280),f,c
  5682   003C8A  5035               	movf	(___flmul@temp+1)^(0+1280),w,c
  5683   003C8C  222C               	addwfc	(___flmul@grs+1)^(0+1280),f,c
  5684   003C8E  0E00               	movlw	0
  5685   003C90  222D               	addwfc	(___flmul@grs+2)^(0+1280),f,c
  5686   003C92  0E00               	movlw	0
  5687   003C94  222E               	addwfc	(___flmul@grs+3)^(0+1280),f,c
  5688   003C96  C52D  F52E         	movff	___flmul@grs+2,___flmul@grs+3
  5689   003C9A  C52C  F52D         	movff	___flmul@grs+1,___flmul@grs+2
  5690   003C9E  C52B  F52C         	movff	___flmul@grs,___flmul@grs+1
  5691   003CA2  6A2B               	clrf	___flmul@grs^(0+1280),c
  5692   003CA4  5021               	movf	___flmul@a^(0+1280),w,c
  5693   003CA6  021D               	mulwf	___flmul@b^(0+1280),c
  5694   003CA8  C4F3 F534          	movff	prodl,___flmul@temp
  5695   003CAC  C4F4 F535          	movff	prodh,___flmul@temp+1
  5696   003CB0  5034               	movf	___flmul@temp^(0+1280),w,c
  5697   003CB2  262B               	addwf	___flmul@grs^(0+1280),f,c
  5698   003CB4  5035               	movf	(___flmul@temp+1)^(0+1280),w,c
  5699   003CB6  222C               	addwfc	(___flmul@grs+1)^(0+1280),f,c
  5700   003CB8  0E00               	movlw	0
  5701   003CBA  222D               	addwfc	(___flmul@grs+2)^(0+1280),f,c
  5702   003CBC  0E00               	movlw	0
  5703   003CBE  222E               	addwfc	(___flmul@grs+3)^(0+1280),f,c
  5704   003CC0  5023               	movf	(___flmul@a+2)^(0+1280),w,c
  5705   003CC2  021E               	mulwf	(___flmul@b+1)^(0+1280),c
  5706   003CC4  C4F3 F534          	movff	prodl,___flmul@temp
  5707   003CC8  C4F4 F535          	movff	prodh,___flmul@temp+1
  5708   003CCC  5034               	movf	___flmul@temp^(0+1280),w,c
  5709   003CCE  2630               	addwf	___flmul@prod^(0+1280),f,c
  5710   003CD0  5035               	movf	(___flmul@temp+1)^(0+1280),w,c
  5711   003CD2  2231               	addwfc	(___flmul@prod+1)^(0+1280),f,c
  5712   003CD4  0E00               	movlw	0
  5713   003CD6  2232               	addwfc	(___flmul@prod+2)^(0+1280),f,c
  5714   003CD8  0E00               	movlw	0
  5715   003CDA  2233               	addwfc	(___flmul@prod+3)^(0+1280),f,c
  5716   003CDC  5022               	movf	(___flmul@a+1)^(0+1280),w,c
  5717   003CDE  021F               	mulwf	(___flmul@b+2)^(0+1280),c
  5718   003CE0  C4F3 F534          	movff	prodl,___flmul@temp
  5719   003CE4  C4F4 F535          	movff	prodh,___flmul@temp+1
  5720   003CE8  5034               	movf	___flmul@temp^(0+1280),w,c
  5721   003CEA  2630               	addwf	___flmul@prod^(0+1280),f,c
  5722   003CEC  5035               	movf	(___flmul@temp+1)^(0+1280),w,c
  5723   003CEE  2231               	addwfc	(___flmul@prod+1)^(0+1280),f,c
  5724   003CF0  0E00               	movlw	0
  5725   003CF2  2232               	addwfc	(___flmul@prod+2)^(0+1280),f,c
  5726   003CF4  0E00               	movlw	0
  5727   003CF6  2233               	addwfc	(___flmul@prod+3)^(0+1280),f,c
  5728   003CF8  5023               	movf	(___flmul@a+2)^(0+1280),w,c
  5729   003CFA  021F               	mulwf	(___flmul@b+2)^(0+1280),c
  5730   003CFC  C4F3 F534          	movff	prodl,___flmul@temp
  5731   003D00  C4F4 F535          	movff	prodh,___flmul@temp+1
  5732   003D04  5034               	movf	___flmul@temp^(0+1280),w,c
  5733   003D06  6E25               	movwf	??___flmul^(0+1280),c
  5734   003D08  5035               	movf	(___flmul@temp+1)^(0+1280),w,c
  5735   003D0A  6E26               	movwf	(??___flmul+1)^(0+1280),c
  5736   003D0C  6A27               	clrf	(??___flmul+2)^(0+1280),c
  5737   003D0E  6A28               	clrf	(??___flmul+3)^(0+1280),c
  5738   003D10  C527  F528         	movff	??___flmul+2,??___flmul+3
  5739   003D14  C526  F527         	movff	??___flmul+1,??___flmul+2
  5740   003D18  C525  F526         	movff	??___flmul,??___flmul+1
  5741   003D1C  6A25               	clrf	??___flmul^(0+1280),c
  5742   003D1E  5025               	movf	??___flmul^(0+1280),w,c
  5743   003D20  2630               	addwf	___flmul@prod^(0+1280),f,c
  5744   003D22  5026               	movf	(??___flmul+1)^(0+1280),w,c
  5745   003D24  2231               	addwfc	(___flmul@prod+1)^(0+1280),f,c
  5746   003D26  5027               	movf	(??___flmul+2)^(0+1280),w,c
  5747   003D28  2232               	addwfc	(___flmul@prod+2)^(0+1280),f,c
  5748   003D2A  5028               	movf	(??___flmul+3)^(0+1280),w,c
  5749   003D2C  2233               	addwfc	(___flmul@prod+3)^(0+1280),f,c
  5750   003D2E  C52B  F525         	movff	___flmul@grs,??___flmul
  5751   003D32  C52C  F526         	movff	___flmul@grs+1,??___flmul+1
  5752   003D36  C52D  F527         	movff	___flmul@grs+2,??___flmul+2
  5753   003D3A  C52E  F528         	movff	___flmul@grs+3,??___flmul+3
  5754   003D3E  0E19               	movlw	25
  5755   003D40  EFA7  F01E         	goto	u6160
  5756   003D44                     u6165:
  5757   003D44  90D8               	bcf	status,0,c
  5758   003D46  3228               	rrcf	(??___flmul+3)^(0+1280),f,c
  5759   003D48  3227               	rrcf	(??___flmul+2)^(0+1280),f,c
  5760   003D4A  3226               	rrcf	(??___flmul+1)^(0+1280),f,c
  5761   003D4C  3225               	rrcf	??___flmul^(0+1280),f,c
  5762   003D4E                     u6160:
  5763   003D4E  2EE8               	decfsz	wreg,f,c
  5764   003D50  EFA2  F01E         	goto	u6165
  5765   003D54  5025               	movf	??___flmul^(0+1280),w,c
  5766   003D56  2630               	addwf	___flmul@prod^(0+1280),f,c
  5767   003D58  5026               	movf	(??___flmul+1)^(0+1280),w,c
  5768   003D5A  2231               	addwfc	(___flmul@prod+1)^(0+1280),f,c
  5769   003D5C  5027               	movf	(??___flmul+2)^(0+1280),w,c
  5770   003D5E  2232               	addwfc	(___flmul@prod+2)^(0+1280),f,c
  5771   003D60  5028               	movf	(??___flmul+3)^(0+1280),w,c
  5772   003D62  2233               	addwfc	(___flmul@prod+3)^(0+1280),f,c
  5773   003D64  C52D  F52E         	movff	___flmul@grs+2,___flmul@grs+3
  5774   003D68  C52C  F52D         	movff	___flmul@grs+1,___flmul@grs+2
  5775   003D6C  C52B  F52C         	movff	___flmul@grs,___flmul@grs+1
  5776   003D70  6A2B               	clrf	___flmul@grs^(0+1280),c
  5777   003D72  502A               	movf	___flmul@aexp^(0+1280),w,c
  5778   003D74  C52F  F525         	movff	___flmul@bexp,??___flmul
  5779   003D78  6A26               	clrf	(??___flmul+1)^(0+1280),c
  5780   003D7A  2625               	addwf	??___flmul^(0+1280),f,c
  5781   003D7C  0E00               	movlw	0
  5782   003D7E  2226               	addwfc	(??___flmul+1)^(0+1280),f,c
  5783   003D80  0E82               	movlw	130
  5784   003D82  2425               	addwf	??___flmul^(0+1280),w,c
  5785   003D84  6E34               	movwf	___flmul@temp^(0+1280),c
  5786   003D86  0EFF               	movlw	255
  5787   003D88  2026               	addwfc	(??___flmul+1)^(0+1280),w,c
  5788   003D8A  6E35               	movwf	(___flmul@temp+1)^(0+1280),c
  5789   003D8C  EFDD  F01E         	goto	l5771
  5790   003D90                     l5765:
  5791   003D90  90D8               	bcf	status,0,c
  5792   003D92  3630               	rlcf	___flmul@prod^(0+1280),f,c
  5793   003D94  3631               	rlcf	(___flmul@prod+1)^(0+1280),f,c
  5794   003D96  3632               	rlcf	(___flmul@prod+2)^(0+1280),f,c
  5795   003D98  3633               	rlcf	(___flmul@prod+3)^(0+1280),f,c
  5796   003D9A  AE2E               	btfss	(___flmul@grs+3)^(0+1280),7,c
  5797   003D9C  EFD2  F01E         	goto	u6171
  5798   003DA0  EFD4  F01E         	goto	u6170
  5799   003DA4                     u6171:
  5800   003DA4  EFD5  F01E         	goto	l1283
  5801   003DA8                     u6170:
  5802   003DA8  8030               	bsf	___flmul@prod^(0+1280),0,c
  5803   003DAA                     l1283:
  5804   003DAA  90D8               	bcf	status,0,c
  5805   003DAC  362B               	rlcf	___flmul@grs^(0+1280),f,c
  5806   003DAE  362C               	rlcf	(___flmul@grs+1)^(0+1280),f,c
  5807   003DB0  362D               	rlcf	(___flmul@grs+2)^(0+1280),f,c
  5808   003DB2  362E               	rlcf	(___flmul@grs+3)^(0+1280),f,c
  5809   003DB4  0634               	decf	___flmul@temp^(0+1280),f,c
  5810   003DB6  A0D8               	btfss	status,0,c
  5811   003DB8  0635               	decf	(___flmul@temp+1)^(0+1280),f,c
  5812   003DBA                     l5771:
  5813   003DBA  AE32               	btfss	(___flmul@prod+2)^(0+1280),7,c
  5814   003DBC  EFE2  F01E         	goto	u6181
  5815   003DC0  EFE4  F01E         	goto	u6180
  5816   003DC4                     u6181:
  5817   003DC4  EFC8  F01E         	goto	l5765
  5818   003DC8                     u6180:
  5819   003DC8  0E00               	movlw	0
  5820   003DCA  6E2A               	movwf	___flmul@aexp^(0+1280),c
  5821   003DCC  AE2E               	btfss	(___flmul@grs+3)^(0+1280),7,c
  5822   003DCE  EFEB  F01E         	goto	u6191
  5823   003DD2  EFED  F01E         	goto	u6190
  5824   003DD6                     u6191:
  5825   003DD6  EF11  F01F         	goto	l1285
  5826   003DDA                     u6190:
  5827   003DDA  0EFF               	movlw	255
  5828   003DDC  142B               	andwf	___flmul@grs^(0+1280),w,c
  5829   003DDE  6E25               	movwf	??___flmul^(0+1280),c
  5830   003DE0  0EFF               	movlw	255
  5831   003DE2  142C               	andwf	(___flmul@grs+1)^(0+1280),w,c
  5832   003DE4  6E26               	movwf	(??___flmul+1)^(0+1280),c
  5833   003DE6  0EFF               	movlw	255
  5834   003DE8  142D               	andwf	(___flmul@grs+2)^(0+1280),w,c
  5835   003DEA  6E27               	movwf	(??___flmul+2)^(0+1280),c
  5836   003DEC  0E7F               	movlw	127
  5837   003DEE  142E               	andwf	(___flmul@grs+3)^(0+1280),w,c
  5838   003DF0  6E28               	movwf	(??___flmul+3)^(0+1280),c
  5839   003DF2  5025               	movf	??___flmul^(0+1280),w,c
  5840   003DF4  1026               	iorwf	(??___flmul+1)^(0+1280),w,c
  5841   003DF6  1027               	iorwf	(??___flmul+2)^(0+1280),w,c
  5842   003DF8  1028               	iorwf	(??___flmul+3)^(0+1280),w,c
  5843   003DFA  B4D8               	btfsc	status,2,c
  5844   003DFC  EF02  F01F         	goto	u6201
  5845   003E00  EF04  F01F         	goto	u6200
  5846   003E04                     u6201:
  5847   003E04  EF08  F01F         	goto	l1286
  5848   003E08                     u6200:
  5849   003E08                     l5779:
  5850   003E08  0E01               	movlw	1
  5851   003E0A  6E2A               	movwf	___flmul@aexp^(0+1280),c
  5852   003E0C  EF11  F01F         	goto	l1285
  5853   003E10                     l1286:
  5854   003E10  A030               	btfss	___flmul@prod^(0+1280),0,c
  5855   003E12  EF0D  F01F         	goto	u6211
  5856   003E16  EF0F  F01F         	goto	u6210
  5857   003E1A                     u6211:
  5858   003E1A  EF11  F01F         	goto	l1285
  5859   003E1E                     u6210:
  5860   003E1E  EF04  F01F         	goto	l5779
  5861   003E22                     l1285:
  5862   003E22  502A               	movf	___flmul@aexp^(0+1280),w,c
  5863   003E24  B4D8               	btfsc	status,2,c
  5864   003E26  EF17  F01F         	goto	u6221
  5865   003E2A  EF19  F01F         	goto	u6220
  5866   003E2E                     u6221:
  5867   003E2E  EF3D  F01F         	goto	l5791
  5868   003E32                     u6220:
  5869   003E32  0E01               	movlw	1
  5870   003E34  2630               	addwf	___flmul@prod^(0+1280),f,c
  5871   003E36  0E00               	movlw	0
  5872   003E38  2231               	addwfc	(___flmul@prod+1)^(0+1280),f,c
  5873   003E3A  2232               	addwfc	(___flmul@prod+2)^(0+1280),f,c
  5874   003E3C  2233               	addwfc	(___flmul@prod+3)^(0+1280),f,c
  5875   003E3E  A033               	btfss	(___flmul@prod+3)^(0+1280),0,c
  5876   003E40  EF24  F01F         	goto	u6231
  5877   003E44  EF26  F01F         	goto	u6230
  5878   003E48                     u6231:
  5879   003E48  EF3D  F01F         	goto	l5791
  5880   003E4C                     u6230:
  5881   003E4C  C530  F525         	movff	___flmul@prod,??___flmul
  5882   003E50  C531  F526         	movff	___flmul@prod+1,??___flmul+1
  5883   003E54  C532  F527         	movff	___flmul@prod+2,??___flmul+2
  5884   003E58  C533  F528         	movff	___flmul@prod+3,??___flmul+3
  5885   003E5C  3428               	rlcf	(??___flmul+3)^(0+1280),w,c
  5886   003E5E  3228               	rrcf	(??___flmul+3)^(0+1280),f,c
  5887   003E60  3227               	rrcf	(??___flmul+2)^(0+1280),f,c
  5888   003E62  3226               	rrcf	(??___flmul+1)^(0+1280),f,c
  5889   003E64  3225               	rrcf	??___flmul^(0+1280),f,c
  5890   003E66  C525  F530         	movff	??___flmul,___flmul@prod
  5891   003E6A  C526  F531         	movff	??___flmul+1,___flmul@prod+1
  5892   003E6E  C527  F532         	movff	??___flmul+2,___flmul@prod+2
  5893   003E72  C528  F533         	movff	??___flmul+3,___flmul@prod+3
  5894   003E76  4A34               	infsnz	___flmul@temp^(0+1280),f,c
  5895   003E78  2A35               	incf	(___flmul@temp+1)^(0+1280),f,c
  5896   003E7A                     l5791:
  5897   003E7A  BE35               	btfsc	(___flmul@temp+1)^(0+1280),7,c
  5898   003E7C  EF48  F01F         	goto	u6241
  5899   003E80  5035               	movf	(___flmul@temp+1)^(0+1280),w,c
  5900   003E82  E108               	bnz	u6240
  5901   003E84  2834               	incf	___flmul@temp^(0+1280),w,c
  5902   003E86  A0D8               	btfss	status,0,c
  5903   003E88  EF48  F01F         	goto	u6241
  5904   003E8C  EF4A  F01F         	goto	u6240
  5905   003E90                     u6241:
  5906   003E90  EF54  F01F         	goto	l5795
  5907   003E94                     u6240:
  5908   003E94  0E00               	movlw	0
  5909   003E96  6E30               	movwf	___flmul@prod^(0+1280),c
  5910   003E98  0E00               	movlw	0
  5911   003E9A  6E31               	movwf	(___flmul@prod+1)^(0+1280),c
  5912   003E9C  0E80               	movlw	128
  5913   003E9E  6E32               	movwf	(___flmul@prod+2)^(0+1280),c
  5914   003EA0  0E7F               	movlw	127
  5915   003EA2  6E33               	movwf	(___flmul@prod+3)^(0+1280),c
  5916   003EA4  EF82  F01F         	goto	l5807
  5917   003EA8                     l5795:
  5918   003EA8  BE35               	btfsc	(___flmul@temp+1)^(0+1280),7,c
  5919   003EAA  EF61  F01F         	goto	u6250
  5920   003EAE  5035               	movf	(___flmul@temp+1)^(0+1280),w,c
  5921   003EB0  E106               	bnz	u6251
  5922   003EB2  0434               	decf	___flmul@temp^(0+1280),w,c
  5923   003EB4  B0D8               	btfsc	status,0,c
  5924   003EB6  EF5F  F01F         	goto	u6251
  5925   003EBA  EF61  F01F         	goto	u6250
  5926   003EBE                     u6251:
  5927   003EBE  EF6D  F01F         	goto	l1293
  5928   003EC2                     u6250:
  5929   003EC2  0E00               	movlw	0
  5930   003EC4  6E30               	movwf	___flmul@prod^(0+1280),c
  5931   003EC6  0E00               	movlw	0
  5932   003EC8  6E31               	movwf	(___flmul@prod+1)^(0+1280),c
  5933   003ECA  0E00               	movlw	0
  5934   003ECC  6E32               	movwf	(___flmul@prod+2)^(0+1280),c
  5935   003ECE  0E00               	movlw	0
  5936   003ED0  6E33               	movwf	(___flmul@prod+3)^(0+1280),c
  5937   003ED2  0E00               	movlw	0
  5938   003ED4  6E29               	movwf	___flmul@sign^(0+1280),c
  5939   003ED6  EF82  F01F         	goto	l5807
  5940   003EDA                     l1293:
  5941   003EDA  C534  F52F         	movff	___flmul@temp,___flmul@bexp
  5942   003EDE  0EFF               	movlw	255
  5943   003EE0  1630               	andwf	___flmul@prod^(0+1280),f,c
  5944   003EE2  0EFF               	movlw	255
  5945   003EE4  1631               	andwf	(___flmul@prod+1)^(0+1280),f,c
  5946   003EE6  0E7F               	movlw	127
  5947   003EE8  1632               	andwf	(___flmul@prod+2)^(0+1280),f,c
  5948   003EEA  0E00               	movlw	0
  5949   003EEC  1633               	andwf	(___flmul@prod+3)^(0+1280),f,c
  5950   003EEE  A02F               	btfss	___flmul@bexp^(0+1280),0,c
  5951   003EF0  EF7C  F01F         	goto	u6261
  5952   003EF4  EF7E  F01F         	goto	u6260
  5953   003EF8                     u6261:
  5954   003EF8  EF7F  F01F         	goto	l5805
  5955   003EFC                     u6260:
  5956   003EFC  8E32               	bsf	(___flmul@prod+2)^(0+1280),7,c
  5957   003EFE                     l5805:
  5958   003EFE  90D8               	bcf	status,0,c
  5959   003F00  302F               	rrcf	___flmul@bexp^(0+1280),w,c
  5960   003F02  6E33               	movwf	(___flmul@prod+3)^(0+1280),c
  5961   003F04                     l5807:
  5962   003F04  5029               	movf	___flmul@sign^(0+1280),w,c
  5963   003F06  1233               	iorwf	(___flmul@prod+3)^(0+1280),f,c
  5964   003F08  C530  F51D         	movff	___flmul@prod,?___flmul
  5965   003F0C  C531  F51E         	movff	___flmul@prod+1,?___flmul+1
  5966   003F10  C532  F51F         	movff	___flmul@prod+2,?___flmul+2
  5967   003F14  C533  F520         	movff	___flmul@prod+3,?___flmul+3
  5968   003F18                     l1280:
  5969   003F18  0012               	return		;funcret
  5970   003F1A                     __end_of___flmul:
  5971                           	callstack 0
  5972                           
  5973 ;; *************** function ___flge *****************
  5974 ;; Defined at:
  5975 ;;		line 4 in file "C:\Program Files\Microchip\xc8\v2.40\pic\sources\c99\common\flge.c"
  5976 ;; Parameters:    Size  Location     Type
  5977 ;;  ff1             4   53[COMRAM] unsigned char 
  5978 ;;  ff2             4   57[COMRAM] unsigned char 
  5979 ;; Auto vars:     Size  Location     Type
  5980 ;;		None
  5981 ;; Return value:  Size  Location     Type
  5982 ;;		None               void
  5983 ;; Registers used:
  5984 ;;		wreg, status,2, status,0
  5985 ;; Tracked objects:
  5986 ;;		On entry : 0/0
  5987 ;;		On exit  : 0/0
  5988 ;;		Unchanged: 0/0
  5989 ;; Data sizes:     COMRAM   BANK5   BANK6   BANK7   BANK8   BANK9  BANK10  BANK11  BANK12  BANK13  BANK14  BANK15  BANK1
      +6  BANK17  BANK18  BANK19  BANK20  BANK21  BANK22  BANK23  BANK24  BANK25  BANK26  BANK27  BANK28  BANK29  BANK30  BANK3
      +1  BANK32  BANK33  BANK34  BANK35  BANK36
  5990 ;;      Params:         8       0       0       0       0       0       0       0       0       0       0       0       
      +0       0       0       0       0       0       0       0       0       0       0       0       0       0       0       
      +0       0       0       0       0       0
  5991 ;;      Locals:         0       0       0       0       0       0       0       0       0       0       0       0       
      +0       0       0       0       0       0       0       0       0       0       0       0       0       0       0       
      +0       0       0       0       0       0
  5992 ;;      Temps:          4       0       0       0       0       0       0       0       0       0       0       0       
      +0       0       0       0       0       0       0       0       0       0       0       0       0       0       0       
      +0       0       0       0       0       0
  5993 ;;      Totals:        12       0       0       0       0       0       0       0       0       0       0       0       
      +0       0       0       0       0       0       0       0       0       0       0       0       0       0       0       
      +0       0       0       0       0       0
  5994 ;;Total ram usage:       12 bytes
  5995 ;; Hardware stack levels used: 1
  5996 ;; Hardware stack levels required when called: 4
  5997 ;; This function calls:
  5998 ;;		Nothing
  5999 ;; This function is called by:
  6000 ;;		_efgtoa
  6001 ;; This function uses a non-reentrant model
  6002 ;;
  6003                           
  6004                           	psect	text15
  6005   005286                     __ptext15:
  6006                           	callstack 0
  6007   005286                     ___flge:
  6008                           	callstack 118
  6009   005286  0E00               	movlw	0
  6010   005288  1436               	andwf	___flge@ff1^(0+1280),w,c
  6011   00528A  6E3E               	movwf	??___flge^(0+1280),c
  6012   00528C  0E00               	movlw	0
  6013   00528E  1437               	andwf	(___flge@ff1+1)^(0+1280),w,c
  6014   005290  6E3F               	movwf	(??___flge+1)^(0+1280),c
  6015   005292  0E80               	movlw	128
  6016   005294  1438               	andwf	(___flge@ff1+2)^(0+1280),w,c
  6017   005296  6E40               	movwf	(??___flge+2)^(0+1280),c
  6018   005298  0E7F               	movlw	127
  6019   00529A  1439               	andwf	(___flge@ff1+3)^(0+1280),w,c
  6020   00529C  6E41               	movwf	(??___flge+3)^(0+1280),c
  6021   00529E  503E               	movf	??___flge^(0+1280),w,c
  6022   0052A0  103F               	iorwf	(??___flge+1)^(0+1280),w,c
  6023   0052A2  1040               	iorwf	(??___flge+2)^(0+1280),w,c
  6024   0052A4  1041               	iorwf	(??___flge+3)^(0+1280),w,c
  6025   0052A6  A4D8               	btfss	status,2,c
  6026   0052A8  EF58  F029         	goto	u6301
  6027   0052AC  EF5A  F029         	goto	u6300
  6028   0052B0                     u6301:
  6029   0052B0  EF62  F029         	goto	l5839
  6030   0052B4                     u6300:
  6031   0052B4  0E00               	movlw	0
  6032   0052B6  6E36               	movwf	___flge@ff1^(0+1280),c
  6033   0052B8  0E00               	movlw	0
  6034   0052BA  6E37               	movwf	(___flge@ff1+1)^(0+1280),c
  6035   0052BC  0E00               	movlw	0
  6036   0052BE  6E38               	movwf	(___flge@ff1+2)^(0+1280),c
  6037   0052C0  0E00               	movlw	0
  6038   0052C2  6E39               	movwf	(___flge@ff1+3)^(0+1280),c
  6039   0052C4                     l5839:
  6040   0052C4  0E00               	movlw	0
  6041   0052C6  143A               	andwf	___flge@ff2^(0+1280),w,c
  6042   0052C8  6E3E               	movwf	??___flge^(0+1280),c
  6043   0052CA  0E00               	movlw	0
  6044   0052CC  143B               	andwf	(___flge@ff2+1)^(0+1280),w,c
  6045   0052CE  6E3F               	movwf	(??___flge+1)^(0+1280),c
  6046   0052D0  0E80               	movlw	128
  6047   0052D2  143C               	andwf	(___flge@ff2+2)^(0+1280),w,c
  6048   0052D4  6E40               	movwf	(??___flge+2)^(0+1280),c
  6049   0052D6  0E7F               	movlw	127
  6050   0052D8  143D               	andwf	(___flge@ff2+3)^(0+1280),w,c
  6051   0052DA  6E41               	movwf	(??___flge+3)^(0+1280),c
  6052   0052DC  503E               	movf	??___flge^(0+1280),w,c
  6053   0052DE  103F               	iorwf	(??___flge+1)^(0+1280),w,c
  6054   0052E0  1040               	iorwf	(??___flge+2)^(0+1280),w,c
  6055   0052E2  1041               	iorwf	(??___flge+3)^(0+1280),w,c
  6056   0052E4  A4D8               	btfss	status,2,c
  6057   0052E6  EF77  F029         	goto	u6311
  6058   0052EA  EF79  F029         	goto	u6310
  6059   0052EE                     u6311:
  6060   0052EE  EF81  F029         	goto	l5843
  6061   0052F2                     u6310:
  6062   0052F2  0E00               	movlw	0
  6063   0052F4  6E3A               	movwf	___flge@ff2^(0+1280),c
  6064   0052F6  0E00               	movlw	0
  6065   0052F8  6E3B               	movwf	(___flge@ff2+1)^(0+1280),c
  6066   0052FA  0E00               	movlw	0
  6067   0052FC  6E3C               	movwf	(___flge@ff2+2)^(0+1280),c
  6068   0052FE  0E00               	movlw	0
  6069   005300  6E3D               	movwf	(___flge@ff2+3)^(0+1280),c
  6070   005302                     l5843:
  6071   005302  AE39               	btfss	(___flge@ff1+3)^(0+1280),7,c
  6072   005304  EF86  F029         	goto	u6321
  6073   005308  EF88  F029         	goto	u6320
  6074   00530C                     u6321:
  6075   00530C  EF91  F029         	goto	l5847
  6076   005310                     u6320:
  6077   005310  6C36               	negf	___flge@ff1^(0+1280),c
  6078   005312  1E37               	comf	(___flge@ff1+1)^(0+1280),f,c
  6079   005314  B0D8               	btfsc	status,0,c
  6080   005316  2A37               	incf	(___flge@ff1+1)^(0+1280),f,c
  6081   005318  1E38               	comf	(___flge@ff1+2)^(0+1280),f,c
  6082   00531A  B0D8               	btfsc	status,0,c
  6083   00531C  2A38               	incf	(___flge@ff1+2)^(0+1280),f,c
  6084   00531E  0E80               	movlw	128
  6085   005320  5639               	subfwb	(___flge@ff1+3)^(0+1280),f,c
  6086   005322                     l5847:
  6087   005322  AE3D               	btfss	(___flge@ff2+3)^(0+1280),7,c
  6088   005324  EF96  F029         	goto	u6331
  6089   005328  EF98  F029         	goto	u6330
  6090   00532C                     u6331:
  6091   00532C  EFA1  F029         	goto	l927
  6092   005330                     u6330:
  6093   005330  6C3A               	negf	___flge@ff2^(0+1280),c
  6094   005332  1E3B               	comf	(___flge@ff2+1)^(0+1280),f,c
  6095   005334  B0D8               	btfsc	status,0,c
  6096   005336  2A3B               	incf	(___flge@ff2+1)^(0+1280),f,c
  6097   005338  1E3C               	comf	(___flge@ff2+2)^(0+1280),f,c
  6098   00533A  B0D8               	btfsc	status,0,c
  6099   00533C  2A3C               	incf	(___flge@ff2+2)^(0+1280),f,c
  6100   00533E  0E80               	movlw	128
  6101   005340  563D               	subfwb	(___flge@ff2+3)^(0+1280),f,c
  6102   005342                     l927:
  6103   005342  0E00               	movlw	0
  6104   005344  1A36               	xorwf	___flge@ff1^(0+1280),f,c
  6105   005346  0E00               	movlw	0
  6106   005348  1A37               	xorwf	(___flge@ff1+1)^(0+1280),f,c
  6107   00534A  0E00               	movlw	0
  6108   00534C  1A38               	xorwf	(___flge@ff1+2)^(0+1280),f,c
  6109   00534E  0E80               	movlw	128
  6110   005350  1A39               	xorwf	(___flge@ff1+3)^(0+1280),f,c
  6111   005352  0E00               	movlw	0
  6112   005354  1A3A               	xorwf	___flge@ff2^(0+1280),f,c
  6113   005356  0E00               	movlw	0
  6114   005358  1A3B               	xorwf	(___flge@ff2+1)^(0+1280),f,c
  6115   00535A  0E00               	movlw	0
  6116   00535C  1A3C               	xorwf	(___flge@ff2+2)^(0+1280),f,c
  6117   00535E  0E80               	movlw	128
  6118   005360  1A3D               	xorwf	(___flge@ff2+3)^(0+1280),f,c
  6119   005362  503A               	movf	___flge@ff2^(0+1280),w,c
  6120   005364  5C36               	subwf	___flge@ff1^(0+1280),w,c
  6121   005366  503B               	movf	(___flge@ff2+1)^(0+1280),w,c
  6122   005368  5837               	subwfb	(___flge@ff1+1)^(0+1280),w,c
  6123   00536A  503C               	movf	(___flge@ff2+2)^(0+1280),w,c
  6124   00536C  5838               	subwfb	(___flge@ff1+2)^(0+1280),w,c
  6125   00536E  503D               	movf	(___flge@ff2+3)^(0+1280),w,c
  6126   005370  5839               	subwfb	(___flge@ff1+3)^(0+1280),w,c
  6127   005372  B0D8               	btfsc	status,0,c
  6128   005374  EFBE  F029         	goto	u6341
  6129   005378  EFC0  F029         	goto	u6340
  6130   00537C                     u6341:
  6131   00537C  EFC3  F029         	goto	l5853
  6132   005380                     u6340:
  6133   005380  90D8               	bcf	status,0,c
  6134   005382  EFC4  F029         	goto	l932
  6135   005386                     l5853:
  6136   005386  80D8               	bsf	status,0,c
  6137   005388                     l932:
  6138   005388  0012               	return		;funcret
  6139   00538A                     __end_of___flge:
  6140                           	callstack 0
  6141                           
  6142 ;; *************** function ___fleq *****************
  6143 ;; Defined at:
  6144 ;;		line 4 in file "C:\Program Files\Microchip\xc8\v2.40\pic\sources\c99\common\fleq.c"
  6145 ;; Parameters:    Size  Location     Type
  6146 ;;  ff1             4    2[COMRAM] unsigned char 
  6147 ;;  ff2             4    6[COMRAM] unsigned char 
  6148 ;; Auto vars:     Size  Location     Type
  6149 ;;		None
  6150 ;; Return value:  Size  Location     Type
  6151 ;;		None               void
  6152 ;; Registers used:
  6153 ;;		wreg, status,2, status,0
  6154 ;; Tracked objects:
  6155 ;;		On entry : 0/0
  6156 ;;		On exit  : 0/0
  6157 ;;		Unchanged: 0/0
  6158 ;; Data sizes:     COMRAM   BANK5   BANK6   BANK7   BANK8   BANK9  BANK10  BANK11  BANK12  BANK13  BANK14  BANK15  BANK1
      +6  BANK17  BANK18  BANK19  BANK20  BANK21  BANK22  BANK23  BANK24  BANK25  BANK26  BANK27  BANK28  BANK29  BANK30  BANK3
      +1  BANK32  BANK33  BANK34  BANK35  BANK36
  6159 ;;      Params:         8       0       0       0       0       0       0       0       0       0       0       0       
      +0       0       0       0       0       0       0       0       0       0       0       0       0       0       0       
      +0       0       0       0       0       0
  6160 ;;      Locals:         0       0       0       0       0       0       0       0       0       0       0       0       
      +0       0       0       0       0       0       0       0       0       0       0       0       0       0       0       
      +0       0       0       0       0       0
  6161 ;;      Temps:          4       0       0       0       0       0       0       0       0       0       0       0       
      +0       0       0       0       0       0       0       0       0       0       0       0       0       0       0       
      +0       0       0       0       0       0
  6162 ;;      Totals:        12       0       0       0       0       0       0       0       0       0       0       0       
      +0       0       0       0       0       0       0       0       0       0       0       0       0       0       0       
      +0       0       0       0       0       0
  6163 ;;Total ram usage:       12 bytes
  6164 ;; Hardware stack levels used: 1
  6165 ;; Hardware stack levels required when called: 4
  6166 ;; This function calls:
  6167 ;;		Nothing
  6168 ;; This function is called by:
  6169 ;;		_efgtoa
  6170 ;; This function uses a non-reentrant model
  6171 ;;
  6172                           
  6173                           	psect	text16
  6174   00553C                     __ptext16:
  6175                           	callstack 0
  6176   00553C                     ___fleq:
  6177                           	callstack 118
  6178   00553C  0E00               	movlw	0
  6179   00553E  1403               	andwf	___fleq@ff1^(0+1280),w,c
  6180   005540  6E0B               	movwf	??___fleq^(0+1280),c
  6181   005542  0E00               	movlw	0
  6182   005544  1404               	andwf	(___fleq@ff1+1)^(0+1280),w,c
  6183   005546  6E0C               	movwf	(??___fleq+1)^(0+1280),c
  6184   005548  0E80               	movlw	128
  6185   00554A  1405               	andwf	(___fleq@ff1+2)^(0+1280),w,c
  6186   00554C  6E0D               	movwf	(??___fleq+2)^(0+1280),c
  6187   00554E  0E7F               	movlw	127
  6188   005550  1406               	andwf	(___fleq@ff1+3)^(0+1280),w,c
  6189   005552  6E0E               	movwf	(??___fleq+3)^(0+1280),c
  6190   005554  500B               	movf	??___fleq^(0+1280),w,c
  6191   005556  100C               	iorwf	(??___fleq+1)^(0+1280),w,c
  6192   005558  100D               	iorwf	(??___fleq+2)^(0+1280),w,c
  6193   00555A  100E               	iorwf	(??___fleq+3)^(0+1280),w,c
  6194   00555C  A4D8               	btfss	status,2,c
  6195   00555E  EFB3  F02A         	goto	u6271
  6196   005562  EFB5  F02A         	goto	u6270
  6197   005566                     u6271:
  6198   005566  EFBD  F02A         	goto	l5823
  6199   00556A                     u6270:
  6200   00556A  0E00               	movlw	0
  6201   00556C  6E03               	movwf	___fleq@ff1^(0+1280),c
  6202   00556E  0E00               	movlw	0
  6203   005570  6E04               	movwf	(___fleq@ff1+1)^(0+1280),c
  6204   005572  0E00               	movlw	0
  6205   005574  6E05               	movwf	(___fleq@ff1+2)^(0+1280),c
  6206   005576  0E00               	movlw	0
  6207   005578  6E06               	movwf	(___fleq@ff1+3)^(0+1280),c
  6208   00557A                     l5823:
  6209   00557A  0E00               	movlw	0
  6210   00557C  1407               	andwf	___fleq@ff2^(0+1280),w,c
  6211   00557E  6E0B               	movwf	??___fleq^(0+1280),c
  6212   005580  0E00               	movlw	0
  6213   005582  1408               	andwf	(___fleq@ff2+1)^(0+1280),w,c
  6214   005584  6E0C               	movwf	(??___fleq+1)^(0+1280),c
  6215   005586  0E80               	movlw	128
  6216   005588  1409               	andwf	(___fleq@ff2+2)^(0+1280),w,c
  6217   00558A  6E0D               	movwf	(??___fleq+2)^(0+1280),c
  6218   00558C  0E7F               	movlw	127
  6219   00558E  140A               	andwf	(___fleq@ff2+3)^(0+1280),w,c
  6220   005590  6E0E               	movwf	(??___fleq+3)^(0+1280),c
  6221   005592  500B               	movf	??___fleq^(0+1280),w,c
  6222   005594  100C               	iorwf	(??___fleq+1)^(0+1280),w,c
  6223   005596  100D               	iorwf	(??___fleq+2)^(0+1280),w,c
  6224   005598  100E               	iorwf	(??___fleq+3)^(0+1280),w,c
  6225   00559A  A4D8               	btfss	status,2,c
  6226   00559C  EFD2  F02A         	goto	u6281
  6227   0055A0  EFD4  F02A         	goto	u6280
  6228   0055A4                     u6281:
  6229   0055A4  EFDC  F02A         	goto	l5827
  6230   0055A8                     u6280:
  6231   0055A8  0E00               	movlw	0
  6232   0055AA  6E07               	movwf	___fleq@ff2^(0+1280),c
  6233   0055AC  0E00               	movlw	0
  6234   0055AE  6E08               	movwf	(___fleq@ff2+1)^(0+1280),c
  6235   0055B0  0E00               	movlw	0
  6236   0055B2  6E09               	movwf	(___fleq@ff2+2)^(0+1280),c
  6237   0055B4  0E00               	movlw	0
  6238   0055B6  6E0A               	movwf	(___fleq@ff2+3)^(0+1280),c
  6239   0055B8                     l5827:
  6240   0055B8  5007               	movf	___fleq@ff2^(0+1280),w,c
  6241   0055BA  1803               	xorwf	___fleq@ff1^(0+1280),w,c
  6242   0055BC  E10F               	bnz	u6290
  6243   0055BE  5008               	movf	(___fleq@ff2+1)^(0+1280),w,c
  6244   0055C0  1804               	xorwf	(___fleq@ff1+1)^(0+1280),w,c
  6245   0055C2  E10C               	bnz	u6290
  6246   0055C4  5009               	movf	(___fleq@ff2+2)^(0+1280),w,c
  6247   0055C6  1805               	xorwf	(___fleq@ff1+2)^(0+1280),w,c
  6248   0055C8  E109               	bnz	u6290
  6249   0055CA  500A               	movf	(___fleq@ff2+3)^(0+1280),w,c
  6250   0055CC  1806               	xorwf	(___fleq@ff1+3)^(0+1280),w,c
  6251   0055CE  B4D8               	btfsc	status,2,c
  6252   0055D0  EFEC  F02A         	goto	u6291
  6253   0055D4  EFEE  F02A         	goto	u6290
  6254   0055D8                     u6291:
  6255   0055D8  EFF1  F02A         	goto	l5831
  6256   0055DC                     u6290:
  6257   0055DC  90D8               	bcf	status,0,c
  6258   0055DE  EFF2  F02A         	goto	l921
  6259   0055E2                     l5831:
  6260   0055E2  80D8               	bsf	status,0,c
  6261   0055E4                     l921:
  6262   0055E4  0012               	return		;funcret
  6263   0055E6                     __end_of___fleq:
  6264                           	callstack 0
  6265                           
  6266 ;; *************** function _dtoa *****************
  6267 ;; Defined at:
  6268 ;;		line 443 in file "C:\Program Files\Microchip\xc8\v2.40\pic\sources\c99\common\doprnt.c"
  6269 ;; Parameters:    Size  Location     Type
  6270 ;;  fp              2   31[COMRAM] PTR struct _IO_FILE
  6271 ;;		 -> NULL(0), 
  6272 ;;  d               8   33[COMRAM] long long 
  6273 ;; Auto vars:     Size  Location     Type
  6274 ;;  n               8   55[COMRAM] long long 
  6275 ;;  i               2   64[COMRAM] int 
  6276 ;;  w               2   53[COMRAM] int 
  6277 ;;  p               2   51[COMRAM] int 
  6278 ;;  s               1   63[COMRAM] unsigned char 
  6279 ;; Return value:  Size  Location     Type
  6280 ;;                  1    wreg      void 
  6281 ;; Registers used:
  6282 ;;		wreg, fsr1l, fsr1h, fsr2l, fsr2h, status,2, status,0, cstack
  6283 ;; Tracked objects:
  6284 ;;		On entry : 0/0
  6285 ;;		On exit  : 0/0
  6286 ;;		Unchanged: 0/0
  6287 ;; Data sizes:     COMRAM   BANK5   BANK6   BANK7   BANK8   BANK9  BANK10  BANK11  BANK12  BANK13  BANK14  BANK15  BANK1
      +6  BANK17  BANK18  BANK19  BANK20  BANK21  BANK22  BANK23  BANK24  BANK25  BANK26  BANK27  BANK28  BANK29  BANK30  BANK3
      +1  BANK32  BANK33  BANK34  BANK35  BANK36
  6288 ;;      Params:        10       0       0       0       0       0       0       0       0       0       0       0       
      +0       0       0       0       0       0       0       0       0       0       0       0       0       0       0       
      +0       0       0       0       0       0
  6289 ;;      Locals:        17       0       0       0       0       0       0       0       0       0       0       0       
      +0       0       0       0       0       0       0       0       0       0       0       0       0       0       0       
      +0       0       0       0       0       0
  6290 ;;      Temps:          8       0       0       0       0       0       0       0       0       0       0       0       
      +0       0       0       0       0       0       0       0       0       0       0       0       0       0       0       
      +0       0       0       0       0       0
  6291 ;;      Totals:        35       0       0       0       0       0       0       0       0       0       0       0       
      +0       0       0       0       0       0       0       0       0       0       0       0       0       0       0       
      +0       0       0       0       0       0
  6292 ;;Total ram usage:       35 bytes
  6293 ;; Hardware stack levels used: 1
  6294 ;; Hardware stack levels required when called: 9
  6295 ;; This function calls:
  6296 ;;		___aodiv
  6297 ;;		___aomod
  6298 ;;		_abs
  6299 ;;		_pad
  6300 ;; This function is called by:
  6301 ;;		_vfpfcnvrt
  6302 ;; This function uses a non-reentrant model
  6303 ;;
  6304                           
  6305                           	psect	text17
  6306   0045B0                     __ptext17:
  6307                           	callstack 0
  6308   0045B0                     _dtoa:
  6309                           	callstack 114
  6310   0045B0                     
  6311                           ;C:\Program Files\Microchip\xc8\v2.40\pic\sources\c99\common\doprnt.c: 443: static void 
      +                          dtoa(FILE *fp, long long d);C:\Program Files\Microchip\xc8\v2.40\pic\sources\c99\common\
      +                          doprnt.c: 444: {;C:\Program Files\Microchip\xc8\v2.40\pic\sources\c99\common\doprnt.c: 4
      +                          45:  char s;;C:\Program Files\Microchip\xc8\v2.40\pic\sources\c99\common\doprnt.c: 446: 
      +                              int i, p, w;;C:\Program Files\Microchip\xc8\v2.40\pic\sources\c99\common\doprnt.c: 4
      +                          47:     long long n;;C:\Program Files\Microchip\xc8\v2.40\pic\sources\c99\common\doprnt.
      +                          c: 450:     n = d;
  6312   0045B0  C522  F538         	movff	dtoa@d,dtoa@n
  6313   0045B4  C523  F539         	movff	dtoa@d+1,dtoa@n+1
  6314   0045B8  C524  F53A         	movff	dtoa@d+2,dtoa@n+2
  6315   0045BC  C525  F53B         	movff	dtoa@d+3,dtoa@n+3
  6316   0045C0  C526  F53C         	movff	dtoa@d+4,dtoa@n+4
  6317   0045C4  C527  F53D         	movff	dtoa@d+5,dtoa@n+5
  6318   0045C8  C528  F53E         	movff	dtoa@d+6,dtoa@n+6
  6319   0045CC  C529  F53F         	movff	dtoa@d+7,dtoa@n+7
  6320   0045D0                     
  6321                           ;C:\Program Files\Microchip\xc8\v2.40\pic\sources\c99\common\doprnt.c: 451:     s = n < 
      +                          0 ? 1 : 0;
  6322   0045D0  BE3F               	btfsc	(dtoa@n+7)^(0+1280),7,c
  6323   0045D2  EFED  F022         	goto	u6721
  6324   0045D6  EFF0  F022         	goto	u6720
  6325   0045DA                     u6721:
  6326   0045DA  0E01               	movlw	1
  6327   0045DC  EFF1  F022         	goto	u6730
  6328   0045E0                     u6720:
  6329   0045E0  0E00               	movlw	0
  6330   0045E2                     u6730:
  6331   0045E2  6E40               	movwf	dtoa@s^(0+1280),c
  6332   0045E4                     
  6333                           ;C:\Program Files\Microchip\xc8\v2.40\pic\sources\c99\common\doprnt.c: 452:     if (s) {
  6334   0045E4  5040               	movf	dtoa@s^(0+1280),w,c
  6335   0045E6  B4D8               	btfsc	status,2,c
  6336   0045E8  EFF8  F022         	goto	u6741
  6337   0045EC  EFFA  F022         	goto	u6740
  6338   0045F0                     u6741:
  6339   0045F0  EF0A  F023         	goto	l6025
  6340   0045F4                     u6740:
  6341   0045F4                     
  6342                           ;C:\Program Files\Microchip\xc8\v2.40\pic\sources\c99\common\doprnt.c: 453:         n = 
      +                          -n;
  6343   0045F4  1E3F               	comf	(dtoa@n+7)^(0+1280),f,c
  6344   0045F6  1E3E               	comf	(dtoa@n+6)^(0+1280),f,c
  6345   0045F8  1E3D               	comf	(dtoa@n+5)^(0+1280),f,c
  6346   0045FA  1E3C               	comf	(dtoa@n+4)^(0+1280),f,c
  6347   0045FC  1E3B               	comf	(dtoa@n+3)^(0+1280),f,c
  6348   0045FE  1E3A               	comf	(dtoa@n+2)^(0+1280),f,c
  6349   004600  1E39               	comf	(dtoa@n+1)^(0+1280),f,c
  6350   004602  6C38               	negf	dtoa@n^(0+1280),c
  6351   004604  0E00               	movlw	0
  6352   004606  2239               	addwfc	(dtoa@n+1)^(0+1280),f,c
  6353   004608  223A               	addwfc	(dtoa@n+2)^(0+1280),f,c
  6354   00460A  223B               	addwfc	(dtoa@n+3)^(0+1280),f,c
  6355   00460C  223C               	addwfc	(dtoa@n+4)^(0+1280),f,c
  6356   00460E  223D               	addwfc	(dtoa@n+5)^(0+1280),f,c
  6357   004610  223E               	addwfc	(dtoa@n+6)^(0+1280),f,c
  6358   004612  223F               	addwfc	(dtoa@n+7)^(0+1280),f,c
  6359   004614                     l6025:
  6360                           
  6361                           ;C:\Program Files\Microchip\xc8\v2.40\pic\sources\c99\common\doprnt.c: 458:     if (!(pr
      +                          ec < 0)) {
  6362   004614  0105               	movlb	5	; () banked
  6363   004616  BFD0               	btfsc	(_prec+1)& (0+255),7,b
  6364   004618  EF10  F023         	goto	u6751
  6365   00461C  EF12  F023         	goto	u6750
  6366   004620                     u6751:
  6367   004620  EF13  F023         	goto	l6029
  6368   004624                     u6750:
  6369   004624                     
  6370                           ; BSR set to: 5
  6371                           ;C:\Program Files\Microchip\xc8\v2.40\pic\sources\c99\common\doprnt.c: 459:         flag
      +                          s &= ~(1 << 1);
  6372   004624  925C               	bcf	_flags^(0+1280),1,c
  6373   004626                     l6029:
  6374                           
  6375                           ; BSR set to: 5
  6376                           ;C:\Program Files\Microchip\xc8\v2.40\pic\sources\c99\common\doprnt.c: 462:     p = (0 <
      +                           prec) ? prec : 1;
  6377   004626  BFD0               	btfsc	(_prec+1)& (0+255),7,b
  6378   004628  EF20  F023         	goto	u6760
  6379   00462C  51D0               	movf	(_prec+1)& (0+255),w,b
  6380   00462E  E106               	bnz	u6761
  6381   004630  05CF               	decf	_prec& (0+255),w,b
  6382   004632  B0D8               	btfsc	status,0,c
  6383   004634  EF1E  F023         	goto	u6761
  6384   004638  EF20  F023         	goto	u6760
  6385   00463C                     u6761:
  6386   00463C  EF26  F023         	goto	l1388
  6387   004640                     u6760:
  6388   004640                     
  6389                           ; BSR set to: 5
  6390   004640  0E00               	movlw	0
  6391   004642  6E35               	movwf	(dtoa@p+1)^(0+1280),c
  6392   004644  0E01               	movlw	1
  6393   004646  6E34               	movwf	dtoa@p^(0+1280),c
  6394   004648  EF2A  F023         	goto	l1390
  6395   00464C                     l1388:
  6396                           
  6397                           ; BSR set to: 5
  6398   00464C  C5CF  F534         	movff	_prec,dtoa@p
  6399   004650  C5D0  F535         	movff	_prec+1,dtoa@p+1
  6400   004654                     l1390:
  6401                           
  6402                           ; BSR set to: 5
  6403                           ;C:\Program Files\Microchip\xc8\v2.40\pic\sources\c99\common\doprnt.c: 463:     w = widt
      +                          h;
  6404   004654  C5CD  F536         	movff	_width,dtoa@w
  6405   004658  C5CE  F537         	movff	_width+1,dtoa@w+1
  6406   00465C                     
  6407                           ; BSR set to: 5
  6408                           ;C:\Program Files\Microchip\xc8\v2.40\pic\sources\c99\common\doprnt.c: 464:     if (s
  6409   00465C  5040               	movf	dtoa@s^(0+1280),w,c
  6410   00465E  B4D8               	btfsc	status,2,c
  6411   004660  EF34  F023         	goto	u6771
  6412   004664  EF36  F023         	goto	u6770
  6413   004668                     u6771:
  6414   004668  EF4D  F023         	goto	l1391
  6415   00466C                     u6770:
  6416   00466C                     
  6417                           ; BSR set to: 5
  6418                           ;C:\Program Files\Microchip\xc8\v2.40\pic\sources\c99\common\doprnt.c: 468:     ) {;C:\P
      +                          rogram Files\Microchip\xc8\v2.40\pic\sources\c99\common\doprnt.c: 469:         --w;
  6419   00466C  0636               	decf	dtoa@w^(0+1280),f,c
  6420   00466E  A0D8               	btfss	status,0,c
  6421   004670  0637               	decf	(dtoa@w+1)^(0+1280),f,c
  6422   004672                     
  6423                           ; BSR set to: 5
  6424                           ;C:\Program Files\Microchip\xc8\v2.40\pic\sources\c99\common\doprnt.c: 470:   s = s ? '-
      +                          ' : '+';
  6425   004672  5040               	movf	dtoa@s^(0+1280),w,c
  6426   004674  A4D8               	btfss	status,2,c
  6427   004676  EF3F  F023         	goto	u6781
  6428   00467A  EF41  F023         	goto	u6780
  6429   00467E                     u6781:
  6430   00467E  EF47  F023         	goto	l6041
  6431   004682                     u6780:
  6432   004682                     
  6433                           ; BSR set to: 5
  6434   004682  0E00               	movlw	0
  6435   004684  6E33               	movwf	(_dtoa$1803+1)^(0+1280),c
  6436   004686  0E2B               	movlw	43
  6437   004688  6E32               	movwf	_dtoa$1803^(0+1280),c
  6438   00468A  EF4B  F023         	goto	l6043
  6439   00468E                     l6041:
  6440                           
  6441                           ; BSR set to: 5
  6442   00468E  0E00               	movlw	0
  6443   004690  6E33               	movwf	(_dtoa$1803+1)^(0+1280),c
  6444   004692  0E2D               	movlw	45
  6445   004694  6E32               	movwf	_dtoa$1803^(0+1280),c
  6446   004696                     l6043:
  6447                           
  6448                           ; BSR set to: 5
  6449   004696  C532  F540         	movff	_dtoa$1803,dtoa@s
  6450   00469A                     l1391:
  6451                           
  6452                           ; BSR set to: 5
  6453                           ;C:\Program Files\Microchip\xc8\v2.40\pic\sources\c99\common\doprnt.c: 480:     i = size
      +                          of(dbuf) - 1;
  6454   00469A  0E00               	movlw	0
  6455   00469C  6E42               	movwf	(dtoa@i+1)^(0+1280),c
  6456   00469E  0E4F               	movlw	79
  6457   0046A0  6E41               	movwf	dtoa@i^(0+1280),c
  6458   0046A2                     
  6459                           ; BSR set to: 5
  6460                           ;C:\Program Files\Microchip\xc8\v2.40\pic\sources\c99\common\doprnt.c: 481:     dbuf[i] 
      +                          = '\0';
  6461   0046A2  0E00               	movlw	0
  6462   0046A4  0106               	movlb	6	; () banked
  6463   0046A6  6F4F               	movwf	(_dbuf+79)& (0+255),b
  6464                           
  6465                           ;C:\Program Files\Microchip\xc8\v2.40\pic\sources\c99\common\doprnt.c: 482:     while (!
      +                          (i < 1) && (n || (0 < p)
  6466   0046A8  EFD2  F023         	goto	l6057
  6467   0046AC                     l6047:
  6468                           
  6469                           ;C:\Program Files\Microchip\xc8\v2.40\pic\sources\c99\common\doprnt.c: 486:     )) {;C:\
      +                          Program Files\Microchip\xc8\v2.40\pic\sources\c99\common\doprnt.c: 487:         --i;
  6470   0046AC  0641               	decf	dtoa@i^(0+1280),f,c
  6471   0046AE  A0D8               	btfss	status,0,c
  6472   0046B0  0642               	decf	(dtoa@i+1)^(0+1280),f,c
  6473   0046B2                     
  6474                           ;C:\Program Files\Microchip\xc8\v2.40\pic\sources\c99\common\doprnt.c: 488:         dbuf
      +                          [i] = (char)((int)'0' + abs(n % 10));
  6475   0046B2  0E00               	movlw	low _dbuf
  6476   0046B4  2441               	addwf	dtoa@i^(0+1280),w,c
  6477   0046B6  6ED9               	movwf	fsr2l,c
  6478   0046B8  0E06               	movlw	high _dbuf
  6479   0046BA  2042               	addwfc	(dtoa@i+1)^(0+1280),w,c
  6480   0046BC  6EDA               	movwf	fsr2h,c
  6481   0046BE  C538  F503         	movff	dtoa@n,___aomod@dividend
  6482   0046C2  C539  F504         	movff	dtoa@n+1,___aomod@dividend+1
  6483   0046C6  C53A  F505         	movff	dtoa@n+2,___aomod@dividend+2
  6484   0046CA  C53B  F506         	movff	dtoa@n+3,___aomod@dividend+3
  6485   0046CE  C53C  F507         	movff	dtoa@n+4,___aomod@dividend+4
  6486   0046D2  C53D  F508         	movff	dtoa@n+5,___aomod@dividend+5
  6487   0046D6  C53E  F509         	movff	dtoa@n+6,___aomod@dividend+6
  6488   0046DA  C53F  F50A         	movff	dtoa@n+7,___aomod@dividend+7
  6489   0046DE  0E0A               	movlw	10
  6490   0046E0  6E0B               	movwf	___aomod@divisor^(0+1280),c
  6491   0046E2  0E00               	movlw	0
  6492   0046E4  6E0C               	movwf	(___aomod@divisor+1)^(0+1280),c
  6493   0046E6  0E00               	movlw	0
  6494   0046E8  6E0D               	movwf	(___aomod@divisor+2)^(0+1280),c
  6495   0046EA  0E00               	movlw	0
  6496   0046EC  6E0E               	movwf	(___aomod@divisor+3)^(0+1280),c
  6497   0046EE  0E00               	movlw	0
  6498   0046F0  6E0F               	movwf	(___aomod@divisor+4)^(0+1280),c
  6499   0046F2  0E00               	movlw	0
  6500   0046F4  6E10               	movwf	(___aomod@divisor+5)^(0+1280),c
  6501   0046F6  0E00               	movlw	0
  6502   0046F8  6E11               	movwf	(___aomod@divisor+6)^(0+1280),c
  6503   0046FA  0E00               	movlw	0
  6504   0046FC  6E12               	movwf	(___aomod@divisor+7)^(0+1280),c
  6505   0046FE  ECDA  F026         	call	___aomod	;wreg free
  6506   004702  C503  F52A         	movff	?___aomod,??_dtoa
  6507   004706  C504  F52B         	movff	?___aomod+1,??_dtoa+1
  6508   00470A  C505  F52C         	movff	?___aomod+2,??_dtoa+2
  6509   00470E  C506  F52D         	movff	?___aomod+3,??_dtoa+3
  6510   004712  C507  F52E         	movff	?___aomod+4,??_dtoa+4
  6511   004716  C508  F52F         	movff	?___aomod+5,??_dtoa+5
  6512   00471A  C509  F530         	movff	?___aomod+6,??_dtoa+6
  6513   00471E  C50A  F531         	movff	?___aomod+7,??_dtoa+7
  6514   004722  C52A  F515         	movff	??_dtoa,abs@a
  6515   004726  C52B  F516         	movff	??_dtoa+1,abs@a+1
  6516   00472A  ECA9  F02D         	call	_abs	;wreg free
  6517   00472E  5015               	movf	?_abs^(0+1280),w,c
  6518   004730  0F30               	addlw	48
  6519   004732  6EDF               	movwf	indf2,c
  6520   004734                     
  6521                           ;C:\Program Files\Microchip\xc8\v2.40\pic\sources\c99\common\doprnt.c: 489:         --p;
  6522   004734  0634               	decf	dtoa@p^(0+1280),f,c
  6523   004736  A0D8               	btfss	status,0,c
  6524   004738  0635               	decf	(dtoa@p+1)^(0+1280),f,c
  6525   00473A                     
  6526                           ;C:\Program Files\Microchip\xc8\v2.40\pic\sources\c99\common\doprnt.c: 490:         --w;
  6527   00473A  0636               	decf	dtoa@w^(0+1280),f,c
  6528   00473C  A0D8               	btfss	status,0,c
  6529   00473E  0637               	decf	(dtoa@w+1)^(0+1280),f,c
  6530   004740                     
  6531                           ;C:\Program Files\Microchip\xc8\v2.40\pic\sources\c99\common\doprnt.c: 491:         n = 
      +                          n / 10;
  6532   004740  C538  F503         	movff	dtoa@n,___aodiv@dividend
  6533   004744  C539  F504         	movff	dtoa@n+1,___aodiv@dividend+1
  6534   004748  C53A  F505         	movff	dtoa@n+2,___aodiv@dividend+2
  6535   00474C  C53B  F506         	movff	dtoa@n+3,___aodiv@dividend+3
  6536   004750  C53C  F507         	movff	dtoa@n+4,___aodiv@dividend+4
  6537   004754  C53D  F508         	movff	dtoa@n+5,___aodiv@dividend+5
  6538   004758  C53E  F509         	movff	dtoa@n+6,___aodiv@dividend+6
  6539   00475C  C53F  F50A         	movff	dtoa@n+7,___aodiv@dividend+7
  6540   004760  0E0A               	movlw	10
  6541   004762  6E0B               	movwf	___aodiv@divisor^(0+1280),c
  6542   004764  0E00               	movlw	0
  6543   004766  6E0C               	movwf	(___aodiv@divisor+1)^(0+1280),c
  6544   004768  0E00               	movlw	0
  6545   00476A  6E0D               	movwf	(___aodiv@divisor+2)^(0+1280),c
  6546   00476C  0E00               	movlw	0
  6547   00476E  6E0E               	movwf	(___aodiv@divisor+3)^(0+1280),c
  6548   004770  0E00               	movlw	0
  6549   004772  6E0F               	movwf	(___aodiv@divisor+4)^(0+1280),c
  6550   004774  0E00               	movlw	0
  6551   004776  6E10               	movwf	(___aodiv@divisor+5)^(0+1280),c
  6552   004778  0E00               	movlw	0
  6553   00477A  6E11               	movwf	(___aodiv@divisor+6)^(0+1280),c
  6554   00477C  0E00               	movlw	0
  6555   00477E  6E12               	movwf	(___aodiv@divisor+7)^(0+1280),c
  6556   004780  EC16  F026         	call	___aodiv	;wreg free
  6557   004784  C503  F538         	movff	?___aodiv,dtoa@n
  6558   004788  C504  F539         	movff	?___aodiv+1,dtoa@n+1
  6559   00478C  C505  F53A         	movff	?___aodiv+2,dtoa@n+2
  6560   004790  C506  F53B         	movff	?___aodiv+3,dtoa@n+3
  6561   004794  C507  F53C         	movff	?___aodiv+4,dtoa@n+4
  6562   004798  C508  F53D         	movff	?___aodiv+5,dtoa@n+5
  6563   00479C  C509  F53E         	movff	?___aodiv+6,dtoa@n+6
  6564   0047A0  C50A  F53F         	movff	?___aodiv+7,dtoa@n+7
  6565   0047A4                     l6057:
  6566                           
  6567                           ;C:\Program Files\Microchip\xc8\v2.40\pic\sources\c99\common\doprnt.c: 482:     while (!
      +                          (i < 1) && (n || (0 < p)
  6568   0047A4  BE42               	btfsc	(dtoa@i+1)^(0+1280),7,c
  6569   0047A6  EFDD  F023         	goto	u6791
  6570   0047AA  5042               	movf	(dtoa@i+1)^(0+1280),w,c
  6571   0047AC  E108               	bnz	u6790
  6572   0047AE  0441               	decf	dtoa@i^(0+1280),w,c
  6573   0047B0  A0D8               	btfss	status,0,c
  6574   0047B2  EFDD  F023         	goto	u6791
  6575   0047B6  EFDF  F023         	goto	u6790
  6576   0047BA                     u6791:
  6577   0047BA  EF0F  F024         	goto	l6067
  6578   0047BE                     u6790:
  6579   0047BE  5038               	movf	dtoa@n^(0+1280),w,c
  6580   0047C0  1039               	iorwf	(dtoa@n+1)^(0+1280),w,c
  6581   0047C2  103A               	iorwf	(dtoa@n+2)^(0+1280),w,c
  6582   0047C4  103B               	iorwf	(dtoa@n+3)^(0+1280),w,c
  6583   0047C6  103C               	iorwf	(dtoa@n+4)^(0+1280),w,c
  6584   0047C8  103D               	iorwf	(dtoa@n+5)^(0+1280),w,c
  6585   0047CA  103E               	iorwf	(dtoa@n+6)^(0+1280),w,c
  6586   0047CC  103F               	iorwf	(dtoa@n+7)^(0+1280),w,c
  6587   0047CE  A4D8               	btfss	status,2,c
  6588   0047D0  EFEC  F023         	goto	u6801
  6589   0047D4  EFEE  F023         	goto	u6800
  6590   0047D8                     u6801:
  6591   0047D8  EF56  F023         	goto	l6047
  6592   0047DC                     u6800:
  6593   0047DC  BE35               	btfsc	(dtoa@p+1)^(0+1280),7,c
  6594   0047DE  EFFB  F023         	goto	u6810
  6595   0047E2  5035               	movf	(dtoa@p+1)^(0+1280),w,c
  6596   0047E4  E106               	bnz	u6811
  6597   0047E6  0434               	decf	dtoa@p^(0+1280),w,c
  6598   0047E8  B0D8               	btfsc	status,0,c
  6599   0047EA  EFF9  F023         	goto	u6811
  6600   0047EE  EFFB  F023         	goto	u6810
  6601   0047F2                     u6811:
  6602   0047F2  EF56  F023         	goto	l6047
  6603   0047F6                     u6810:
  6604   0047F6  BE37               	btfsc	(dtoa@w+1)^(0+1280),7,c
  6605   0047F8  EF06  F024         	goto	u6821
  6606   0047FC  5037               	movf	(dtoa@w+1)^(0+1280),w,c
  6607   0047FE  E108               	bnz	u6820
  6608   004800  0436               	decf	dtoa@w^(0+1280),w,c
  6609   004802  A0D8               	btfss	status,0,c
  6610   004804  EF06  F024         	goto	u6821
  6611   004808  EF08  F024         	goto	u6820
  6612   00480C                     u6821:
  6613   00480C  EF0F  F024         	goto	l6067
  6614   004810                     u6820:
  6615   004810  B25C               	btfsc	_flags^(0+1280),1,c
  6616   004812  EF0D  F024         	goto	u6831
  6617   004816  EF0F  F024         	goto	u6830
  6618   00481A                     u6831:
  6619   00481A  EF56  F023         	goto	l6047
  6620   00481E                     u6830:
  6621   00481E                     l6067:
  6622                           
  6623                           ;C:\Program Files\Microchip\xc8\v2.40\pic\sources\c99\common\doprnt.c: 495:     if (s !=
      +                           0) {
  6624   00481E  5040               	movf	dtoa@s^(0+1280),w,c
  6625   004820  B4D8               	btfsc	status,2,c
  6626   004822  EF15  F024         	goto	u6841
  6627   004826  EF17  F024         	goto	u6840
  6628   00482A                     u6841:
  6629   00482A  EF22  F024         	goto	l6073
  6630   00482E                     u6840:
  6631   00482E                     
  6632                           ;C:\Program Files\Microchip\xc8\v2.40\pic\sources\c99\common\doprnt.c: 496:         --i;
  6633   00482E  0641               	decf	dtoa@i^(0+1280),f,c
  6634   004830  A0D8               	btfss	status,0,c
  6635   004832  0642               	decf	(dtoa@i+1)^(0+1280),f,c
  6636   004834                     
  6637                           ;C:\Program Files\Microchip\xc8\v2.40\pic\sources\c99\common\doprnt.c: 497:         dbuf
      +                          [i] = s;
  6638   004834  0E00               	movlw	low _dbuf
  6639   004836  2441               	addwf	dtoa@i^(0+1280),w,c
  6640   004838  6ED9               	movwf	fsr2l,c
  6641   00483A  0E06               	movlw	high _dbuf
  6642   00483C  2042               	addwfc	(dtoa@i+1)^(0+1280),w,c
  6643   00483E  6EDA               	movwf	fsr2h,c
  6644   004840  C540  F4DF         	movff	dtoa@s,indf2
  6645   004844                     l6073:
  6646                           
  6647                           ;C:\Program Files\Microchip\xc8\v2.40\pic\sources\c99\common\doprnt.c: 501:     return (
      +                          void) pad(fp, &dbuf[i], w);
  6648   004844  C520  F515         	movff	dtoa@fp,pad@fp
  6649   004848  C521  F516         	movff	dtoa@fp+1,pad@fp+1
  6650   00484C  0E00               	movlw	low _dbuf
  6651   00484E  2441               	addwf	dtoa@i^(0+1280),w,c
  6652   004850  6E17               	movwf	pad@buf^(0+1280),c
  6653   004852  0E06               	movlw	high _dbuf
  6654   004854  2042               	addwfc	(dtoa@i+1)^(0+1280),w,c
  6655   004856  6E18               	movwf	(pad@buf+1)^(0+1280),c
  6656   004858  C536  F519         	movff	dtoa@w,pad@p
  6657   00485C  C537  F51A         	movff	dtoa@w+1,pad@p+1
  6658   004860  ECF3  F02A         	call	_pad	;wreg free
  6659   004864  0012               	return		;funcret
  6660   004866                     __end_of_dtoa:
  6661                           	callstack 0
  6662                           
  6663 ;; *************** function _pad *****************
  6664 ;; Defined at:
  6665 ;;		line 133 in file "C:\Program Files\Microchip\xc8\v2.40\pic\sources\c99\common\doprnt.c"
  6666 ;; Parameters:    Size  Location     Type
  6667 ;;  fp              2   20[COMRAM] PTR struct _IO_FILE
  6668 ;;		 -> NULL(0), 
  6669 ;;  buf             2   22[COMRAM] PTR unsigned char 
  6670 ;;		 -> dbuf(80), 
  6671 ;;  p               2   24[COMRAM] int 
  6672 ;; Auto vars:     Size  Location     Type
  6673 ;;  w               2   29[COMRAM] int 
  6674 ;;  i               2   27[COMRAM] int 
  6675 ;; Return value:  Size  Location     Type
  6676 ;;                  1    wreg      void 
  6677 ;; Registers used:
  6678 ;;		wreg, fsr1l, fsr1h, fsr2l, fsr2h, status,2, status,0, cstack
  6679 ;; Tracked objects:
  6680 ;;		On entry : 0/0
  6681 ;;		On exit  : 0/0
  6682 ;;		Unchanged: 0/0
  6683 ;; Data sizes:     COMRAM   BANK5   BANK6   BANK7   BANK8   BANK9  BANK10  BANK11  BANK12  BANK13  BANK14  BANK15  BANK1
      +6  BANK17  BANK18  BANK19  BANK20  BANK21  BANK22  BANK23  BANK24  BANK25  BANK26  BANK27  BANK28  BANK29  BANK30  BANK3
      +1  BANK32  BANK33  BANK34  BANK35  BANK36
  6684 ;;      Params:         6       0       0       0       0       0       0       0       0       0       0       0       
      +0       0       0       0       0       0       0       0       0       0       0       0       0       0       0       
      +0       0       0       0       0       0
  6685 ;;      Locals:         4       0       0       0       0       0       0       0       0       0       0       0       
      +0       0       0       0       0       0       0       0       0       0       0       0       0       0       0       
      +0       0       0       0       0       0
  6686 ;;      Temps:          1       0       0       0       0       0       0       0       0       0       0       0       
      +0       0       0       0       0       0       0       0       0       0       0       0       0       0       0       
      +0       0       0       0       0       0
  6687 ;;      Totals:        11       0       0       0       0       0       0       0       0       0       0       0       
      +0       0       0       0       0       0       0       0       0       0       0       0       0       0       0       
      +0       0       0       0       0       0
  6688 ;;Total ram usage:       11 bytes
  6689 ;; Hardware stack levels used: 1
  6690 ;; Hardware stack levels required when called: 8
  6691 ;; This function calls:
  6692 ;;		_fputc
  6693 ;;		_fputs
  6694 ;; This function is called by:
  6695 ;;		_dtoa
  6696 ;;		_efgtoa
  6697 ;; This function uses a non-reentrant model
  6698 ;;
  6699                           
  6700                           	psect	text18
  6701   0055E6                     __ptext18:
  6702                           	callstack 0
  6703   0055E6                     _pad:
  6704                           	callstack 114
  6705   0055E6                     
  6706                           ;C:\Program Files\Microchip\xc8\v2.40\pic\sources\c99\common\doprnt.c: 133: static void 
      +                          pad(FILE *fp, char *buf, int p);C:\Program Files\Microchip\xc8\v2.40\pic\sources\c99\com
      +                          mon\doprnt.c: 134: {;C:\Program Files\Microchip\xc8\v2.40\pic\sources\c99\common\doprnt.
      +                          c: 135:     int i, w;;C:\Program Files\Microchip\xc8\v2.40\pic\sources\c99\common\doprnt
      +                          .c: 139:     if (flags & (1 << 0)) {
  6707   0055E6  A05C               	btfss	_flags^(0+1280),0,c
  6708   0055E8  EFF8  F02A         	goto	u6431
  6709   0055EC  EFFA  F02A         	goto	u6430
  6710   0055F0                     u6431:
  6711   0055F0  EF04  F02B         	goto	l5913
  6712   0055F4                     u6430:
  6713   0055F4                     
  6714                           ;C:\Program Files\Microchip\xc8\v2.40\pic\sources\c99\common\doprnt.c: 140:         fput
      +                          s((const char *)buf, fp);
  6715   0055F4  C517  F50E         	movff	pad@buf,fputs@s
  6716   0055F8  C518  F50F         	movff	pad@buf+1,fputs@s+1
  6717   0055FC  C515  F510         	movff	pad@fp,fputs@fp
  6718   005600  C516  F511         	movff	pad@fp+1,fputs@fp+1
  6719   005604  EC87  F02D         	call	_fputs	;wreg free
  6720   005608                     l5913:
  6721                           
  6722                           ;C:\Program Files\Microchip\xc8\v2.40\pic\sources\c99\common\doprnt.c: 145:     w = (p <
      +                           0) ? 0 : p;
  6723   005608  BE1A               	btfsc	(pad@p+1)^(0+1280),7,c
  6724   00560A  EF09  F02B         	goto	u6441
  6725   00560E  EF0B  F02B         	goto	u6440
  6726   005612                     u6441:
  6727   005612  EF11  F02B         	goto	l5917
  6728   005616                     u6440:
  6729   005616  C519  F51E         	movff	pad@p,pad@w
  6730   00561A  C51A  F51F         	movff	pad@p+1,pad@w+1
  6731   00561E  EF15  F02B         	goto	l1377
  6732   005622                     l5917:
  6733   005622  0E00               	movlw	0
  6734   005624  6E1F               	movwf	(pad@w+1)^(0+1280),c
  6735   005626  0E00               	movlw	0
  6736   005628  6E1E               	movwf	pad@w^(0+1280),c
  6737   00562A                     l1377:
  6738                           
  6739                           ;C:\Program Files\Microchip\xc8\v2.40\pic\sources\c99\common\doprnt.c: 146:     i = 0;
  6740   00562A  0E00               	movlw	0
  6741   00562C  6E1D               	movwf	(pad@i+1)^(0+1280),c
  6742   00562E  0E00               	movlw	0
  6743   005630  6E1C               	movwf	pad@i^(0+1280),c
  6744                           
  6745                           ;C:\Program Files\Microchip\xc8\v2.40\pic\sources\c99\common\doprnt.c: 147:     while (i
      +                           < w) {
  6746   005632  EF27  F02B         	goto	l5923
  6747   005636                     l5919:
  6748                           
  6749                           ;C:\Program Files\Microchip\xc8\v2.40\pic\sources\c99\common\doprnt.c: 148:         fput
      +                          c(' ', fp);
  6750   005636  0E00               	movlw	0
  6751   005638  6E06               	movwf	(fputc@c+1)^(0+1280),c
  6752   00563A  0E20               	movlw	32
  6753   00563C  6E05               	movwf	fputc@c^(0+1280),c
  6754   00563E  C515  F507         	movff	pad@fp,fputc@fp
  6755   005642  C516  F508         	movff	pad@fp+1,fputc@fp+1
  6756   005646  EC48  F02B         	call	_fputc	;wreg free
  6757   00564A                     
  6758                           ;C:\Program Files\Microchip\xc8\v2.40\pic\sources\c99\common\doprnt.c: 149:         ++i;
  6759   00564A  4A1C               	infsnz	pad@i^(0+1280),f,c
  6760   00564C  2A1D               	incf	(pad@i+1)^(0+1280),f,c
  6761   00564E                     l5923:
  6762                           
  6763                           ;C:\Program Files\Microchip\xc8\v2.40\pic\sources\c99\common\doprnt.c: 147:     while (i
      +                           < w) {
  6764   00564E  501E               	movf	pad@w^(0+1280),w,c
  6765   005650  5C1C               	subwf	pad@i^(0+1280),w,c
  6766   005652  501D               	movf	(pad@i+1)^(0+1280),w,c
  6767   005654  0A80               	xorlw	128
  6768   005656  6E1B               	movwf	??_pad^(0+1280),c
  6769   005658  501F               	movf	(pad@w+1)^(0+1280),w,c
  6770   00565A  0A80               	xorlw	128
  6771   00565C  581B               	subwfb	??_pad^(0+1280),w,c
  6772   00565E  A0D8               	btfss	status,0,c
  6773   005660  EF34  F02B         	goto	u6451
  6774   005664  EF36  F02B         	goto	u6450
  6775   005668                     u6451:
  6776   005668  EF1B  F02B         	goto	l5919
  6777   00566C                     u6450:
  6778   00566C                     
  6779                           ;C:\Program Files\Microchip\xc8\v2.40\pic\sources\c99\common\doprnt.c: 154:     if (!(fl
      +                          ags & (1 << 0))) {
  6780   00566C  B05C               	btfsc	_flags^(0+1280),0,c
  6781   00566E  EF3B  F02B         	goto	u6461
  6782   005672  EF3D  F02B         	goto	u6460
  6783   005676                     u6461:
  6784   005676  EF47  F02B         	goto	l1382
  6785   00567A                     u6460:
  6786   00567A                     
  6787                           ;C:\Program Files\Microchip\xc8\v2.40\pic\sources\c99\common\doprnt.c: 156:         fput
      +                          s((const char *)buf, fp);
  6788   00567A  C517  F50E         	movff	pad@buf,fputs@s
  6789   00567E  C518  F50F         	movff	pad@buf+1,fputs@s+1
  6790   005682  C515  F510         	movff	pad@fp,fputs@fp
  6791   005686  C516  F511         	movff	pad@fp+1,fputs@fp+1
  6792   00568A  EC87  F02D         	call	_fputs	;wreg free
  6793   00568E                     l1382:
  6794   00568E  0012               	return		;funcret
  6795   005690                     __end_of_pad:
  6796                           	callstack 0
  6797                           
  6798 ;; *************** function _fputs *****************
  6799 ;; Defined at:
  6800 ;;		line 8 in file "C:\Program Files\Microchip\xc8\v2.40\pic\sources\c99\common\nf_fputs.c"
  6801 ;; Parameters:    Size  Location     Type
  6802 ;;  s               2   13[COMRAM] PTR const unsigned char 
  6803 ;;		 -> dbuf(80), 
  6804 ;;  fp              2   15[COMRAM] PTR struct _IO_FILE
  6805 ;;		 -> NULL(0), 
  6806 ;; Auto vars:     Size  Location     Type
  6807 ;;  i               2   18[COMRAM] int 
  6808 ;;  c               1   17[COMRAM] unsigned char 
  6809 ;; Return value:  Size  Location     Type
  6810 ;;                  2   13[COMRAM] int 
  6811 ;; Registers used:
  6812 ;;		wreg, fsr1l, fsr1h, fsr2l, fsr2h, status,2, status,0, cstack
  6813 ;; Tracked objects:
  6814 ;;		On entry : 0/0
  6815 ;;		On exit  : 0/0
  6816 ;;		Unchanged: 0/0
  6817 ;; Data sizes:     COMRAM   BANK5   BANK6   BANK7   BANK8   BANK9  BANK10  BANK11  BANK12  BANK13  BANK14  BANK15  BANK1
      +6  BANK17  BANK18  BANK19  BANK20  BANK21  BANK22  BANK23  BANK24  BANK25  BANK26  BANK27  BANK28  BANK29  BANK30  BANK3
      +1  BANK32  BANK33  BANK34  BANK35  BANK36
  6818 ;;      Params:         4       0       0       0       0       0       0       0       0       0       0       0       
      +0       0       0       0       0       0       0       0       0       0       0       0       0       0       0       
      +0       0       0       0       0       0
  6819 ;;      Locals:         3       0       0       0       0       0       0       0       0       0       0       0       
      +0       0       0       0       0       0       0       0       0       0       0       0       0       0       0       
      +0       0       0       0       0       0
  6820 ;;      Temps:          0       0       0       0       0       0       0       0       0       0       0       0       
      +0       0       0       0       0       0       0       0       0       0       0       0       0       0       0       
      +0       0       0       0       0       0
  6821 ;;      Totals:         7       0       0       0       0       0       0       0       0       0       0       0       
      +0       0       0       0       0       0       0       0       0       0       0       0       0       0       0       
      +0       0       0       0       0       0
  6822 ;;Total ram usage:        7 bytes
  6823 ;; Hardware stack levels used: 1
  6824 ;; Hardware stack levels required when called: 7
  6825 ;; This function calls:
  6826 ;;		_fputc
  6827 ;; This function is called by:
  6828 ;;		_pad
  6829 ;; This function uses a non-reentrant model
  6830 ;;
  6831                           
  6832                           	psect	text19
  6833   005B0E                     __ptext19:
  6834                           	callstack 0
  6835   005B0E                     _fputs:
  6836                           	callstack 114
  6837   005B0E  0E00               	movlw	0
  6838   005B10  6E14               	movwf	(fputs@i+1)^(0+1280),c
  6839   005B12  0E00               	movlw	0
  6840   005B14  6E13               	movwf	fputs@i^(0+1280),c
  6841   005B16  EF98  F02D         	goto	l5457
  6842   005B1A                     l5453:
  6843   005B1A  C512  F505         	movff	fputs@c,fputc@c
  6844   005B1E  6A06               	clrf	(fputc@c+1)^(0+1280),c
  6845   005B20  C510  F507         	movff	fputs@fp,fputc@fp
  6846   005B24  C511  F508         	movff	fputs@fp+1,fputc@fp+1
  6847   005B28  EC48  F02B         	call	_fputc	;wreg free
  6848   005B2C  4A13               	infsnz	fputs@i^(0+1280),f,c
  6849   005B2E  2A14               	incf	(fputs@i+1)^(0+1280),f,c
  6850   005B30                     l5457:
  6851   005B30  5013               	movf	fputs@i^(0+1280),w,c
  6852   005B32  240E               	addwf	fputs@s^(0+1280),w,c
  6853   005B34  6ED9               	movwf	fsr2l,c
  6854   005B36  5014               	movf	(fputs@i+1)^(0+1280),w,c
  6855   005B38  200F               	addwfc	(fputs@s+1)^(0+1280),w,c
  6856   005B3A  6EDA               	movwf	fsr2h,c
  6857   005B3C  50DF               	movf	indf2,w,c
  6858   005B3E  6E12               	movwf	fputs@c^(0+1280),c
  6859   005B40  5012               	movf	fputs@c^(0+1280),w,c
  6860   005B42  A4D8               	btfss	status,2,c
  6861   005B44  EFA6  F02D         	goto	u5711
  6862   005B48  EFA8  F02D         	goto	u5710
  6863   005B4C                     u5711:
  6864   005B4C  EF8D  F02D         	goto	l5453
  6865   005B50                     u5710:
  6866   005B50  0012               	return		;funcret
  6867   005B52                     __end_of_fputs:
  6868                           	callstack 0
  6869                           
  6870 ;; *************** function _fputc *****************
  6871 ;; Defined at:
  6872 ;;		line 8 in file "C:\Program Files\Microchip\xc8\v2.40\pic\sources\c99\common\nf_fputc.c"
  6873 ;; Parameters:    Size  Location     Type
  6874 ;;  c               2    4[COMRAM] int 
  6875 ;;  fp              2    6[COMRAM] PTR struct _IO_FILE
  6876 ;;		 -> NULL(0), 
  6877 ;; Auto vars:     Size  Location     Type
  6878 ;;		None
  6879 ;; Return value:  Size  Location     Type
  6880 ;;                  2    4[COMRAM] int 
  6881 ;; Registers used:
  6882 ;;		wreg, fsr1l, fsr1h, fsr2l, fsr2h, status,2, status,0, cstack
  6883 ;; Tracked objects:
  6884 ;;		On entry : 0/0
  6885 ;;		On exit  : 0/0
  6886 ;;		Unchanged: 0/0
  6887 ;; Data sizes:     COMRAM   BANK5   BANK6   BANK7   BANK8   BANK9  BANK10  BANK11  BANK12  BANK13  BANK14  BANK15  BANK1
      +6  BANK17  BANK18  BANK19  BANK20  BANK21  BANK22  BANK23  BANK24  BANK25  BANK26  BANK27  BANK28  BANK29  BANK30  BANK3
      +1  BANK32  BANK33  BANK34  BANK35  BANK36
  6888 ;;      Params:         4       0       0       0       0       0       0       0       0       0       0       0       
      +0       0       0       0       0       0       0       0       0       0       0       0       0       0       0       
      +0       0       0       0       0       0
  6889 ;;      Locals:         0       0       0       0       0       0       0       0       0       0       0       0       
      +0       0       0       0       0       0       0       0       0       0       0       0       0       0       0       
      +0       0       0       0       0       0
  6890 ;;      Temps:          5       0       0       0       0       0       0       0       0       0       0       0       
      +0       0       0       0       0       0       0       0       0       0       0       0       0       0       0       
      +0       0       0       0       0       0
  6891 ;;      Totals:         9       0       0       0       0       0       0       0       0       0       0       0       
      +0       0       0       0       0       0       0       0       0       0       0       0       0       0       0       
      +0       0       0       0       0       0
  6892 ;;Total ram usage:        9 bytes
  6893 ;; Hardware stack levels used: 1
  6894 ;; Hardware stack levels required when called: 6
  6895 ;; This function calls:
  6896 ;;		_putch
  6897 ;; This function is called by:
  6898 ;;		_pad
  6899 ;;		_vfpfcnvrt
  6900 ;;		_fputs
  6901 ;; This function uses a non-reentrant model
  6902 ;;
  6903                           
  6904                           	psect	text20
  6905   005690                     __ptext20:
  6906                           	callstack 0
  6907   005690                     _fputc:
  6908                           	callstack 117
  6909   005690  5007               	movf	fputc@fp^(0+1280),w,c
  6910   005692  1008               	iorwf	(fputc@fp+1)^(0+1280),w,c
  6911   005694  B4D8               	btfsc	status,2,c
  6912   005696  EF4F  F02B         	goto	u5281
  6913   00569A  EF51  F02B         	goto	u5280
  6914   00569E                     u5281:
  6915   00569E  EF5A  F02B         	goto	l5239
  6916   0056A2                     u5280:
  6917   0056A2  5007               	movf	fputc@fp^(0+1280),w,c
  6918   0056A4  1008               	iorwf	(fputc@fp+1)^(0+1280),w,c
  6919   0056A6  A4D8               	btfss	status,2,c
  6920   0056A8  EF58  F02B         	goto	u5291
  6921   0056AC  EF5A  F02B         	goto	u5290
  6922   0056B0                     u5291:
  6923   0056B0  EF5F  F02B         	goto	l5241
  6924   0056B4                     u5290:
  6925   0056B4                     l5239:
  6926   0056B4  5005               	movf	fputc@c^(0+1280),w,c
  6927   0056B6  EC4D  F02F         	call	_putch
  6928   0056BA  EF92  F02B         	goto	l1609
  6929   0056BE                     l5241:
  6930   0056BE  EE20 F009          	lfsr	2,9
  6931   0056C2  5007               	movf	fputc@fp^(0+1280),w,c
  6932   0056C4  26D9               	addwf	fsr2l,f,c
  6933   0056C6  5008               	movf	(fputc@fp+1)^(0+1280),w,c
  6934   0056C8  22DA               	addwfc	fsr2h,f,c
  6935   0056CA  50DE               	movf	postinc2,w,c
  6936   0056CC  10DE               	iorwf	postinc2,w,c
  6937   0056CE  B4D8               	btfsc	status,2,c
  6938   0056D0  EF6C  F02B         	goto	u5301
  6939   0056D4  EF6E  F02B         	goto	u5300
  6940   0056D8                     u5301:
  6941   0056D8  EF89  F02B         	goto	l5245
  6942   0056DC                     u5300:
  6943   0056DC  EE20 F009          	lfsr	2,9
  6944   0056E0  5007               	movf	fputc@fp^(0+1280),w,c
  6945   0056E2  26D9               	addwf	fsr2l,f,c
  6946   0056E4  5008               	movf	(fputc@fp+1)^(0+1280),w,c
  6947   0056E6  22DA               	addwfc	fsr2h,f,c
  6948   0056E8  EE10 F003          	lfsr	1,3
  6949   0056EC  5007               	movf	fputc@fp^(0+1280),w,c
  6950   0056EE  26E1               	addwf	fsr1l,f,c
  6951   0056F0  5008               	movf	(fputc@fp+1)^(0+1280),w,c
  6952   0056F2  22E2               	addwfc	fsr1h,f,c
  6953   0056F4  50DE               	movf	postinc2,w,c
  6954   0056F6  5CE6               	subwf	postinc1,w,c
  6955   0056F8  50E6               	movf	postinc1,w,c
  6956   0056FA  0A80               	xorlw	128
  6957   0056FC  6E0D               	movwf	(??_fputc+4)^(0+1280),c
  6958   0056FE  50DE               	movf	postinc2,w,c
  6959   005700  0A80               	xorlw	128
  6960   005702  580D               	subwfb	(??_fputc+4)^(0+1280),w,c
  6961   005704  B0D8               	btfsc	status,0,c
  6962   005706  EF87  F02B         	goto	u5311
  6963   00570A  EF89  F02B         	goto	u5310
  6964   00570E                     u5311:
  6965   00570E  EF92  F02B         	goto	l1609
  6966   005712                     u5310:
  6967   005712                     l5245:
  6968   005712  EE20 F003          	lfsr	2,3
  6969   005716  5007               	movf	fputc@fp^(0+1280),w,c
  6970   005718  26D9               	addwf	fsr2l,f,c
  6971   00571A  5008               	movf	(fputc@fp+1)^(0+1280),w,c
  6972   00571C  22DA               	addwfc	fsr2h,f,c
  6973   00571E  2ADE               	incf	postinc2,f,c
  6974   005720  0E00               	movlw	0
  6975   005722  22DD               	addwfc	postdec2,f,c
  6976   005724                     l1609:
  6977   005724  0012               	return		;funcret
  6978   005726                     __end_of_fputc:
  6979                           	callstack 0
  6980                           
  6981 ;; *************** function _putch *****************
  6982 ;; Defined at:
  6983 ;;		line 184 in file "mcc_generated_files/uart1.c"
  6984 ;; Parameters:    Size  Location     Type
  6985 ;;  txData          1    wreg     unsigned char 
  6986 ;; Auto vars:     Size  Location     Type
  6987 ;;  txData          1    3[COMRAM] unsigned char 
  6988 ;; Return value:  Size  Location     Type
  6989 ;;                  1    wreg      void 
  6990 ;; Registers used:
  6991 ;;		wreg, status,2, cstack
  6992 ;; Tracked objects:
  6993 ;;		On entry : 0/0
  6994 ;;		On exit  : 0/0
  6995 ;;		Unchanged: 0/0
  6996 ;; Data sizes:     COMRAM   BANK5   BANK6   BANK7   BANK8   BANK9  BANK10  BANK11  BANK12  BANK13  BANK14  BANK15  BANK1
      +6  BANK17  BANK18  BANK19  BANK20  BANK21  BANK22  BANK23  BANK24  BANK25  BANK26  BANK27  BANK28  BANK29  BANK30  BANK3
      +1  BANK32  BANK33  BANK34  BANK35  BANK36
  6997 ;;      Params:         0       0       0       0       0       0       0       0       0       0       0       0       
      +0       0       0       0       0       0       0       0       0       0       0       0       0       0       0       
      +0       0       0       0       0       0
  6998 ;;      Locals:         1       0       0       0       0       0       0       0       0       0       0       0       
      +0       0       0       0       0       0       0       0       0       0       0       0       0       0       0       
      +0       0       0       0       0       0
  6999 ;;      Temps:          0       0       0       0       0       0       0       0       0       0       0       0       
      +0       0       0       0       0       0       0       0       0       0       0       0       0       0       0       
      +0       0       0       0       0       0
  7000 ;;      Totals:         1       0       0       0       0       0       0       0       0       0       0       0       
      +0       0       0       0       0       0       0       0       0       0       0       0       0       0       0       
      +0       0       0       0       0       0
  7001 ;;Total ram usage:        1 bytes
  7002 ;; Hardware stack levels used: 1
  7003 ;; Hardware stack levels required when called: 5
  7004 ;; This function calls:
  7005 ;;		_UART1_Write
  7006 ;; This function is called by:
  7007 ;;		_fputc
  7008 ;; This function uses a non-reentrant model
  7009 ;;
  7010                           
  7011                           	psect	text21
  7012   005E9A                     __ptext21:
  7013                           	callstack 0
  7014   005E9A                     _putch:
  7015                           	callstack 117
  7016                           
  7017                           ;incstack = 0
  7018                           ;putch@txData stored from wreg
  7019   005E9A  6E04               	movwf	putch@txData^(0+1280),c
  7020   005E9C                     
  7021                           ;mcc_generated_files/uart1.c: 184: void putch(char txData);mcc_generated_files/uart1.c: 
      +                          185: {;mcc_generated_files/uart1.c: 186:     UART1_Write(txData);
  7022   005E9C  5004               	movf	putch@txData^(0+1280),w,c
  7023   005E9E  EC26  F02F         	call	_UART1_Write
  7024   005EA2  0012               	return		;funcret
  7025   005EA4                     __end_of_putch:
  7026                           	callstack 0
  7027                           
  7028 ;; *************** function _UART1_Write *****************
  7029 ;; Defined at:
  7030 ;;		line 170 in file "mcc_generated_files/uart1.c"
  7031 ;; Parameters:    Size  Location     Type
  7032 ;;  txData          1    wreg     unsigned char 
  7033 ;; Auto vars:     Size  Location     Type
  7034 ;;  txData          1    2[COMRAM] unsigned char 
  7035 ;; Return value:  Size  Location     Type
  7036 ;;                  1    wreg      void 
  7037 ;; Registers used:
  7038 ;;		wreg
  7039 ;; Tracked objects:
  7040 ;;		On entry : 0/0
  7041 ;;		On exit  : 0/0
  7042 ;;		Unchanged: 0/0
  7043 ;; Data sizes:     COMRAM   BANK5   BANK6   BANK7   BANK8   BANK9  BANK10  BANK11  BANK12  BANK13  BANK14  BANK15  BANK1
      +6  BANK17  BANK18  BANK19  BANK20  BANK21  BANK22  BANK23  BANK24  BANK25  BANK26  BANK27  BANK28  BANK29  BANK30  BANK3
      +1  BANK32  BANK33  BANK34  BANK35  BANK36
  7044 ;;      Params:         0       0       0       0       0       0       0       0       0       0       0       0       
      +0       0       0       0       0       0       0       0       0       0       0       0       0       0       0       
      +0       0       0       0       0       0
  7045 ;;      Locals:         1       0       0       0       0       0       0       0       0       0       0       0       
      +0       0       0       0       0       0       0       0       0       0       0       0       0       0       0       
      +0       0       0       0       0       0
  7046 ;;      Temps:          0       0       0       0       0       0       0       0       0       0       0       0       
      +0       0       0       0       0       0       0       0       0       0       0       0       0       0       0       
      +0       0       0       0       0       0
  7047 ;;      Totals:         1       0       0       0       0       0       0       0       0       0       0       0       
      +0       0       0       0       0       0       0       0       0       0       0       0       0       0       0       
      +0       0       0       0       0       0
  7048 ;;Total ram usage:        1 bytes
  7049 ;; Hardware stack levels used: 1
  7050 ;; Hardware stack levels required when called: 4
  7051 ;; This function calls:
  7052 ;;		Nothing
  7053 ;; This function is called by:
  7054 ;;		_putch
  7055 ;; This function uses a non-reentrant model
  7056 ;;
  7057                           
  7058                           	psect	text22
  7059   005E4C                     __ptext22:
  7060                           	callstack 0
  7061   005E4C                     _UART1_Write:
  7062                           	callstack 117
  7063                           
  7064                           ;incstack = 0
  7065                           ;UART1_Write@txData stored from wreg
  7066   005E4C  6E03               	movwf	UART1_Write@txData^(0+1280),c
  7067   005E4E                     l244:
  7068                           
  7069                           ;mcc_generated_files/uart1.c: 172:     while(0 == PIR4bits.U1TXIF)
  7070   005E4E  A2B2               	btfss	178,1,c	;volatile
  7071   005E50  EF2C  F02F         	goto	u5271
  7072   005E54  EF2E  F02F         	goto	u5270
  7073   005E58                     u5271:
  7074   005E58  EF27  F02F         	goto	l244
  7075   005E5C                     u5270:
  7076   005E5C                     
  7077                           ;mcc_generated_files/uart1.c: 176:     U1TXB = txData;
  7078   005E5C  C503  F2A3         	movff	UART1_Write@txData,675	;volatile
  7079   005E60  0012               	return		;funcret
  7080   005E62                     __end_of_UART1_Write:
  7081                           	callstack 0
  7082                           
  7083 ;; *************** function _abs *****************
  7084 ;; Defined at:
  7085 ;;		line 1 in file "C:\Program Files\Microchip\xc8\v2.40\pic\sources\c99\common\abs.c"
  7086 ;; Parameters:    Size  Location     Type
  7087 ;;  a               2   20[COMRAM] int 
  7088 ;; Auto vars:     Size  Location     Type
  7089 ;;		None
  7090 ;; Return value:  Size  Location     Type
  7091 ;;                  2   20[COMRAM] int 
  7092 ;; Registers used:
  7093 ;;		wreg, status,2, status,0
  7094 ;; Tracked objects:
  7095 ;;		On entry : 0/0
  7096 ;;		On exit  : 0/0
  7097 ;;		Unchanged: 0/0
  7098 ;; Data sizes:     COMRAM   BANK5   BANK6   BANK7   BANK8   BANK9  BANK10  BANK11  BANK12  BANK13  BANK14  BANK15  BANK1
      +6  BANK17  BANK18  BANK19  BANK20  BANK21  BANK22  BANK23  BANK24  BANK25  BANK26  BANK27  BANK28  BANK29  BANK30  BANK3
      +1  BANK32  BANK33  BANK34  BANK35  BANK36
  7099 ;;      Params:         2       0       0       0       0       0       0       0       0       0       0       0       
      +0       0       0       0       0       0       0       0       0       0       0       0       0       0       0       
      +0       0       0       0       0       0
  7100 ;;      Locals:         0       0       0       0       0       0       0       0       0       0       0       0       
      +0       0       0       0       0       0       0       0       0       0       0       0       0       0       0       
      +0       0       0       0       0       0
  7101 ;;      Temps:          2       0       0       0       0       0       0       0       0       0       0       0       
      +0       0       0       0       0       0       0       0       0       0       0       0       0       0       0       
      +0       0       0       0       0       0
  7102 ;;      Totals:         4       0       0       0       0       0       0       0       0       0       0       0       
      +0       0       0       0       0       0       0       0       0       0       0       0       0       0       0       
      +0       0       0       0       0       0
  7103 ;;Total ram usage:        4 bytes
  7104 ;; Hardware stack levels used: 1
  7105 ;; Hardware stack levels required when called: 4
  7106 ;; This function calls:
  7107 ;;		Nothing
  7108 ;; This function is called by:
  7109 ;;		_dtoa
  7110 ;; This function uses a non-reentrant model
  7111 ;;
  7112                           
  7113                           	psect	text23
  7114   005B52                     __ptext23:
  7115                           	callstack 0
  7116   005B52                     _abs:
  7117                           	callstack 118
  7118   005B52  BE16               	btfsc	(abs@a+1)^(0+1280),7,c
  7119   005B54  EFB6  F02D         	goto	u6470
  7120   005B58  5016               	movf	(abs@a+1)^(0+1280),w,c
  7121   005B5A  E106               	bnz	u6471
  7122   005B5C  0415               	decf	abs@a^(0+1280),w,c
  7123   005B5E  B0D8               	btfsc	status,0,c
  7124   005B60  EFB4  F02D         	goto	u6471
  7125   005B64  EFB6  F02D         	goto	u6470
  7126   005B68                     u6471:
  7127   005B68  EFC4  F02D         	goto	l1529
  7128   005B6C                     u6470:
  7129   005B6C  C515  F517         	movff	abs@a,??_abs
  7130   005B70  C516  F518         	movff	abs@a+1,??_abs+1
  7131   005B74  1E17               	comf	??_abs^(0+1280),f,c
  7132   005B76  1E18               	comf	(??_abs+1)^(0+1280),f,c
  7133   005B78  4A17               	infsnz	??_abs^(0+1280),f,c
  7134   005B7A  2A18               	incf	(??_abs+1)^(0+1280),f,c
  7135   005B7C  C517  F515         	movff	??_abs,?_abs
  7136   005B80  C518  F516         	movff	??_abs+1,?_abs+1
  7137   005B84  EFC8  F02D         	goto	l1532
  7138   005B88                     l1529:
  7139   005B88  C515  F515         	movff	abs@a,?_abs
  7140   005B8C  C516  F516         	movff	abs@a+1,?_abs+1
  7141   005B90                     l1532:
  7142   005B90  0012               	return		;funcret
  7143   005B92                     __end_of_abs:
  7144                           	callstack 0
  7145                           
  7146 ;; *************** function ___aomod *****************
  7147 ;; Defined at:
  7148 ;;		line 9 in file "C:\Program Files\Microchip\xc8\v2.40\pic\sources\c99\common\aomod.c"
  7149 ;; Parameters:    Size  Location     Type
  7150 ;;  dividend        8    2[COMRAM] long long 
  7151 ;;  divisor         8   10[COMRAM] long long 
  7152 ;; Auto vars:     Size  Location     Type
  7153 ;;  sign            1   19[COMRAM] unsigned char 
  7154 ;;  counter         1   18[COMRAM] unsigned char 
  7155 ;; Return value:  Size  Location     Type
  7156 ;;                  8    2[COMRAM] long long 
  7157 ;; Registers used:
  7158 ;;		wreg, status,2, status,0
  7159 ;; Tracked objects:
  7160 ;;		On entry : 0/0
  7161 ;;		On exit  : 0/0
  7162 ;;		Unchanged: 0/0
  7163 ;; Data sizes:     COMRAM   BANK5   BANK6   BANK7   BANK8   BANK9  BANK10  BANK11  BANK12  BANK13  BANK14  BANK15  BANK1
      +6  BANK17  BANK18  BANK19  BANK20  BANK21  BANK22  BANK23  BANK24  BANK25  BANK26  BANK27  BANK28  BANK29  BANK30  BANK3
      +1  BANK32  BANK33  BANK34  BANK35  BANK36
  7164 ;;      Params:        16       0       0       0       0       0       0       0       0       0       0       0       
      +0       0       0       0       0       0       0       0       0       0       0       0       0       0       0       
      +0       0       0       0       0       0
  7165 ;;      Locals:         2       0       0       0       0       0       0       0       0       0       0       0       
      +0       0       0       0       0       0       0       0       0       0       0       0       0       0       0       
      +0       0       0       0       0       0
  7166 ;;      Temps:          0       0       0       0       0       0       0       0       0       0       0       0       
      +0       0       0       0       0       0       0       0       0       0       0       0       0       0       0       
      +0       0       0       0       0       0
  7167 ;;      Totals:        18       0       0       0       0       0       0       0       0       0       0       0       
      +0       0       0       0       0       0       0       0       0       0       0       0       0       0       0       
      +0       0       0       0       0       0
  7168 ;;Total ram usage:       18 bytes
  7169 ;; Hardware stack levels used: 1
  7170 ;; Hardware stack levels required when called: 4
  7171 ;; This function calls:
  7172 ;;		Nothing
  7173 ;; This function is called by:
  7174 ;;		_dtoa
  7175 ;; This function uses a non-reentrant model
  7176 ;;
  7177                           
  7178                           	psect	text24
  7179   004DB4                     __ptext24:
  7180                           	callstack 0
  7181   004DB4                     ___aomod:
  7182                           	callstack 118
  7183   004DB4  0E00               	movlw	0
  7184   004DB6  6E14               	movwf	___aomod@sign^(0+1280),c
  7185   004DB8  BE0A               	btfsc	(___aomod@dividend+7)^(0+1280),7,c
  7186   004DBA  EFE3  F026         	goto	u5790
  7187   004DBE  EFE1  F026         	goto	u5791
  7188   004DC2                     u5791:
  7189   004DC2  EFF5  F026         	goto	l5517
  7190   004DC6                     u5790:
  7191   004DC6  1E0A               	comf	(___aomod@dividend+7)^(0+1280),f,c
  7192   004DC8  1E09               	comf	(___aomod@dividend+6)^(0+1280),f,c
  7193   004DCA  1E08               	comf	(___aomod@dividend+5)^(0+1280),f,c
  7194   004DCC  1E07               	comf	(___aomod@dividend+4)^(0+1280),f,c
  7195   004DCE  1E06               	comf	(___aomod@dividend+3)^(0+1280),f,c
  7196   004DD0  1E05               	comf	(___aomod@dividend+2)^(0+1280),f,c
  7197   004DD2  1E04               	comf	(___aomod@dividend+1)^(0+1280),f,c
  7198   004DD4  6C03               	negf	___aomod@dividend^(0+1280),c
  7199   004DD6  0E00               	movlw	0
  7200   004DD8  2204               	addwfc	(___aomod@dividend+1)^(0+1280),f,c
  7201   004DDA  2205               	addwfc	(___aomod@dividend+2)^(0+1280),f,c
  7202   004DDC  2206               	addwfc	(___aomod@dividend+3)^(0+1280),f,c
  7203   004DDE  2207               	addwfc	(___aomod@dividend+4)^(0+1280),f,c
  7204   004DE0  2208               	addwfc	(___aomod@dividend+5)^(0+1280),f,c
  7205   004DE2  2209               	addwfc	(___aomod@dividend+6)^(0+1280),f,c
  7206   004DE4  220A               	addwfc	(___aomod@dividend+7)^(0+1280),f,c
  7207   004DE6  0E01               	movlw	1
  7208   004DE8  6E14               	movwf	___aomod@sign^(0+1280),c
  7209   004DEA                     l5517:
  7210   004DEA  BE12               	btfsc	(___aomod@divisor+7)^(0+1280),7,c
  7211   004DEC  EFFC  F026         	goto	u5800
  7212   004DF0  EFFA  F026         	goto	u5801
  7213   004DF4                     u5801:
  7214   004DF4  EF0C  F027         	goto	l5521
  7215   004DF8                     u5800:
  7216   004DF8  1E12               	comf	(___aomod@divisor+7)^(0+1280),f,c
  7217   004DFA  1E11               	comf	(___aomod@divisor+6)^(0+1280),f,c
  7218   004DFC  1E10               	comf	(___aomod@divisor+5)^(0+1280),f,c
  7219   004DFE  1E0F               	comf	(___aomod@divisor+4)^(0+1280),f,c
  7220   004E00  1E0E               	comf	(___aomod@divisor+3)^(0+1280),f,c
  7221   004E02  1E0D               	comf	(___aomod@divisor+2)^(0+1280),f,c
  7222   004E04  1E0C               	comf	(___aomod@divisor+1)^(0+1280),f,c
  7223   004E06  6C0B               	negf	___aomod@divisor^(0+1280),c
  7224   004E08  0E00               	movlw	0
  7225   004E0A  220C               	addwfc	(___aomod@divisor+1)^(0+1280),f,c
  7226   004E0C  220D               	addwfc	(___aomod@divisor+2)^(0+1280),f,c
  7227   004E0E  220E               	addwfc	(___aomod@divisor+3)^(0+1280),f,c
  7228   004E10  220F               	addwfc	(___aomod@divisor+4)^(0+1280),f,c
  7229   004E12  2210               	addwfc	(___aomod@divisor+5)^(0+1280),f,c
  7230   004E14  2211               	addwfc	(___aomod@divisor+6)^(0+1280),f,c
  7231   004E16  2212               	addwfc	(___aomod@divisor+7)^(0+1280),f,c
  7232   004E18                     l5521:
  7233   004E18  500B               	movf	___aomod@divisor^(0+1280),w,c
  7234   004E1A  100C               	iorwf	(___aomod@divisor+1)^(0+1280),w,c
  7235   004E1C  100D               	iorwf	(___aomod@divisor+2)^(0+1280),w,c
  7236   004E1E  100E               	iorwf	(___aomod@divisor+3)^(0+1280),w,c
  7237   004E20  100F               	iorwf	(___aomod@divisor+4)^(0+1280),w,c
  7238   004E22  1010               	iorwf	(___aomod@divisor+5)^(0+1280),w,c
  7239   004E24  1011               	iorwf	(___aomod@divisor+6)^(0+1280),w,c
  7240   004E26  1012               	iorwf	(___aomod@divisor+7)^(0+1280),w,c
  7241   004E28  B4D8               	btfsc	status,2,c
  7242   004E2A  EF19  F027         	goto	u5811
  7243   004E2E  EF1B  F027         	goto	u5810
  7244   004E32                     u5811:
  7245   004E32  EF63  F027         	goto	l5537
  7246   004E36                     u5810:
  7247   004E36  0E01               	movlw	1
  7248   004E38  6E13               	movwf	___aomod@counter^(0+1280),c
  7249   004E3A  EF29  F027         	goto	l5527
  7250   004E3E                     l5525:
  7251   004E3E  90D8               	bcf	status,0,c
  7252   004E40  360B               	rlcf	___aomod@divisor^(0+1280),f,c
  7253   004E42  360C               	rlcf	(___aomod@divisor+1)^(0+1280),f,c
  7254   004E44  360D               	rlcf	(___aomod@divisor+2)^(0+1280),f,c
  7255   004E46  360E               	rlcf	(___aomod@divisor+3)^(0+1280),f,c
  7256   004E48  360F               	rlcf	(___aomod@divisor+4)^(0+1280),f,c
  7257   004E4A  3610               	rlcf	(___aomod@divisor+5)^(0+1280),f,c
  7258   004E4C  3611               	rlcf	(___aomod@divisor+6)^(0+1280),f,c
  7259   004E4E  3612               	rlcf	(___aomod@divisor+7)^(0+1280),f,c
  7260   004E50  2A13               	incf	___aomod@counter^(0+1280),f,c
  7261   004E52                     l5527:
  7262   004E52  AE12               	btfss	(___aomod@divisor+7)^(0+1280),7,c
  7263   004E54  EF2E  F027         	goto	u5821
  7264   004E58  EF30  F027         	goto	u5820
  7265   004E5C                     u5821:
  7266   004E5C  EF1F  F027         	goto	l5525
  7267   004E60                     u5820:
  7268   004E60                     l5529:
  7269   004E60  500B               	movf	___aomod@divisor^(0+1280),w,c
  7270   004E62  5C03               	subwf	___aomod@dividend^(0+1280),w,c
  7271   004E64  500C               	movf	(___aomod@divisor+1)^(0+1280),w,c
  7272   004E66  5804               	subwfb	(___aomod@dividend+1)^(0+1280),w,c
  7273   004E68  500D               	movf	(___aomod@divisor+2)^(0+1280),w,c
  7274   004E6A  5805               	subwfb	(___aomod@dividend+2)^(0+1280),w,c
  7275   004E6C  500E               	movf	(___aomod@divisor+3)^(0+1280),w,c
  7276   004E6E  5806               	subwfb	(___aomod@dividend+3)^(0+1280),w,c
  7277   004E70  500F               	movf	(___aomod@divisor+4)^(0+1280),w,c
  7278   004E72  5807               	subwfb	(___aomod@dividend+4)^(0+1280),w,c
  7279   004E74  5010               	movf	(___aomod@divisor+5)^(0+1280),w,c
  7280   004E76  5808               	subwfb	(___aomod@dividend+5)^(0+1280),w,c
  7281   004E78  5011               	movf	(___aomod@divisor+6)^(0+1280),w,c
  7282   004E7A  5809               	subwfb	(___aomod@dividend+6)^(0+1280),w,c
  7283   004E7C  5012               	movf	(___aomod@divisor+7)^(0+1280),w,c
  7284   004E7E  580A               	subwfb	(___aomod@dividend+7)^(0+1280),w,c
  7285   004E80  A0D8               	btfss	status,0,c
  7286   004E82  EF45  F027         	goto	u5831
  7287   004E86  EF47  F027         	goto	u5830
  7288   004E8A                     u5831:
  7289   004E8A  EF57  F027         	goto	l5533
  7290   004E8E                     u5830:
  7291   004E8E  500B               	movf	___aomod@divisor^(0+1280),w,c
  7292   004E90  5E03               	subwf	___aomod@dividend^(0+1280),f,c
  7293   004E92  500C               	movf	(___aomod@divisor+1)^(0+1280),w,c
  7294   004E94  5A04               	subwfb	(___aomod@dividend+1)^(0+1280),f,c
  7295   004E96  500D               	movf	(___aomod@divisor+2)^(0+1280),w,c
  7296   004E98  5A05               	subwfb	(___aomod@dividend+2)^(0+1280),f,c
  7297   004E9A  500E               	movf	(___aomod@divisor+3)^(0+1280),w,c
  7298   004E9C  5A06               	subwfb	(___aomod@dividend+3)^(0+1280),f,c
  7299   004E9E  500F               	movf	(___aomod@divisor+4)^(0+1280),w,c
  7300   004EA0  5A07               	subwfb	(___aomod@dividend+4)^(0+1280),f,c
  7301   004EA2  5010               	movf	(___aomod@divisor+5)^(0+1280),w,c
  7302   004EA4  5A08               	subwfb	(___aomod@dividend+5)^(0+1280),f,c
  7303   004EA6  5011               	movf	(___aomod@divisor+6)^(0+1280),w,c
  7304   004EA8  5A09               	subwfb	(___aomod@dividend+6)^(0+1280),f,c
  7305   004EAA  5012               	movf	(___aomod@divisor+7)^(0+1280),w,c
  7306   004EAC  5A0A               	subwfb	(___aomod@dividend+7)^(0+1280),f,c
  7307   004EAE                     l5533:
  7308   004EAE  90D8               	bcf	status,0,c
  7309   004EB0  3212               	rrcf	(___aomod@divisor+7)^(0+1280),f,c
  7310   004EB2  3211               	rrcf	(___aomod@divisor+6)^(0+1280),f,c
  7311   004EB4  3210               	rrcf	(___aomod@divisor+5)^(0+1280),f,c
  7312   004EB6  320F               	rrcf	(___aomod@divisor+4)^(0+1280),f,c
  7313   004EB8  320E               	rrcf	(___aomod@divisor+3)^(0+1280),f,c
  7314   004EBA  320D               	rrcf	(___aomod@divisor+2)^(0+1280),f,c
  7315   004EBC  320C               	rrcf	(___aomod@divisor+1)^(0+1280),f,c
  7316   004EBE  320B               	rrcf	___aomod@divisor^(0+1280),f,c
  7317   004EC0  2E13               	decfsz	___aomod@counter^(0+1280),f,c
  7318   004EC2  EF30  F027         	goto	l5529
  7319   004EC6                     l5537:
  7320   004EC6  5014               	movf	___aomod@sign^(0+1280),w,c
  7321   004EC8  B4D8               	btfsc	status,2,c
  7322   004ECA  EF69  F027         	goto	u5841
  7323   004ECE  EF6B  F027         	goto	u5840
  7324   004ED2                     u5841:
  7325   004ED2  EF7B  F027         	goto	l5541
  7326   004ED6                     u5840:
  7327   004ED6  1E0A               	comf	(___aomod@dividend+7)^(0+1280),f,c
  7328   004ED8  1E09               	comf	(___aomod@dividend+6)^(0+1280),f,c
  7329   004EDA  1E08               	comf	(___aomod@dividend+5)^(0+1280),f,c
  7330   004EDC  1E07               	comf	(___aomod@dividend+4)^(0+1280),f,c
  7331   004EDE  1E06               	comf	(___aomod@dividend+3)^(0+1280),f,c
  7332   004EE0  1E05               	comf	(___aomod@dividend+2)^(0+1280),f,c
  7333   004EE2  1E04               	comf	(___aomod@dividend+1)^(0+1280),f,c
  7334   004EE4  6C03               	negf	___aomod@dividend^(0+1280),c
  7335   004EE6  0E00               	movlw	0
  7336   004EE8  2204               	addwfc	(___aomod@dividend+1)^(0+1280),f,c
  7337   004EEA  2205               	addwfc	(___aomod@dividend+2)^(0+1280),f,c
  7338   004EEC  2206               	addwfc	(___aomod@dividend+3)^(0+1280),f,c
  7339   004EEE  2207               	addwfc	(___aomod@dividend+4)^(0+1280),f,c
  7340   004EF0  2208               	addwfc	(___aomod@dividend+5)^(0+1280),f,c
  7341   004EF2  2209               	addwfc	(___aomod@dividend+6)^(0+1280),f,c
  7342   004EF4  220A               	addwfc	(___aomod@dividend+7)^(0+1280),f,c
  7343   004EF6                     l5541:
  7344   004EF6  C503  F503         	movff	___aomod@dividend,?___aomod
  7345   004EFA  C504  F504         	movff	___aomod@dividend+1,?___aomod+1
  7346   004EFE  C505  F505         	movff	___aomod@dividend+2,?___aomod+2
  7347   004F02  C506  F506         	movff	___aomod@dividend+3,?___aomod+3
  7348   004F06  C507  F507         	movff	___aomod@dividend+4,?___aomod+4
  7349   004F0A  C508  F508         	movff	___aomod@dividend+5,?___aomod+5
  7350   004F0E  C509  F509         	movff	___aomod@dividend+6,?___aomod+6
  7351   004F12  C50A  F50A         	movff	___aomod@dividend+7,?___aomod+7
  7352   004F16  0012               	return		;funcret
  7353   004F18                     __end_of___aomod:
  7354                           	callstack 0
  7355                           
  7356 ;; *************** function ___aodiv *****************
  7357 ;; Defined at:
  7358 ;;		line 9 in file "C:\Program Files\Microchip\xc8\v2.40\pic\sources\c99\common\aodiv.c"
  7359 ;; Parameters:    Size  Location     Type
  7360 ;;  dividend        8    2[COMRAM] long long 
  7361 ;;  divisor         8   10[COMRAM] long long 
  7362 ;; Auto vars:     Size  Location     Type
  7363 ;;  quotient        8   20[COMRAM] long long 
  7364 ;;  sign            1   19[COMRAM] unsigned char 
  7365 ;;  counter         1   18[COMRAM] unsigned char 
  7366 ;; Return value:  Size  Location     Type
  7367 ;;                  8    2[COMRAM] long long 
  7368 ;; Registers used:
  7369 ;;		wreg, fsr2l, fsr2h, status,2, status,0
  7370 ;; Tracked objects:
  7371 ;;		On entry : 0/0
  7372 ;;		On exit  : 0/0
  7373 ;;		Unchanged: 0/0
  7374 ;; Data sizes:     COMRAM   BANK5   BANK6   BANK7   BANK8   BANK9  BANK10  BANK11  BANK12  BANK13  BANK14  BANK15  BANK1
      +6  BANK17  BANK18  BANK19  BANK20  BANK21  BANK22  BANK23  BANK24  BANK25  BANK26  BANK27  BANK28  BANK29  BANK30  BANK3
      +1  BANK32  BANK33  BANK34  BANK35  BANK36
  7375 ;;      Params:        16       0       0       0       0       0       0       0       0       0       0       0       
      +0       0       0       0       0       0       0       0       0       0       0       0       0       0       0       
      +0       0       0       0       0       0
  7376 ;;      Locals:        10       0       0       0       0       0       0       0       0       0       0       0       
      +0       0       0       0       0       0       0       0       0       0       0       0       0       0       0       
      +0       0       0       0       0       0
  7377 ;;      Temps:          0       0       0       0       0       0       0       0       0       0       0       0       
      +0       0       0       0       0       0       0       0       0       0       0       0       0       0       0       
      +0       0       0       0       0       0
  7378 ;;      Totals:        26       0       0       0       0       0       0       0       0       0       0       0       
      +0       0       0       0       0       0       0       0       0       0       0       0       0       0       0       
      +0       0       0       0       0       0
  7379 ;;Total ram usage:       26 bytes
  7380 ;; Hardware stack levels used: 1
  7381 ;; Hardware stack levels required when called: 4
  7382 ;; This function calls:
  7383 ;;		Nothing
  7384 ;; This function is called by:
  7385 ;;		_dtoa
  7386 ;; This function uses a non-reentrant model
  7387 ;;
  7388                           
  7389                           	psect	text25
  7390   004C2C                     __ptext25:
  7391                           	callstack 0
  7392   004C2C                     ___aodiv:
  7393                           	callstack 118
  7394   004C2C  0E00               	movlw	0
  7395   004C2E  6E14               	movwf	___aodiv@sign^(0+1280),c
  7396   004C30  BE12               	btfsc	(___aodiv@divisor+7)^(0+1280),7,c
  7397   004C32  EF1F  F026         	goto	u5720
  7398   004C36  EF1D  F026         	goto	u5721
  7399   004C3A                     u5721:
  7400   004C3A  EF31  F026         	goto	l5473
  7401   004C3E                     u5720:
  7402   004C3E  1E12               	comf	(___aodiv@divisor+7)^(0+1280),f,c
  7403   004C40  1E11               	comf	(___aodiv@divisor+6)^(0+1280),f,c
  7404   004C42  1E10               	comf	(___aodiv@divisor+5)^(0+1280),f,c
  7405   004C44  1E0F               	comf	(___aodiv@divisor+4)^(0+1280),f,c
  7406   004C46  1E0E               	comf	(___aodiv@divisor+3)^(0+1280),f,c
  7407   004C48  1E0D               	comf	(___aodiv@divisor+2)^(0+1280),f,c
  7408   004C4A  1E0C               	comf	(___aodiv@divisor+1)^(0+1280),f,c
  7409   004C4C  6C0B               	negf	___aodiv@divisor^(0+1280),c
  7410   004C4E  0E00               	movlw	0
  7411   004C50  220C               	addwfc	(___aodiv@divisor+1)^(0+1280),f,c
  7412   004C52  220D               	addwfc	(___aodiv@divisor+2)^(0+1280),f,c
  7413   004C54  220E               	addwfc	(___aodiv@divisor+3)^(0+1280),f,c
  7414   004C56  220F               	addwfc	(___aodiv@divisor+4)^(0+1280),f,c
  7415   004C58  2210               	addwfc	(___aodiv@divisor+5)^(0+1280),f,c
  7416   004C5A  2211               	addwfc	(___aodiv@divisor+6)^(0+1280),f,c
  7417   004C5C  2212               	addwfc	(___aodiv@divisor+7)^(0+1280),f,c
  7418   004C5E  0E01               	movlw	1
  7419   004C60  6E14               	movwf	___aodiv@sign^(0+1280),c
  7420   004C62                     l5473:
  7421   004C62  BE0A               	btfsc	(___aodiv@dividend+7)^(0+1280),7,c
  7422   004C64  EF38  F026         	goto	u5730
  7423   004C68  EF36  F026         	goto	u5731
  7424   004C6C                     u5731:
  7425   004C6C  EF4A  F026         	goto	l5479
  7426   004C70                     u5730:
  7427   004C70  1E0A               	comf	(___aodiv@dividend+7)^(0+1280),f,c
  7428   004C72  1E09               	comf	(___aodiv@dividend+6)^(0+1280),f,c
  7429   004C74  1E08               	comf	(___aodiv@dividend+5)^(0+1280),f,c
  7430   004C76  1E07               	comf	(___aodiv@dividend+4)^(0+1280),f,c
  7431   004C78  1E06               	comf	(___aodiv@dividend+3)^(0+1280),f,c
  7432   004C7A  1E05               	comf	(___aodiv@dividend+2)^(0+1280),f,c
  7433   004C7C  1E04               	comf	(___aodiv@dividend+1)^(0+1280),f,c
  7434   004C7E  6C03               	negf	___aodiv@dividend^(0+1280),c
  7435   004C80  0E00               	movlw	0
  7436   004C82  2204               	addwfc	(___aodiv@dividend+1)^(0+1280),f,c
  7437   004C84  2205               	addwfc	(___aodiv@dividend+2)^(0+1280),f,c
  7438   004C86  2206               	addwfc	(___aodiv@dividend+3)^(0+1280),f,c
  7439   004C88  2207               	addwfc	(___aodiv@dividend+4)^(0+1280),f,c
  7440   004C8A  2208               	addwfc	(___aodiv@dividend+5)^(0+1280),f,c
  7441   004C8C  2209               	addwfc	(___aodiv@dividend+6)^(0+1280),f,c
  7442   004C8E  220A               	addwfc	(___aodiv@dividend+7)^(0+1280),f,c
  7443   004C90  0E01               	movlw	1
  7444   004C92  1A14               	xorwf	___aodiv@sign^(0+1280),f,c
  7445   004C94                     l5479:
  7446   004C94  EE21  F115         	lfsr	2,___aodiv@quotient
  7447   004C98  0E07               	movlw	7
  7448   004C9A                     u5741:
  7449   004C9A  6ADE               	clrf	postinc2,c
  7450   004C9C  06E8               	decf	wreg,f,c
  7451   004C9E  E2FD               	bc	u5741
  7452   004CA0  500B               	movf	___aodiv@divisor^(0+1280),w,c
  7453   004CA2  100C               	iorwf	(___aodiv@divisor+1)^(0+1280),w,c
  7454   004CA4  100D               	iorwf	(___aodiv@divisor+2)^(0+1280),w,c
  7455   004CA6  100E               	iorwf	(___aodiv@divisor+3)^(0+1280),w,c
  7456   004CA8  100F               	iorwf	(___aodiv@divisor+4)^(0+1280),w,c
  7457   004CAA  1010               	iorwf	(___aodiv@divisor+5)^(0+1280),w,c
  7458   004CAC  1011               	iorwf	(___aodiv@divisor+6)^(0+1280),w,c
  7459   004CAE  1012               	iorwf	(___aodiv@divisor+7)^(0+1280),w,c
  7460   004CB0  B4D8               	btfsc	status,2,c
  7461   004CB2  EF5D  F026         	goto	u5751
  7462   004CB6  EF5F  F026         	goto	u5750
  7463   004CBA                     u5751:
  7464   004CBA  EFB1  F026         	goto	l5501
  7465   004CBE                     u5750:
  7466   004CBE  0E01               	movlw	1
  7467   004CC0  6E13               	movwf	___aodiv@counter^(0+1280),c
  7468   004CC2  EF6D  F026         	goto	l5487
  7469   004CC6                     l5485:
  7470   004CC6  90D8               	bcf	status,0,c
  7471   004CC8  360B               	rlcf	___aodiv@divisor^(0+1280),f,c
  7472   004CCA  360C               	rlcf	(___aodiv@divisor+1)^(0+1280),f,c
  7473   004CCC  360D               	rlcf	(___aodiv@divisor+2)^(0+1280),f,c
  7474   004CCE  360E               	rlcf	(___aodiv@divisor+3)^(0+1280),f,c
  7475   004CD0  360F               	rlcf	(___aodiv@divisor+4)^(0+1280),f,c
  7476   004CD2  3610               	rlcf	(___aodiv@divisor+5)^(0+1280),f,c
  7477   004CD4  3611               	rlcf	(___aodiv@divisor+6)^(0+1280),f,c
  7478   004CD6  3612               	rlcf	(___aodiv@divisor+7)^(0+1280),f,c
  7479   004CD8  2A13               	incf	___aodiv@counter^(0+1280),f,c
  7480   004CDA                     l5487:
  7481   004CDA  AE12               	btfss	(___aodiv@divisor+7)^(0+1280),7,c
  7482   004CDC  EF72  F026         	goto	u5761
  7483   004CE0  EF74  F026         	goto	u5760
  7484   004CE4                     u5761:
  7485   004CE4  EF63  F026         	goto	l5485
  7486   004CE8                     u5760:
  7487   004CE8                     l5489:
  7488   004CE8  90D8               	bcf	status,0,c
  7489   004CEA  3615               	rlcf	___aodiv@quotient^(0+1280),f,c
  7490   004CEC  3616               	rlcf	(___aodiv@quotient+1)^(0+1280),f,c
  7491   004CEE  3617               	rlcf	(___aodiv@quotient+2)^(0+1280),f,c
  7492   004CF0  3618               	rlcf	(___aodiv@quotient+3)^(0+1280),f,c
  7493   004CF2  3619               	rlcf	(___aodiv@quotient+4)^(0+1280),f,c
  7494   004CF4  361A               	rlcf	(___aodiv@quotient+5)^(0+1280),f,c
  7495   004CF6  361B               	rlcf	(___aodiv@quotient+6)^(0+1280),f,c
  7496   004CF8  361C               	rlcf	(___aodiv@quotient+7)^(0+1280),f,c
  7497   004CFA  500B               	movf	___aodiv@divisor^(0+1280),w,c
  7498   004CFC  5C03               	subwf	___aodiv@dividend^(0+1280),w,c
  7499   004CFE  500C               	movf	(___aodiv@divisor+1)^(0+1280),w,c
  7500   004D00  5804               	subwfb	(___aodiv@dividend+1)^(0+1280),w,c
  7501   004D02  500D               	movf	(___aodiv@divisor+2)^(0+1280),w,c
  7502   004D04  5805               	subwfb	(___aodiv@dividend+2)^(0+1280),w,c
  7503   004D06  500E               	movf	(___aodiv@divisor+3)^(0+1280),w,c
  7504   004D08  5806               	subwfb	(___aodiv@dividend+3)^(0+1280),w,c
  7505   004D0A  500F               	movf	(___aodiv@divisor+4)^(0+1280),w,c
  7506   004D0C  5807               	subwfb	(___aodiv@dividend+4)^(0+1280),w,c
  7507   004D0E  5010               	movf	(___aodiv@divisor+5)^(0+1280),w,c
  7508   004D10  5808               	subwfb	(___aodiv@dividend+5)^(0+1280),w,c
  7509   004D12  5011               	movf	(___aodiv@divisor+6)^(0+1280),w,c
  7510   004D14  5809               	subwfb	(___aodiv@dividend+6)^(0+1280),w,c
  7511   004D16  5012               	movf	(___aodiv@divisor+7)^(0+1280),w,c
  7512   004D18  580A               	subwfb	(___aodiv@dividend+7)^(0+1280),w,c
  7513   004D1A  A0D8               	btfss	status,0,c
  7514   004D1C  EF92  F026         	goto	u5771
  7515   004D20  EF94  F026         	goto	u5770
  7516   004D24                     u5771:
  7517   004D24  EFA5  F026         	goto	l5497
  7518   004D28                     u5770:
  7519   004D28  500B               	movf	___aodiv@divisor^(0+1280),w,c
  7520   004D2A  5E03               	subwf	___aodiv@dividend^(0+1280),f,c
  7521   004D2C  500C               	movf	(___aodiv@divisor+1)^(0+1280),w,c
  7522   004D2E  5A04               	subwfb	(___aodiv@dividend+1)^(0+1280),f,c
  7523   004D30  500D               	movf	(___aodiv@divisor+2)^(0+1280),w,c
  7524   004D32  5A05               	subwfb	(___aodiv@dividend+2)^(0+1280),f,c
  7525   004D34  500E               	movf	(___aodiv@divisor+3)^(0+1280),w,c
  7526   004D36  5A06               	subwfb	(___aodiv@dividend+3)^(0+1280),f,c
  7527   004D38  500F               	movf	(___aodiv@divisor+4)^(0+1280),w,c
  7528   004D3A  5A07               	subwfb	(___aodiv@dividend+4)^(0+1280),f,c
  7529   004D3C  5010               	movf	(___aodiv@divisor+5)^(0+1280),w,c
  7530   004D3E  5A08               	subwfb	(___aodiv@dividend+5)^(0+1280),f,c
  7531   004D40  5011               	movf	(___aodiv@divisor+6)^(0+1280),w,c
  7532   004D42  5A09               	subwfb	(___aodiv@dividend+6)^(0+1280),f,c
  7533   004D44  5012               	movf	(___aodiv@divisor+7)^(0+1280),w,c
  7534   004D46  5A0A               	subwfb	(___aodiv@dividend+7)^(0+1280),f,c
  7535   004D48  8015               	bsf	___aodiv@quotient^(0+1280),0,c
  7536   004D4A                     l5497:
  7537   004D4A  90D8               	bcf	status,0,c
  7538   004D4C  3212               	rrcf	(___aodiv@divisor+7)^(0+1280),f,c
  7539   004D4E  3211               	rrcf	(___aodiv@divisor+6)^(0+1280),f,c
  7540   004D50  3210               	rrcf	(___aodiv@divisor+5)^(0+1280),f,c
  7541   004D52  320F               	rrcf	(___aodiv@divisor+4)^(0+1280),f,c
  7542   004D54  320E               	rrcf	(___aodiv@divisor+3)^(0+1280),f,c
  7543   004D56  320D               	rrcf	(___aodiv@divisor+2)^(0+1280),f,c
  7544   004D58  320C               	rrcf	(___aodiv@divisor+1)^(0+1280),f,c
  7545   004D5A  320B               	rrcf	___aodiv@divisor^(0+1280),f,c
  7546   004D5C  2E13               	decfsz	___aodiv@counter^(0+1280),f,c
  7547   004D5E  EF74  F026         	goto	l5489
  7548   004D62                     l5501:
  7549   004D62  5014               	movf	___aodiv@sign^(0+1280),w,c
  7550   004D64  B4D8               	btfsc	status,2,c
  7551   004D66  EFB7  F026         	goto	u5781
  7552   004D6A  EFB9  F026         	goto	u5780
  7553   004D6E                     u5781:
  7554   004D6E  EFC9  F026         	goto	l5505
  7555   004D72                     u5780:
  7556   004D72  1E1C               	comf	(___aodiv@quotient+7)^(0+1280),f,c
  7557   004D74  1E1B               	comf	(___aodiv@quotient+6)^(0+1280),f,c
  7558   004D76  1E1A               	comf	(___aodiv@quotient+5)^(0+1280),f,c
  7559   004D78  1E19               	comf	(___aodiv@quotient+4)^(0+1280),f,c
  7560   004D7A  1E18               	comf	(___aodiv@quotient+3)^(0+1280),f,c
  7561   004D7C  1E17               	comf	(___aodiv@quotient+2)^(0+1280),f,c
  7562   004D7E  1E16               	comf	(___aodiv@quotient+1)^(0+1280),f,c
  7563   004D80  6C15               	negf	___aodiv@quotient^(0+1280),c
  7564   004D82  0E00               	movlw	0
  7565   004D84  2216               	addwfc	(___aodiv@quotient+1)^(0+1280),f,c
  7566   004D86  2217               	addwfc	(___aodiv@quotient+2)^(0+1280),f,c
  7567   004D88  2218               	addwfc	(___aodiv@quotient+3)^(0+1280),f,c
  7568   004D8A  2219               	addwfc	(___aodiv@quotient+4)^(0+1280),f,c
  7569   004D8C  221A               	addwfc	(___aodiv@quotient+5)^(0+1280),f,c
  7570   004D8E  221B               	addwfc	(___aodiv@quotient+6)^(0+1280),f,c
  7571   004D90  221C               	addwfc	(___aodiv@quotient+7)^(0+1280),f,c
  7572   004D92                     l5505:
  7573   004D92  C515  F503         	movff	___aodiv@quotient,?___aodiv
  7574   004D96  C516  F504         	movff	___aodiv@quotient+1,?___aodiv+1
  7575   004D9A  C517  F505         	movff	___aodiv@quotient+2,?___aodiv+2
  7576   004D9E  C518  F506         	movff	___aodiv@quotient+3,?___aodiv+3
  7577   004DA2  C519  F507         	movff	___aodiv@quotient+4,?___aodiv+4
  7578   004DA6  C51A  F508         	movff	___aodiv@quotient+5,?___aodiv+5
  7579   004DAA  C51B  F509         	movff	___aodiv@quotient+6,?___aodiv+6
  7580   004DAE  C51C  F50A         	movff	___aodiv@quotient+7,?___aodiv+7
  7581   004DB2  0012               	return		;funcret
  7582   004DB4                     __end_of___aodiv:
  7583                           	callstack 0
  7584                           
  7585 ;; *************** function _atoi *****************
  7586 ;; Defined at:
  7587 ;;		line 4 in file "C:\Program Files\Microchip\xc8\v2.40\pic\sources\c99\common\atoi.c"
  7588 ;; Parameters:    Size  Location     Type
  7589 ;;  s               2    8[COMRAM] PTR const unsigned char 
  7590 ;;		 -> STR_1(43), 
  7591 ;; Auto vars:     Size  Location     Type
  7592 ;;  n               2   15[COMRAM] int 
  7593 ;;  neg             2   13[COMRAM] int 
  7594 ;; Return value:  Size  Location     Type
  7595 ;;                  2    8[COMRAM] int 
  7596 ;; Registers used:
  7597 ;;		wreg, status,2, status,0, tblptrl, tblptrh, tblptru, prodl, prodh, cstack
  7598 ;; Tracked objects:
  7599 ;;		On entry : 0/0
  7600 ;;		On exit  : 0/0
  7601 ;;		Unchanged: 0/0
  7602 ;; Data sizes:     COMRAM   BANK5   BANK6   BANK7   BANK8   BANK9  BANK10  BANK11  BANK12  BANK13  BANK14  BANK15  BANK1
      +6  BANK17  BANK18  BANK19  BANK20  BANK21  BANK22  BANK23  BANK24  BANK25  BANK26  BANK27  BANK28  BANK29  BANK30  BANK3
      +1  BANK32  BANK33  BANK34  BANK35  BANK36
  7603 ;;      Params:         2       0       0       0       0       0       0       0       0       0       0       0       
      +0       0       0       0       0       0       0       0       0       0       0       0       0       0       0       
      +0       0       0       0       0       0
  7604 ;;      Locals:         4       0       0       0       0       0       0       0       0       0       0       0       
      +0       0       0       0       0       0       0       0       0       0       0       0       0       0       0       
      +0       0       0       0       0       0
  7605 ;;      Temps:          3       0       0       0       0       0       0       0       0       0       0       0       
      +0       0       0       0       0       0       0       0       0       0       0       0       0       0       0       
      +0       0       0       0       0       0
  7606 ;;      Totals:         9       0       0       0       0       0       0       0       0       0       0       0       
      +0       0       0       0       0       0       0       0       0       0       0       0       0       0       0       
      +0       0       0       0       0       0
  7607 ;;Total ram usage:        9 bytes
  7608 ;; Hardware stack levels used: 1
  7609 ;; Hardware stack levels required when called: 5
  7610 ;; This function calls:
  7611 ;;		___wmul
  7612 ;;		_isdigit
  7613 ;;		_isspace
  7614 ;; This function is called by:
  7615 ;;		_vfpfcnvrt
  7616 ;; This function uses a non-reentrant model
  7617 ;;
  7618                           
  7619                           	psect	text26
  7620   004F18                     __ptext26:
  7621                           	callstack 0
  7622   004F18                     _atoi:
  7623                           	callstack 118
  7624   004F18  0E00               	movlw	0
  7625   004F1A  6E11               	movwf	(atoi@n+1)^(0+1280),c
  7626   004F1C  0E00               	movlw	0
  7627   004F1E  6E10               	movwf	atoi@n^(0+1280),c
  7628   004F20  0E00               	movlw	0
  7629   004F22  6E0F               	movwf	(atoi@neg+1)^(0+1280),c
  7630   004F24  0E00               	movlw	0
  7631   004F26  6E0E               	movwf	atoi@neg^(0+1280),c
  7632   004F28  EF98  F027         	goto	l6317
  7633   004F2C                     l6313:
  7634   004F2C  4A09               	infsnz	atoi@s^(0+1280),f,c
  7635   004F2E  2A0A               	incf	(atoi@s+1)^(0+1280),f,c
  7636   004F30                     l6317:
  7637   004F30  C509  F4F6         	movff	atoi@s,tblptrl
  7638   004F34  C50A  F4F7         	movff	atoi@s+1,tblptrh
  7639   004F38                     	if	0	;tblptru may be non-zero
  7640   004F38                     	endif
  7641   004F38                     	if	1	;Program memory is > 0xFFFF, there are 3 active tblptr bytes
  7642   004F38  0E00               	movlw	low (__mediumconst shr (0+16))
  7643   004F3A  6EF8               	movwf	tblptru,c
  7644   004F3C                     	endif
  7645   004F3C  0008               	tblrd		*
  7646   004F3E  50F5               	movf	tablat,w,c
  7647   004F40  0A20               	xorlw	32
  7648   004F42  B4D8               	btfsc	status,2,c
  7649   004F44  EFA6  F027         	goto	u7201
  7650   004F48  EFA8  F027         	goto	u7200
  7651   004F4C                     u7201:
  7652   004F4C  EF96  F027         	goto	l6313
  7653   004F50                     u7200:
  7654   004F50  C509  F4F6         	movff	atoi@s,tblptrl
  7655   004F54  C50A  F4F7         	movff	atoi@s+1,tblptrh
  7656   004F58                     	if	0	;tblptru may be non-zero
  7657   004F58                     	endif
  7658   004F58                     	if	1	;Program memory is > 0xFFFF, there are 3 active tblptr bytes
  7659   004F58  0E00               	movlw	low (__mediumconst shr (0+16))
  7660   004F5A  6EF8               	movwf	tblptru,c
  7661   004F5C                     	endif
  7662   004F5C  0008               	tblrd		*
  7663   004F5E  C4F5 F50B          	movff	tablat,??_atoi
  7664   004F62  0EF7               	movlw	247
  7665   004F64  240B               	addwf	??_atoi^(0+1280),w,c
  7666   004F66  6E0C               	movwf	(??_atoi+1)^(0+1280),c
  7667   004F68  6A0D               	clrf	(??_atoi+2)^(0+1280),c
  7668   004F6A  0EFF               	movlw	255
  7669   004F6C  220D               	addwfc	(??_atoi+2)^(0+1280),f,c
  7670   004F6E  500D               	movf	(??_atoi+2)^(0+1280),w,c
  7671   004F70  E109               	bnz	u7210
  7672   004F72  0E05               	movlw	5
  7673   004F74  5C0C               	subwf	(??_atoi+1)^(0+1280),w,c
  7674   004F76  A0D8               	btfss	status,0,c
  7675   004F78  EFC0  F027         	goto	u7211
  7676   004F7C  EFC2  F027         	goto	u7210
  7677   004F80                     u7211:
  7678   004F80  EF96  F027         	goto	l6313
  7679   004F84                     u7210:
  7680   004F84  EFCC  F027         	goto	l6325
  7681   004F88                     l6321:
  7682   004F88  0E00               	movlw	0
  7683   004F8A  6E0F               	movwf	(atoi@neg+1)^(0+1280),c
  7684   004F8C  0E01               	movlw	1
  7685   004F8E  6E0E               	movwf	atoi@neg^(0+1280),c
  7686   004F90                     l6323:
  7687   004F90  4A09               	infsnz	atoi@s^(0+1280),f,c
  7688   004F92  2A0A               	incf	(atoi@s+1)^(0+1280),f,c
  7689   004F94  EF05  F028         	goto	l6333
  7690   004F98                     l6325:
  7691   004F98  C509  F4F6         	movff	atoi@s,tblptrl
  7692   004F9C  C50A  F4F7         	movff	atoi@s+1,tblptrh
  7693   004FA0                     	if	0	;tblptru may be non-zero
  7694   004FA0                     	endif
  7695   004FA0                     	if	1	;Program memory is > 0xFFFF, there are 3 active tblptr bytes
  7696   004FA0  0E00               	movlw	low (__mediumconst shr (0+16))
  7697   004FA2  6EF8               	movwf	tblptru,c
  7698   004FA4                     	endif
  7699   004FA4  0008               	tblrd		*
  7700   004FA6  50F5               	movf	tablat,w,c
  7701   004FA8  6E0B               	movwf	??_atoi^(0+1280),c
  7702   004FAA  6A0C               	clrf	(??_atoi+1)^(0+1280),c
  7703                           
  7704                           ; Switch on 2 bytes has been partitioned into a top level switch of size 1, and 1 sub-sw
      +                          itches
  7705                           ; Switch size 1, requested type "simple"
  7706                           ; Number of cases is 1, Range of values is 0 to 0
  7707                           ; switch strategies available:
  7708                           ; Name         Instructions Cycles
  7709                           ; simple_byte            4     3 (average)
  7710                           ;	Chosen strategy is simple_byte
  7711   004FAC  500C               	movf	(??_atoi+1)^(0+1280),w,c
  7712   004FAE  0A00               	xorlw	0	; case 0
  7713   004FB0  B4D8               	btfsc	status,2,c
  7714   004FB2  EFDD  F027         	goto	l6789
  7715   004FB6  EF05  F028         	goto	l6333
  7716   004FBA                     l6789:
  7717                           
  7718                           ; Switch size 1, requested type "simple"
  7719                           ; Number of cases is 2, Range of values is 43 to 45
  7720                           ; switch strategies available:
  7721                           ; Name         Instructions Cycles
  7722                           ; simple_byte            7     4 (average)
  7723                           ;	Chosen strategy is simple_byte
  7724   004FBA  500B               	movf	??_atoi^(0+1280),w,c
  7725   004FBC  0A2B               	xorlw	43	; case 43
  7726   004FBE  B4D8               	btfsc	status,2,c
  7727   004FC0  EFC8  F027         	goto	l6323
  7728   004FC4  0A06               	xorlw	6	; case 45
  7729   004FC6  B4D8               	btfsc	status,2,c
  7730   004FC8  EFC4  F027         	goto	l6321
  7731   004FCC  EF05  F028         	goto	l6333
  7732   004FD0                     l6327:
  7733   004FD0  C510  F503         	movff	atoi@n,___wmul@multiplier
  7734   004FD4  C511  F504         	movff	atoi@n+1,___wmul@multiplier+1
  7735   004FD8  0E00               	movlw	0
  7736   004FDA  6E06               	movwf	(___wmul@multiplicand+1)^(0+1280),c
  7737   004FDC  0E0A               	movlw	10
  7738   004FDE  6E05               	movwf	___wmul@multiplicand^(0+1280),c
  7739   004FE0  ECE4  F02E         	call	___wmul	;wreg free
  7740   004FE4  C509  F4F6         	movff	atoi@s,tblptrl
  7741   004FE8  C50A  F4F7         	movff	atoi@s+1,tblptrh
  7742   004FEC                     	if	0	;tblptru may be non-zero
  7743   004FEC                     	endif
  7744   004FEC                     	if	1	;Program memory is > 0xFFFF, there are 3 active tblptr bytes
  7745   004FEC  0E00               	movlw	low (__mediumconst shr (0+16))
  7746   004FEE  6EF8               	movwf	tblptru,c
  7747   004FF0                     	endif
  7748   004FF0  0008               	tblrd		*
  7749   004FF2  50F5               	movf	tablat,w,c
  7750   004FF4  5E03               	subwf	?___wmul^(0+1280),f,c
  7751   004FF6  0E00               	movlw	0
  7752   004FF8  5A04               	subwfb	(?___wmul+1)^(0+1280),f,c
  7753   004FFA  0E30               	movlw	48
  7754   004FFC  2403               	addwf	?___wmul^(0+1280),w,c
  7755   004FFE  6E10               	movwf	atoi@n^(0+1280),c
  7756   005000  0E00               	movlw	0
  7757   005002  2004               	addwfc	(?___wmul+1)^(0+1280),w,c
  7758   005004  6E11               	movwf	(atoi@n+1)^(0+1280),c
  7759   005006  EFC8  F027         	goto	l6323
  7760   00500A                     l6333:
  7761   00500A  C509  F4F6         	movff	atoi@s,tblptrl
  7762   00500E  C50A  F4F7         	movff	atoi@s+1,tblptrh
  7763   005012                     	if	0	;tblptru may be non-zero
  7764   005012                     	endif
  7765   005012                     	if	1	;Program memory is > 0xFFFF, there are 3 active tblptr bytes
  7766   005012  0E00               	movlw	low (__mediumconst shr (0+16))
  7767   005014  6EF8               	movwf	tblptru,c
  7768   005016                     	endif
  7769   005016  0008               	tblrd		*
  7770   005018  C4F5 F50B          	movff	tablat,??_atoi
  7771   00501C  0ED0               	movlw	208
  7772   00501E  240B               	addwf	??_atoi^(0+1280),w,c
  7773   005020  6E0C               	movwf	(??_atoi+1)^(0+1280),c
  7774   005022  6A0D               	clrf	(??_atoi+2)^(0+1280),c
  7775   005024  0EFF               	movlw	255
  7776   005026  220D               	addwfc	(??_atoi+2)^(0+1280),f,c
  7777   005028  500D               	movf	(??_atoi+2)^(0+1280),w,c
  7778   00502A  E109               	bnz	u7220
  7779   00502C  0E0A               	movlw	10
  7780   00502E  5C0C               	subwf	(??_atoi+1)^(0+1280),w,c
  7781   005030  A0D8               	btfss	status,0,c
  7782   005032  EF1D  F028         	goto	u7221
  7783   005036  EF1F  F028         	goto	u7220
  7784   00503A                     u7221:
  7785   00503A  EFE8  F027         	goto	l6327
  7786   00503E                     u7220:
  7787   00503E  500E               	movf	atoi@neg^(0+1280),w,c
  7788   005040  100F               	iorwf	(atoi@neg+1)^(0+1280),w,c
  7789   005042  A4D8               	btfss	status,2,c
  7790   005044  EF26  F028         	goto	u7231
  7791   005048  EF28  F028         	goto	u7230
  7792   00504C                     u7231:
  7793   00504C  EF36  F028         	goto	l1554
  7794   005050                     u7230:
  7795   005050  C510  F50B         	movff	atoi@n,??_atoi
  7796   005054  C511  F50C         	movff	atoi@n+1,??_atoi+1
  7797   005058  1E0B               	comf	??_atoi^(0+1280),f,c
  7798   00505A  1E0C               	comf	(??_atoi+1)^(0+1280),f,c
  7799   00505C  4A0B               	infsnz	??_atoi^(0+1280),f,c
  7800   00505E  2A0C               	incf	(??_atoi+1)^(0+1280),f,c
  7801   005060  C50B  F509         	movff	??_atoi,?_atoi
  7802   005064  C50C  F50A         	movff	??_atoi+1,?_atoi+1
  7803   005068  EF3A  F028         	goto	l1557
  7804   00506C                     l1554:
  7805   00506C  C510  F509         	movff	atoi@n,?_atoi
  7806   005070  C511  F50A         	movff	atoi@n+1,?_atoi+1
  7807   005074                     l1557:
  7808   005074  0012               	return		;funcret
  7809   005076                     __end_of_atoi:
  7810                           	callstack 0
  7811                           
  7812 ;; *************** function _isspace *****************
  7813 ;; Defined at:
  7814 ;;		line 5 in file "C:\Program Files\Microchip\xc8\v2.40\pic\sources\c99\common\isspace.c"
  7815 ;; Parameters:    Size  Location     Type
  7816 ;;  c               2    2[COMRAM] int 
  7817 ;; Auto vars:     Size  Location     Type
  7818 ;;		None
  7819 ;; Return value:  Size  Location     Type
  7820 ;;                  2    2[COMRAM] int 
  7821 ;; Registers used:
  7822 ;;		wreg, status,2, status,0
  7823 ;; Tracked objects:
  7824 ;;		On entry : 0/0
  7825 ;;		On exit  : 0/0
  7826 ;;		Unchanged: 0/0
  7827 ;; Data sizes:     COMRAM   BANK5   BANK6   BANK7   BANK8   BANK9  BANK10  BANK11  BANK12  BANK13  BANK14  BANK15  BANK1
      +6  BANK17  BANK18  BANK19  BANK20  BANK21  BANK22  BANK23  BANK24  BANK25  BANK26  BANK27  BANK28  BANK29  BANK30  BANK3
      +1  BANK32  BANK33  BANK34  BANK35  BANK36
  7828 ;;      Params:         2       0       0       0       0       0       0       0       0       0       0       0       
      +0       0       0       0       0       0       0       0       0       0       0       0       0       0       0       
      +0       0       0       0       0       0
  7829 ;;      Locals:         1       0       0       0       0       0       0       0       0       0       0       0       
      +0       0       0       0       0       0       0       0       0       0       0       0       0       0       0       
      +0       0       0       0       0       0
  7830 ;;      Temps:          2       0       0       0       0       0       0       0       0       0       0       0       
      +0       0       0       0       0       0       0       0       0       0       0       0       0       0       0       
      +0       0       0       0       0       0
  7831 ;;      Totals:         5       0       0       0       0       0       0       0       0       0       0       0       
      +0       0       0       0       0       0       0       0       0       0       0       0       0       0       0       
      +0       0       0       0       0       0
  7832 ;;Total ram usage:        5 bytes
  7833 ;; Hardware stack levels used: 1
  7834 ;; Hardware stack levels required when called: 4
  7835 ;; This function calls:
  7836 ;;		Nothing
  7837 ;; This function is called by:
  7838 ;;		_atoi
  7839 ;; This function uses a non-reentrant model
  7840 ;;
  7841                           
  7842                           	psect	text27
  7843   005A84                     __ptext27:
  7844                           	callstack 0
  7845   005A84                     _isspace:
  7846                           	callstack 118
  7847   005A84  0E01               	movlw	1
  7848   005A86  6E07               	movwf	_isspace$1914^(0+1280),c
  7849   005A88  0E20               	movlw	32
  7850   005A8A  1803               	xorwf	isspace@c^(0+1280),w,c
  7851   005A8C  1004               	iorwf	(isspace@c+1)^(0+1280),w,c
  7852   005A8E  B4D8               	btfsc	status,2,c
  7853   005A90  EF4C  F02D         	goto	u6701
  7854   005A94  EF4E  F02D         	goto	u6700
  7855   005A98                     u6701:
  7856   005A98  EF61  F02D         	goto	l6013
  7857   005A9C                     u6700:
  7858   005A9C  0EF7               	movlw	247
  7859   005A9E  2403               	addwf	isspace@c^(0+1280),w,c
  7860   005AA0  6E05               	movwf	??_isspace^(0+1280),c
  7861   005AA2  0EFF               	movlw	255
  7862   005AA4  2004               	addwfc	(isspace@c+1)^(0+1280),w,c
  7863   005AA6  6E06               	movwf	(??_isspace+1)^(0+1280),c
  7864   005AA8  5006               	movf	(??_isspace+1)^(0+1280),w,c
  7865   005AAA  E109               	bnz	u6710
  7866   005AAC  0E05               	movlw	5
  7867   005AAE  5C05               	subwf	??_isspace^(0+1280),w,c
  7868   005AB0  A0D8               	btfss	status,0,c
  7869   005AB2  EF5D  F02D         	goto	u6711
  7870   005AB6  EF5F  F02D         	goto	u6710
  7871   005ABA                     u6711:
  7872   005ABA  EF61  F02D         	goto	l6013
  7873   005ABE                     u6710:
  7874   005ABE  0E00               	movlw	0
  7875   005AC0  6E07               	movwf	_isspace$1914^(0+1280),c
  7876   005AC2                     l6013:
  7877   005AC2  C507  F503         	movff	_isspace$1914,?_isspace
  7878   005AC6  6A04               	clrf	(?_isspace+1)^(0+1280),c
  7879   005AC8  0012               	return		;funcret
  7880   005ACA                     __end_of_isspace:
  7881                           	callstack 0
  7882                           
  7883 ;; *************** function _isdigit *****************
  7884 ;; Defined at:
  7885 ;;		line 5 in file "C:\Program Files\Microchip\xc8\v2.40\pic\sources\c99\common\isdigit.c"
  7886 ;; Parameters:    Size  Location     Type
  7887 ;;  c               2    2[COMRAM] int 
  7888 ;; Auto vars:     Size  Location     Type
  7889 ;;		None
  7890 ;; Return value:  Size  Location     Type
  7891 ;;                  2    2[COMRAM] int 
  7892 ;; Registers used:
  7893 ;;		wreg, status,2, status,0
  7894 ;; Tracked objects:
  7895 ;;		On entry : 0/0
  7896 ;;		On exit  : 0/0
  7897 ;;		Unchanged: 0/0
  7898 ;; Data sizes:     COMRAM   BANK5   BANK6   BANK7   BANK8   BANK9  BANK10  BANK11  BANK12  BANK13  BANK14  BANK15  BANK1
      +6  BANK17  BANK18  BANK19  BANK20  BANK21  BANK22  BANK23  BANK24  BANK25  BANK26  BANK27  BANK28  BANK29  BANK30  BANK3
      +1  BANK32  BANK33  BANK34  BANK35  BANK36
  7899 ;;      Params:         2       0       0       0       0       0       0       0       0       0       0       0       
      +0       0       0       0       0       0       0       0       0       0       0       0       0       0       0       
      +0       0       0       0       0       0
  7900 ;;      Locals:         0       0       0       0       0       0       0       0       0       0       0       0       
      +0       0       0       0       0       0       0       0       0       0       0       0       0       0       0       
      +0       0       0       0       0       0
  7901 ;;      Temps:          2       0       0       0       0       0       0       0       0       0       0       0       
      +0       0       0       0       0       0       0       0       0       0       0       0       0       0       0       
      +0       0       0       0       0       0
  7902 ;;      Totals:         4       0       0       0       0       0       0       0       0       0       0       0       
      +0       0       0       0       0       0       0       0       0       0       0       0       0       0       0       
      +0       0       0       0       0       0
  7903 ;;Total ram usage:        4 bytes
  7904 ;; Hardware stack levels used: 1
  7905 ;; Hardware stack levels required when called: 4
  7906 ;; This function calls:
  7907 ;;		Nothing
  7908 ;; This function is called by:
  7909 ;;		_vfpfcnvrt
  7910 ;;		_atoi
  7911 ;; This function uses a non-reentrant model
  7912 ;;
  7913                           
  7914                           	psect	text28
  7915   005CF6                     __ptext28:
  7916                           	callstack 0
  7917   005CF6                     _isdigit:
  7918                           	callstack 119
  7919   005CF6  0ED0               	movlw	208
  7920   005CF8  2403               	addwf	isdigit@c^(0+1280),w,c
  7921   005CFA  6E05               	movwf	??_isdigit^(0+1280),c
  7922   005CFC  0EFF               	movlw	255
  7923   005CFE  2004               	addwfc	(isdigit@c+1)^(0+1280),w,c
  7924   005D00  6E06               	movwf	(??_isdigit+1)^(0+1280),c
  7925   005D02  5006               	movf	(??_isdigit+1)^(0+1280),w,c
  7926   005D04  E10A               	bnz	u6680
  7927   005D06  0E0A               	movlw	10
  7928   005D08  5C05               	subwf	??_isdigit^(0+1280),w,c
  7929   005D0A  A0D8               	btfss	status,0,c
  7930   005D0C  EF8A  F02E         	goto	u6681
  7931   005D10  EF8D  F02E         	goto	u6680
  7932   005D14                     u6681:
  7933   005D14  0E01               	movlw	1
  7934   005D16  EF8E  F02E         	goto	u6690
  7935   005D1A                     u6680:
  7936   005D1A  0E00               	movlw	0
  7937   005D1C                     u6690:
  7938   005D1C  6E03               	movwf	?_isdigit^(0+1280),c
  7939   005D1E  6A04               	clrf	(?_isdigit+1)^(0+1280),c
  7940   005D20  0012               	return		;funcret
  7941   005D22                     __end_of_isdigit:
  7942                           	callstack 0
  7943                           
  7944 ;; *************** function _get_DHT *****************
  7945 ;; Defined at:
  7946 ;;		line 158 in file "mcc_generated_files/tmr0.c"
  7947 ;; Parameters:    Size  Location     Type
  7948 ;;		None
  7949 ;; Auto vars:     Size  Location     Type
  7950 ;;		None
  7951 ;; Return value:  Size  Location     Type
  7952 ;;                  2    2[COMRAM] int 
  7953 ;; Registers used:
  7954 ;;		wreg, status,2, status,0
  7955 ;; Tracked objects:
  7956 ;;		On entry : 0/0
  7957 ;;		On exit  : 0/0
  7958 ;;		Unchanged: 0/0
  7959 ;; Data sizes:     COMRAM   BANK5   BANK6   BANK7   BANK8   BANK9  BANK10  BANK11  BANK12  BANK13  BANK14  BANK15  BANK1
      +6  BANK17  BANK18  BANK19  BANK20  BANK21  BANK22  BANK23  BANK24  BANK25  BANK26  BANK27  BANK28  BANK29  BANK30  BANK3
      +1  BANK32  BANK33  BANK34  BANK35  BANK36
  7960 ;;      Params:         2       0       0       0       0       0       0       0       0       0       0       0       
      +0       0       0       0       0       0       0       0       0       0       0       0       0       0       0       
      +0       0       0       0       0       0
  7961 ;;      Locals:         0       0       0       0       0       0       0       0       0       0       0       0       
      +0       0       0       0       0       0       0       0       0       0       0       0       0       0       0       
      +0       0       0       0       0       0
  7962 ;;      Temps:          0       0       0       0       0       0       0       0       0       0       0       0       
      +0       0       0       0       0       0       0       0       0       0       0       0       0       0       0       
      +0       0       0       0       0       0
  7963 ;;      Totals:         2       0       0       0       0       0       0       0       0       0       0       0       
      +0       0       0       0       0       0       0       0       0       0       0       0       0       0       0       
      +0       0       0       0       0       0
  7964 ;;Total ram usage:        2 bytes
  7965 ;; Hardware stack levels used: 1
  7966 ;; Hardware stack levels required when called: 4
  7967 ;; This function calls:
  7968 ;;		Nothing
  7969 ;; This function is called by:
  7970 ;;		_main
  7971 ;; This function uses a non-reentrant model
  7972 ;;
  7973                           
  7974                           	psect	text29
  7975   005C00                     __ptext29:
  7976                           	callstack 0
  7977   005C00                     _get_DHT:
  7978                           	callstack 122
  7979   005C00                     
  7980                           ;mcc_generated_files/tmr0.c: 159:     if(flag == 1){
  7981   005C00  0105               	movlb	5	; () banked
  7982   005C02  05E1               	decf	_flag& (0+255),w,b
  7983   005C04  11E2               	iorwf	(_flag+1)& (0+255),w,b
  7984   005C06  A4D8               	btfss	status,2,c
  7985   005C08  EF08  F02E         	goto	u5031
  7986   005C0C  EF0A  F02E         	goto	u5030
  7987   005C10                     u5031:
  7988   005C10  EF14  F02E         	goto	l4927
  7989   005C14                     u5030:
  7990   005C14                     
  7991                           ; BSR set to: 5
  7992                           ;mcc_generated_files/tmr0.c: 160:         flag = 0;
  7993   005C14  0E00               	movlw	0
  7994   005C16  6FE2               	movwf	(_flag+1)& (0+255),b
  7995   005C18  0E00               	movlw	0
  7996   005C1A  6FE1               	movwf	_flag& (0+255),b
  7997                           
  7998                           ;mcc_generated_files/tmr0.c: 161:         return 1;
  7999   005C1C  0E00               	movlw	0
  8000   005C1E  6E04               	movwf	(?_get_DHT+1)^(0+1280),c
  8001   005C20  0E01               	movlw	1
  8002   005C22  6E03               	movwf	?_get_DHT^(0+1280),c
  8003   005C24  EF18  F02E         	goto	l511
  8004   005C28                     l4927:
  8005                           
  8006                           ; BSR set to: 5
  8007                           ;mcc_generated_files/tmr0.c: 163:         return 0;
  8008   005C28  0E00               	movlw	0
  8009   005C2A  6E04               	movwf	(?_get_DHT+1)^(0+1280),c
  8010   005C2C  0E00               	movlw	0
  8011   005C2E  6E03               	movwf	?_get_DHT^(0+1280),c
  8012   005C30                     l511:
  8013                           
  8014                           ; BSR set to: 5
  8015   005C30  0012               	return		;funcret
  8016   005C32                     __end_of_get_DHT:
  8017                           	callstack 0
  8018                           
  8019 ;; *************** function _getDistancia *****************
  8020 ;; Defined at:
  8021 ;;		line 9 in file "main.c"
  8022 ;; Parameters:    Size  Location     Type
  8023 ;;		None
  8024 ;; Auto vars:     Size  Location     Type
  8025 ;;  contador        2    4[COMRAM] unsigned int 
  8026 ;; Return value:  Size  Location     Type
  8027 ;;                  2    2[COMRAM] unsigned int 
  8028 ;; Registers used:
  8029 ;;		wreg, status,2, status,0
  8030 ;; Tracked objects:
  8031 ;;		On entry : 0/0
  8032 ;;		On exit  : 0/0
  8033 ;;		Unchanged: 0/0
  8034 ;; Data sizes:     COMRAM   BANK5   BANK6   BANK7   BANK8   BANK9  BANK10  BANK11  BANK12  BANK13  BANK14  BANK15  BANK1
      +6  BANK17  BANK18  BANK19  BANK20  BANK21  BANK22  BANK23  BANK24  BANK25  BANK26  BANK27  BANK28  BANK29  BANK30  BANK3
      +1  BANK32  BANK33  BANK34  BANK35  BANK36
  8035 ;;      Params:         2       0       0       0       0       0       0       0       0       0       0       0       
      +0       0       0       0       0       0       0       0       0       0       0       0       0       0       0       
      +0       0       0       0       0       0
  8036 ;;      Locals:         2       0       0       0       0       0       0       0       0       0       0       0       
      +0       0       0       0       0       0       0       0       0       0       0       0       0       0       0       
      +0       0       0       0       0       0
  8037 ;;      Temps:          0       0       0       0       0       0       0       0       0       0       0       0       
      +0       0       0       0       0       0       0       0       0       0       0       0       0       0       0       
      +0       0       0       0       0       0
  8038 ;;      Totals:         4       0       0       0       0       0       0       0       0       0       0       0       
      +0       0       0       0       0       0       0       0       0       0       0       0       0       0       0       
      +0       0       0       0       0       0
  8039 ;;Total ram usage:        4 bytes
  8040 ;; Hardware stack levels used: 1
  8041 ;; Hardware stack levels required when called: 4
  8042 ;; This function calls:
  8043 ;;		Nothing
  8044 ;; This function is called by:
  8045 ;;		_main
  8046 ;; This function uses a non-reentrant model
  8047 ;;
  8048                           
  8049                           	psect	text30
  8050   0059F0                     __ptext30:
  8051                           	callstack 0
  8052   0059F0                     _getDistancia:
  8053                           	callstack 122
  8054   0059F0                     
  8055                           ;main.c: 10:     unsigned int contador=0;
  8056   0059F0  0E00               	movlw	0
  8057   0059F2  6E06               	movwf	(getDistancia@contador+1)^(0+1280),c
  8058   0059F4  0E00               	movlw	0
  8059   0059F6  6E05               	movwf	getDistancia@contador^(0+1280),c
  8060   0059F8                     
  8061                           ;main.c: 11:     PORTFbits.RF6 = 1;
  8062   0059F8  8CD3               	bsf	211,6,c	;volatile
  8063   0059FA                     
  8064                           ;main.c: 12:     _delay((unsigned long)((10)*(64000000UL/4000000.0)));
  8065   0059FA  0E35               	movlw	53
  8066   0059FC                     u7577:
  8067   0059FC  2EE8               	decfsz	wreg,f,c
  8068   0059FE  D7FE               	bra	u7577
  8069   005A00  F000               	nop	
  8070   005A02                     
  8071                           ;main.c: 13:     PORTFbits.RF6 = 0;
  8072   005A02  9CD3               	bcf	211,6,c	;volatile
  8073   005A04                     l565:
  8074   005A04  AED3               	btfss	211,7,c	;volatile
  8075   005A06  EF07  F02D         	goto	u5041
  8076   005A0A  EF09  F02D         	goto	u5040
  8077   005A0E                     u5041:
  8078   005A0E  EF02  F02D         	goto	l565
  8079   005A12                     u5040:
  8080   005A12  EF13  F02D         	goto	l4943
  8081   005A16                     l4939:
  8082                           
  8083                           ;main.c: 16:         contador++;
  8084   005A16  4A05               	infsnz	getDistancia@contador^(0+1280),f,c
  8085   005A18  2A06               	incf	(getDistancia@contador+1)^(0+1280),f,c
  8086   005A1A                     
  8087                           ;main.c: 17:         _delay((unsigned long)((58)*(64000000UL/4000000.0)));
  8088   005A1A  0EB9               	movlw	185
  8089   005A1C                     u7587:
  8090   005A1C  D000               	nop2	
  8091   005A1E  2EE8               	decfsz	wreg,f,c
  8092   005A20  D7FD               	bra	u7587
  8093   005A22  D000               	nop2	
  8094   005A24  F000               	nop	
  8095   005A26                     l4943:
  8096                           
  8097                           ;main.c: 15:     while (PORTFbits.RF7==1){
  8098   005A26  BED3               	btfsc	211,7,c	;volatile
  8099   005A28  EF18  F02D         	goto	u5051
  8100   005A2C  EF1A  F02D         	goto	u5050
  8101   005A30                     u5051:
  8102   005A30  EF0B  F02D         	goto	l4939
  8103   005A34                     u5050:
  8104   005A34                     
  8105                           ;main.c: 19:     return (contador);
  8106   005A34  C505  F503         	movff	getDistancia@contador,?_getDistancia
  8107   005A38  C506  F504         	movff	getDistancia@contador+1,?_getDistancia+1
  8108   005A3C  0012               	return		;funcret
  8109   005A3E                     __end_of_getDistancia:
  8110                           	callstack 0
  8111                           
  8112 ;; *************** function _SYSTEM_Initialize *****************
  8113 ;; Defined at:
  8114 ;;		line 50 in file "mcc_generated_files/mcc.c"
  8115 ;; Parameters:    Size  Location     Type
  8116 ;;		None
  8117 ;; Auto vars:     Size  Location     Type
  8118 ;;		None
  8119 ;; Return value:  Size  Location     Type
  8120 ;;                  1    wreg      void 
  8121 ;; Registers used:
  8122 ;;		wreg, status,2, status,0, cstack
  8123 ;; Tracked objects:
  8124 ;;		On entry : 0/0
  8125 ;;		On exit  : 0/0
  8126 ;;		Unchanged: 0/0
  8127 ;; Data sizes:     COMRAM   BANK5   BANK6   BANK7   BANK8   BANK9  BANK10  BANK11  BANK12  BANK13  BANK14  BANK15  BANK1
      +6  BANK17  BANK18  BANK19  BANK20  BANK21  BANK22  BANK23  BANK24  BANK25  BANK26  BANK27  BANK28  BANK29  BANK30  BANK3
      +1  BANK32  BANK33  BANK34  BANK35  BANK36
  8128 ;;      Params:         0       0       0       0       0       0       0       0       0       0       0       0       
      +0       0       0       0       0       0       0       0       0       0       0       0       0       0       0       
      +0       0       0       0       0       0
  8129 ;;      Locals:         0       0       0       0       0       0       0       0       0       0       0       0       
      +0       0       0       0       0       0       0       0       0       0       0       0       0       0       0       
      +0       0       0       0       0       0
  8130 ;;      Temps:          0       0       0       0       0       0       0       0       0       0       0       0       
      +0       0       0       0       0       0       0       0       0       0       0       0       0       0       0       
      +0       0       0       0       0       0
  8131 ;;      Totals:         0       0       0       0       0       0       0       0       0       0       0       0       
      +0       0       0       0       0       0       0       0       0       0       0       0       0       0       0       
      +0       0       0       0       0       0
  8132 ;;Total ram usage:        0 bytes
  8133 ;; Hardware stack levels used: 1
  8134 ;; Hardware stack levels required when called: 6
  8135 ;; This function calls:
  8136 ;;		_ADCC_Initialize
  8137 ;;		_INTERRUPT_Initialize
  8138 ;;		_OSCILLATOR_Initialize
  8139 ;;		_PIN_MANAGER_Initialize
  8140 ;;		_PMD_Initialize
  8141 ;;		_TMR0_Initialize
  8142 ;;		_UART1_Initialize
  8143 ;; This function is called by:
  8144 ;;		_main
  8145 ;; This function uses a non-reentrant model
  8146 ;;
  8147                           
  8148                           	psect	text31
  8149   005E12                     __ptext31:
  8150                           	callstack 0
  8151   005E12                     _SYSTEM_Initialize:
  8152                           	callstack 120
  8153   005E12                     
  8154                           ;mcc_generated_files/mcc.c: 52:     INTERRUPT_Initialize();
  8155   005E12  EC52  F02F         	call	_INTERRUPT_Initialize	;wreg free
  8156   005E16                     
  8157                           ;mcc_generated_files/mcc.c: 53:     PMD_Initialize();
  8158   005E16  ECF7  F02E         	call	_PMD_Initialize	;wreg free
  8159   005E1A                     
  8160                           ;mcc_generated_files/mcc.c: 54:     PIN_MANAGER_Initialize();
  8161   005E1A  EC44  F02A         	call	_PIN_MANAGER_Initialize	;wreg free
  8162   005E1E                     
  8163                           ;mcc_generated_files/mcc.c: 55:     OSCILLATOR_Initialize();
  8164   005E1E  EC18  F02F         	call	_OSCILLATOR_Initialize	;wreg free
  8165   005E22                     
  8166                           ;mcc_generated_files/mcc.c: 56:     ADCC_Initialize();
  8167   005E22  EC78  F02C         	call	_ADCC_Initialize	;wreg free
  8168   005E26                     
  8169                           ;mcc_generated_files/mcc.c: 57:     TMR0_Initialize();
  8170   005E26  ECA7  F02E         	call	_TMR0_Initialize	;wreg free
  8171   005E2A                     
  8172                           ;mcc_generated_files/mcc.c: 58:     UART1_Initialize();
  8173   005E2A  ECDB  F02B         	call	_UART1_Initialize	;wreg free
  8174   005E2E  0012               	return		;funcret
  8175   005E30                     __end_of_SYSTEM_Initialize:
  8176                           	callstack 0
  8177                           
  8178 ;; *************** function _UART1_Initialize *****************
  8179 ;; Defined at:
  8180 ;;		line 66 in file "mcc_generated_files/uart1.c"
  8181 ;; Parameters:    Size  Location     Type
  8182 ;;		None
  8183 ;; Auto vars:     Size  Location     Type
  8184 ;;		None
  8185 ;; Return value:  Size  Location     Type
  8186 ;;                  1    wreg      void 
  8187 ;; Registers used:
  8188 ;;		wreg, status,2, status,0, cstack
  8189 ;; Tracked objects:
  8190 ;;		On entry : 0/0
  8191 ;;		On exit  : 0/0
  8192 ;;		Unchanged: 0/0
  8193 ;; Data sizes:     COMRAM   BANK5   BANK6   BANK7   BANK8   BANK9  BANK10  BANK11  BANK12  BANK13  BANK14  BANK15  BANK1
      +6  BANK17  BANK18  BANK19  BANK20  BANK21  BANK22  BANK23  BANK24  BANK25  BANK26  BANK27  BANK28  BANK29  BANK30  BANK3
      +1  BANK32  BANK33  BANK34  BANK35  BANK36
  8194 ;;      Params:         0       0       0       0       0       0       0       0       0       0       0       0       
      +0       0       0       0       0       0       0       0       0       0       0       0       0       0       0       
      +0       0       0       0       0       0
  8195 ;;      Locals:         0       0       0       0       0       0       0       0       0       0       0       0       
      +0       0       0       0       0       0       0       0       0       0       0       0       0       0       0       
      +0       0       0       0       0       0
  8196 ;;      Temps:          0       0       0       0       0       0       0       0       0       0       0       0       
      +0       0       0       0       0       0       0       0       0       0       0       0       0       0       0       
      +0       0       0       0       0       0
  8197 ;;      Totals:         0       0       0       0       0       0       0       0       0       0       0       0       
      +0       0       0       0       0       0       0       0       0       0       0       0       0       0       0       
      +0       0       0       0       0       0
  8198 ;;Total ram usage:        0 bytes
  8199 ;; Hardware stack levels used: 1
  8200 ;; Hardware stack levels required when called: 5
  8201 ;; This function calls:
  8202 ;;		_UART1_SetErrorHandler
  8203 ;;		_UART1_SetFramingErrorHandler
  8204 ;;		_UART1_SetOverrunErrorHandler
  8205 ;; This function is called by:
  8206 ;;		_SYSTEM_Initialize
  8207 ;; This function uses a non-reentrant model
  8208 ;;
  8209                           
  8210                           	psect	text32
  8211   0057B6                     __ptext32:
  8212                           	callstack 0
  8213   0057B6                     _UART1_Initialize:
  8214                           	callstack 120
  8215   0057B6                     
  8216                           ;mcc_generated_files/uart1.c: 73:     U1P1L = 0x00;
  8217   0057B6  0E00               	movlw	0
  8218   0057B8  0102               	movlb	2	; () banked
  8219   0057BA  6FA5               	movwf	165,b	;volatile
  8220                           
  8221                           ;mcc_generated_files/uart1.c: 76:     U1P1H = 0x00;
  8222   0057BC  0E00               	movlw	0
  8223   0057BE  6FA6               	movwf	166,b	;volatile
  8224                           
  8225                           ;mcc_generated_files/uart1.c: 79:     U1P2L = 0x00;
  8226   0057C0  0E00               	movlw	0
  8227   0057C2  6FA7               	movwf	167,b	;volatile
  8228                           
  8229                           ;mcc_generated_files/uart1.c: 82:     U1P2H = 0x00;
  8230   0057C4  0E00               	movlw	0
  8231   0057C6  6FA8               	movwf	168,b	;volatile
  8232                           
  8233                           ;mcc_generated_files/uart1.c: 85:     U1P3L = 0x00;
  8234   0057C8  0E00               	movlw	0
  8235   0057CA  6FA9               	movwf	169,b	;volatile
  8236                           
  8237                           ;mcc_generated_files/uart1.c: 88:     U1P3H = 0x00;
  8238   0057CC  0E00               	movlw	0
  8239   0057CE  6FAA               	movwf	170,b	;volatile
  8240                           
  8241                           ;mcc_generated_files/uart1.c: 91:     U1CON0 = 0xB0;
  8242   0057D0  0EB0               	movlw	176
  8243   0057D2  6FAB               	movwf	171,b	;volatile
  8244                           
  8245                           ;mcc_generated_files/uart1.c: 94:     U1CON1 = 0x80;
  8246   0057D4  0E80               	movlw	128
  8247   0057D6  6FAC               	movwf	172,b	;volatile
  8248                           
  8249                           ;mcc_generated_files/uart1.c: 97:     U1CON2 = 0x00;
  8250   0057D8  0E00               	movlw	0
  8251   0057DA  6FAD               	movwf	173,b	;volatile
  8252                           
  8253                           ;mcc_generated_files/uart1.c: 100:     U1BRGL = 0x82;
  8254   0057DC  0E82               	movlw	130
  8255   0057DE  6FAE               	movwf	174,b	;volatile
  8256                           
  8257                           ;mcc_generated_files/uart1.c: 103:     U1BRGH = 0x06;
  8258   0057E0  0E06               	movlw	6
  8259   0057E2  6FAF               	movwf	175,b	;volatile
  8260                           
  8261                           ;mcc_generated_files/uart1.c: 106:     U1FIFO = 0x00;
  8262   0057E4  0E00               	movlw	0
  8263   0057E6  6FB0               	movwf	176,b	;volatile
  8264                           
  8265                           ;mcc_generated_files/uart1.c: 109:     U1UIR = 0x00;
  8266   0057E8  0E00               	movlw	0
  8267   0057EA  6FB1               	movwf	177,b	;volatile
  8268                           
  8269                           ;mcc_generated_files/uart1.c: 112:     U1ERRIR = 0x00;
  8270   0057EC  0E00               	movlw	0
  8271   0057EE  6FB2               	movwf	178,b	;volatile
  8272                           
  8273                           ;mcc_generated_files/uart1.c: 115:     U1ERRIE = 0x00;
  8274   0057F0  0E00               	movlw	0
  8275   0057F2  6FB3               	movwf	179,b	;volatile
  8276   0057F4                     
  8277                           ; BSR set to: 2
  8278                           ;mcc_generated_files/uart1.c: 118:     UART1_SetFramingErrorHandler(UART1_DefaultFraming
      +                          ErrorHandler);
  8279   0057F4  0E00               	movlw	0
  8280   0057F6  6E03               	movwf	UART1_SetFramingErrorHandler@interruptHandler^(0+1280),c
  8281   0057F8  0E00               	movlw	0
  8282   0057FA  6E04               	movwf	(UART1_SetFramingErrorHandler@interruptHandler+1)^(0+1280),c
  8283   0057FC  0E00               	movlw	0
  8284   0057FE  6E05               	movwf	(UART1_SetFramingErrorHandler@interruptHandler+2)^(0+1280),c
  8285   005800  EC38  F02F         	call	_UART1_SetFramingErrorHandler	;wreg free
  8286   005804                     
  8287                           ;mcc_generated_files/uart1.c: 119:     UART1_SetOverrunErrorHandler(UART1_DefaultOverrun
      +                          ErrorHandler);
  8288   005804  0E00               	movlw	0
  8289   005806  6E03               	movwf	UART1_SetOverrunErrorHandler@interruptHandler^(0+1280),c
  8290   005808  0E00               	movlw	0
  8291   00580A  6E04               	movwf	(UART1_SetOverrunErrorHandler@interruptHandler+1)^(0+1280),c
  8292   00580C  0E00               	movlw	0
  8293   00580E  6E05               	movwf	(UART1_SetOverrunErrorHandler@interruptHandler+2)^(0+1280),c
  8294   005810  EC31  F02F         	call	_UART1_SetOverrunErrorHandler	;wreg free
  8295   005814                     
  8296                           ;mcc_generated_files/uart1.c: 120:     UART1_SetErrorHandler(UART1_DefaultErrorHandler);
  8297   005814  0E00               	movlw	0
  8298   005816  6E03               	movwf	UART1_SetErrorHandler@interruptHandler^(0+1280),c
  8299   005818  0E00               	movlw	0
  8300   00581A  6E04               	movwf	(UART1_SetErrorHandler@interruptHandler+1)^(0+1280),c
  8301   00581C  0E00               	movlw	0
  8302   00581E  6E05               	movwf	(UART1_SetErrorHandler@interruptHandler+2)^(0+1280),c
  8303   005820  EC3F  F02F         	call	_UART1_SetErrorHandler	;wreg free
  8304   005824                     
  8305                           ;mcc_generated_files/uart1.c: 122:     uart1RxLastError.status = 0;
  8306   005824  0E00               	movlw	0
  8307   005826  6E5D               	movwf	_uart1RxLastError^(0+1280),c	;volatile
  8308   005828  0012               	return		;funcret
  8309   00582A                     __end_of_UART1_Initialize:
  8310                           	callstack 0
  8311                           
  8312 ;; *************** function _UART1_SetOverrunErrorHandler *****************
  8313 ;; Defined at:
  8314 ;;		line 204 in file "mcc_generated_files/uart1.c"
  8315 ;; Parameters:    Size  Location     Type
  8316 ;;  interruptHan    3    2[COMRAM] PTR FTN()void 
  8317 ;;		 -> UART1_DefaultOverrunErrorHandler(1), 
  8318 ;; Auto vars:     Size  Location     Type
  8319 ;;		None
  8320 ;; Return value:  Size  Location     Type
  8321 ;;                  1    wreg      void 
  8322 ;; Registers used:
  8323 ;;		wreg, status,2, status,0
  8324 ;; Tracked objects:
  8325 ;;		On entry : 0/0
  8326 ;;		On exit  : 0/0
  8327 ;;		Unchanged: 0/0
  8328 ;; Data sizes:     COMRAM   BANK5   BANK6   BANK7   BANK8   BANK9  BANK10  BANK11  BANK12  BANK13  BANK14  BANK15  BANK1
      +6  BANK17  BANK18  BANK19  BANK20  BANK21  BANK22  BANK23  BANK24  BANK25  BANK26  BANK27  BANK28  BANK29  BANK30  BANK3
      +1  BANK32  BANK33  BANK34  BANK35  BANK36
  8329 ;;      Params:         3       0       0       0       0       0       0       0       0       0       0       0       
      +0       0       0       0       0       0       0       0       0       0       0       0       0       0       0       
      +0       0       0       0       0       0
  8330 ;;      Locals:         0       0       0       0       0       0       0       0       0       0       0       0       
      +0       0       0       0       0       0       0       0       0       0       0       0       0       0       0       
      +0       0       0       0       0       0
  8331 ;;      Temps:          0       0       0       0       0       0       0       0       0       0       0       0       
      +0       0       0       0       0       0       0       0       0       0       0       0       0       0       0       
      +0       0       0       0       0       0
  8332 ;;      Totals:         3       0       0       0       0       0       0       0       0       0       0       0       
      +0       0       0       0       0       0       0       0       0       0       0       0       0       0       0       
      +0       0       0       0       0       0
  8333 ;;Total ram usage:        3 bytes
  8334 ;; Hardware stack levels used: 1
  8335 ;; Hardware stack levels required when called: 4
  8336 ;; This function calls:
  8337 ;;		Nothing
  8338 ;; This function is called by:
  8339 ;;		_UART1_Initialize
  8340 ;; This function uses a non-reentrant model
  8341 ;;
  8342                           
  8343                           	psect	text33
  8344   005E62                     __ptext33:
  8345                           	callstack 0
  8346   005E62                     _UART1_SetOverrunErrorHandler:
  8347                           	callstack 120
  8348   005E62                     
  8349                           ;mcc_generated_files/uart1.c: 205:     UART1_OverrunErrorHandler = interruptHandler;
  8350   005E62  C503  F5F3         	movff	UART1_SetOverrunErrorHandler@interruptHandler,_UART1_OverrunErrorHandler
  8351   005E66  C504  F5F4         	movff	UART1_SetOverrunErrorHandler@interruptHandler+1,_UART1_OverrunErrorHandler+1
  8352   005E6A  C505  F5F5         	movff	UART1_SetOverrunErrorHandler@interruptHandler+2,_UART1_OverrunErrorHandler+2
  8353   005E6E  0012               	return		;funcret
  8354   005E70                     __end_of_UART1_SetOverrunErrorHandler:
  8355                           	callstack 0
  8356                           
  8357 ;; *************** function _UART1_SetFramingErrorHandler *****************
  8358 ;; Defined at:
  8359 ;;		line 200 in file "mcc_generated_files/uart1.c"
  8360 ;; Parameters:    Size  Location     Type
  8361 ;;  interruptHan    3    2[COMRAM] PTR FTN()void 
  8362 ;;		 -> UART1_DefaultFramingErrorHandler(1), 
  8363 ;; Auto vars:     Size  Location     Type
  8364 ;;		None
  8365 ;; Return value:  Size  Location     Type
  8366 ;;                  1    wreg      void 
  8367 ;; Registers used:
  8368 ;;		wreg, status,2, status,0
  8369 ;; Tracked objects:
  8370 ;;		On entry : 0/0
  8371 ;;		On exit  : 0/0
  8372 ;;		Unchanged: 0/0
  8373 ;; Data sizes:     COMRAM   BANK5   BANK6   BANK7   BANK8   BANK9  BANK10  BANK11  BANK12  BANK13  BANK14  BANK15  BANK1
      +6  BANK17  BANK18  BANK19  BANK20  BANK21  BANK22  BANK23  BANK24  BANK25  BANK26  BANK27  BANK28  BANK29  BANK30  BANK3
      +1  BANK32  BANK33  BANK34  BANK35  BANK36
  8374 ;;      Params:         3       0       0       0       0       0       0       0       0       0       0       0       
      +0       0       0       0       0       0       0       0       0       0       0       0       0       0       0       
      +0       0       0       0       0       0
  8375 ;;      Locals:         0       0       0       0       0       0       0       0       0       0       0       0       
      +0       0       0       0       0       0       0       0       0       0       0       0       0       0       0       
      +0       0       0       0       0       0
  8376 ;;      Temps:          0       0       0       0       0       0       0       0       0       0       0       0       
      +0       0       0       0       0       0       0       0       0       0       0       0       0       0       0       
      +0       0       0       0       0       0
  8377 ;;      Totals:         3       0       0       0       0       0       0       0       0       0       0       0       
      +0       0       0       0       0       0       0       0       0       0       0       0       0       0       0       
      +0       0       0       0       0       0
  8378 ;;Total ram usage:        3 bytes
  8379 ;; Hardware stack levels used: 1
  8380 ;; Hardware stack levels required when called: 4
  8381 ;; This function calls:
  8382 ;;		Nothing
  8383 ;; This function is called by:
  8384 ;;		_UART1_Initialize
  8385 ;; This function uses a non-reentrant model
  8386 ;;
  8387                           
  8388                           	psect	text34
  8389   005E70                     __ptext34:
  8390                           	callstack 0
  8391   005E70                     _UART1_SetFramingErrorHandler:
  8392                           	callstack 120
  8393   005E70                     
  8394                           ;mcc_generated_files/uart1.c: 201:     UART1_FramingErrorHandler = interruptHandler;
  8395   005E70  C503  F5F6         	movff	UART1_SetFramingErrorHandler@interruptHandler,_UART1_FramingErrorHandler
  8396   005E74  C504  F5F7         	movff	UART1_SetFramingErrorHandler@interruptHandler+1,_UART1_FramingErrorHandler+1
  8397   005E78  C505  F5F8         	movff	UART1_SetFramingErrorHandler@interruptHandler+2,_UART1_FramingErrorHandler+2
  8398   005E7C  0012               	return		;funcret
  8399   005E7E                     __end_of_UART1_SetFramingErrorHandler:
  8400                           	callstack 0
  8401                           
  8402 ;; *************** function _UART1_SetErrorHandler *****************
  8403 ;; Defined at:
  8404 ;;		line 208 in file "mcc_generated_files/uart1.c"
  8405 ;; Parameters:    Size  Location     Type
  8406 ;;  interruptHan    3    2[COMRAM] PTR FTN()void 
  8407 ;;		 -> UART1_DefaultErrorHandler(1), 
  8408 ;; Auto vars:     Size  Location     Type
  8409 ;;		None
  8410 ;; Return value:  Size  Location     Type
  8411 ;;                  1    wreg      void 
  8412 ;; Registers used:
  8413 ;;		wreg, status,2, status,0
  8414 ;; Tracked objects:
  8415 ;;		On entry : 0/0
  8416 ;;		On exit  : 0/0
  8417 ;;		Unchanged: 0/0
  8418 ;; Data sizes:     COMRAM   BANK5   BANK6   BANK7   BANK8   BANK9  BANK10  BANK11  BANK12  BANK13  BANK14  BANK15  BANK1
      +6  BANK17  BANK18  BANK19  BANK20  BANK21  BANK22  BANK23  BANK24  BANK25  BANK26  BANK27  BANK28  BANK29  BANK30  BANK3
      +1  BANK32  BANK33  BANK34  BANK35  BANK36
  8419 ;;      Params:         3       0       0       0       0       0       0       0       0       0       0       0       
      +0       0       0       0       0       0       0       0       0       0       0       0       0       0       0       
      +0       0       0       0       0       0
  8420 ;;      Locals:         0       0       0       0       0       0       0       0       0       0       0       0       
      +0       0       0       0       0       0       0       0       0       0       0       0       0       0       0       
      +0       0       0       0       0       0
  8421 ;;      Temps:          0       0       0       0       0       0       0       0       0       0       0       0       
      +0       0       0       0       0       0       0       0       0       0       0       0       0       0       0       
      +0       0       0       0       0       0
  8422 ;;      Totals:         3       0       0       0       0       0       0       0       0       0       0       0       
      +0       0       0       0       0       0       0       0       0       0       0       0       0       0       0       
      +0       0       0       0       0       0
  8423 ;;Total ram usage:        3 bytes
  8424 ;; Hardware stack levels used: 1
  8425 ;; Hardware stack levels required when called: 4
  8426 ;; This function calls:
  8427 ;;		Nothing
  8428 ;; This function is called by:
  8429 ;;		_UART1_Initialize
  8430 ;; This function uses a non-reentrant model
  8431 ;;
  8432                           
  8433                           	psect	text35
  8434   005E7E                     __ptext35:
  8435                           	callstack 0
  8436   005E7E                     _UART1_SetErrorHandler:
  8437                           	callstack 120
  8438   005E7E                     
  8439                           ;mcc_generated_files/uart1.c: 209:     UART1_ErrorHandler = interruptHandler;
  8440   005E7E  C503  F5F0         	movff	UART1_SetErrorHandler@interruptHandler,_UART1_ErrorHandler
  8441   005E82  C504  F5F1         	movff	UART1_SetErrorHandler@interruptHandler+1,_UART1_ErrorHandler+1
  8442   005E86  C505  F5F2         	movff	UART1_SetErrorHandler@interruptHandler+2,_UART1_ErrorHandler+2
  8443   005E8A  0012               	return		;funcret
  8444   005E8C                     __end_of_UART1_SetErrorHandler:
  8445                           	callstack 0
  8446                           
  8447 ;; *************** function _TMR0_Initialize *****************
  8448 ;; Defined at:
  8449 ;;		line 63 in file "mcc_generated_files/tmr0.c"
  8450 ;; Parameters:    Size  Location     Type
  8451 ;;		None
  8452 ;; Auto vars:     Size  Location     Type
  8453 ;;		None
  8454 ;; Return value:  Size  Location     Type
  8455 ;;                  1    wreg      void 
  8456 ;; Registers used:
  8457 ;;		wreg, status,2, status,0, cstack
  8458 ;; Tracked objects:
  8459 ;;		On entry : 0/0
  8460 ;;		On exit  : 0/0
  8461 ;;		Unchanged: 0/0
  8462 ;; Data sizes:     COMRAM   BANK5   BANK6   BANK7   BANK8   BANK9  BANK10  BANK11  BANK12  BANK13  BANK14  BANK15  BANK1
      +6  BANK17  BANK18  BANK19  BANK20  BANK21  BANK22  BANK23  BANK24  BANK25  BANK26  BANK27  BANK28  BANK29  BANK30  BANK3
      +1  BANK32  BANK33  BANK34  BANK35  BANK36
  8463 ;;      Params:         0       0       0       0       0       0       0       0       0       0       0       0       
      +0       0       0       0       0       0       0       0       0       0       0       0       0       0       0       
      +0       0       0       0       0       0
  8464 ;;      Locals:         0       0       0       0       0       0       0       0       0       0       0       0       
      +0       0       0       0       0       0       0       0       0       0       0       0       0       0       0       
      +0       0       0       0       0       0
  8465 ;;      Temps:          0       0       0       0       0       0       0       0       0       0       0       0       
      +0       0       0       0       0       0       0       0       0       0       0       0       0       0       0       
      +0       0       0       0       0       0
  8466 ;;      Totals:         0       0       0       0       0       0       0       0       0       0       0       0       
      +0       0       0       0       0       0       0       0       0       0       0       0       0       0       0       
      +0       0       0       0       0       0
  8467 ;;Total ram usage:        0 bytes
  8468 ;; Hardware stack levels used: 1
  8469 ;; Hardware stack levels required when called: 5
  8470 ;; This function calls:
  8471 ;;		_TMR0_SetInterruptHandler
  8472 ;; This function is called by:
  8473 ;;		_SYSTEM_Initialize
  8474 ;; This function uses a non-reentrant model
  8475 ;;
  8476                           
  8477                           	psect	text36
  8478   005D4E                     __ptext36:
  8479                           	callstack 0
  8480   005D4E                     _TMR0_Initialize:
  8481                           	callstack 120
  8482   005D4E                     
  8483                           ;mcc_generated_files/tmr0.c: 68:     T0CON1 = 0x68;
  8484   005D4E  0E68               	movlw	104
  8485   005D50  0103               	movlb	3	; () banked
  8486   005D52  6F1B               	movwf	27,b	;volatile
  8487                           
  8488                           ;mcc_generated_files/tmr0.c: 71:     TMR0H = 0xF9;
  8489   005D54  0EF9               	movlw	249
  8490   005D56  6F19               	movwf	25,b	;volatile
  8491                           
  8492                           ;mcc_generated_files/tmr0.c: 74:     TMR0L = 0x00;
  8493   005D58  0E00               	movlw	0
  8494   005D5A  6F18               	movwf	24,b	;volatile
  8495   005D5C                     
  8496                           ; BSR set to: 3
  8497                           ;mcc_generated_files/tmr0.c: 77:     PIR3bits.TMR0IF = 0;
  8498   005D5C  9EB1               	bcf	177,7,c	;volatile
  8499   005D5E                     
  8500                           ; BSR set to: 3
  8501                           ;mcc_generated_files/tmr0.c: 80:     PIE3bits.TMR0IE = 1;
  8502   005D5E  8EA1               	bsf	161,7,c	;volatile
  8503   005D60                     
  8504                           ; BSR set to: 3
  8505                           ;mcc_generated_files/tmr0.c: 83:     TMR0_SetInterruptHandler(TMR0_DefaultInterruptHandl
      +                          er);
  8506   005D60  0EAA               	movlw	low _TMR0_DefaultInterruptHandler
  8507   005D62  6E03               	movwf	TMR0_SetInterruptHandler@InterruptHandler^(0+1280),c
  8508   005D64  0E5E               	movlw	high _TMR0_DefaultInterruptHandler
  8509   005D66  6E04               	movwf	(TMR0_SetInterruptHandler@InterruptHandler+1)^(0+1280),c
  8510   005D68  0E00               	movlw	low (_TMR0_DefaultInterruptHandler shr (0+16))
  8511   005D6A  6E05               	movwf	(TMR0_SetInterruptHandler@InterruptHandler+2)^(0+1280),c
  8512   005D6C  EC46  F02F         	call	_TMR0_SetInterruptHandler	;wreg free
  8513   005D70                     
  8514                           ;mcc_generated_files/tmr0.c: 86:     T0CON0 = 0x80;
  8515   005D70  0E80               	movlw	128
  8516   005D72  0103               	movlb	3	; () banked
  8517   005D74  6F1A               	movwf	26,b	;volatile
  8518   005D76                     
  8519                           ; BSR set to: 3
  8520   005D76  0012               	return		;funcret
  8521   005D78                     __end_of_TMR0_Initialize:
  8522                           	callstack 0
  8523                           
  8524 ;; *************** function _TMR0_SetInterruptHandler *****************
  8525 ;; Defined at:
  8526 ;;		line 150 in file "mcc_generated_files/tmr0.c"
  8527 ;; Parameters:    Size  Location     Type
  8528 ;;  InterruptHan    3    2[COMRAM] PTR FTN()void 
  8529 ;;		 -> TMR0_DefaultInterruptHandler(1), 
  8530 ;; Auto vars:     Size  Location     Type
  8531 ;;		None
  8532 ;; Return value:  Size  Location     Type
  8533 ;;                  1    wreg      void 
  8534 ;; Registers used:
  8535 ;;		wreg, status,2, status,0
  8536 ;; Tracked objects:
  8537 ;;		On entry : 0/0
  8538 ;;		On exit  : 0/0
  8539 ;;		Unchanged: 0/0
  8540 ;; Data sizes:     COMRAM   BANK5   BANK6   BANK7   BANK8   BANK9  BANK10  BANK11  BANK12  BANK13  BANK14  BANK15  BANK1
      +6  BANK17  BANK18  BANK19  BANK20  BANK21  BANK22  BANK23  BANK24  BANK25  BANK26  BANK27  BANK28  BANK29  BANK30  BANK3
      +1  BANK32  BANK33  BANK34  BANK35  BANK36
  8541 ;;      Params:         3       0       0       0       0       0       0       0       0       0       0       0       
      +0       0       0       0       0       0       0       0       0       0       0       0       0       0       0       
      +0       0       0       0       0       0
  8542 ;;      Locals:         0       0       0       0       0       0       0       0       0       0       0       0       
      +0       0       0       0       0       0       0       0       0       0       0       0       0       0       0       
      +0       0       0       0       0       0
  8543 ;;      Temps:          0       0       0       0       0       0       0       0       0       0       0       0       
      +0       0       0       0       0       0       0       0       0       0       0       0       0       0       0       
      +0       0       0       0       0       0
  8544 ;;      Totals:         3       0       0       0       0       0       0       0       0       0       0       0       
      +0       0       0       0       0       0       0       0       0       0       0       0       0       0       0       
      +0       0       0       0       0       0
  8545 ;;Total ram usage:        3 bytes
  8546 ;; Hardware stack levels used: 1
  8547 ;; Hardware stack levels required when called: 4
  8548 ;; This function calls:
  8549 ;;		Nothing
  8550 ;; This function is called by:
  8551 ;;		_TMR0_Initialize
  8552 ;; This function uses a non-reentrant model
  8553 ;;
  8554                           
  8555                           	psect	text37
  8556   005E8C                     __ptext37:
  8557                           	callstack 0
  8558   005E8C                     _TMR0_SetInterruptHandler:
  8559                           	callstack 120
  8560   005E8C                     
  8561                           ;mcc_generated_files/tmr0.c: 151:     TMR0_InterruptHandler = InterruptHandler;
  8562   005E8C  C503  F5ED         	movff	TMR0_SetInterruptHandler@InterruptHandler,_TMR0_InterruptHandler
  8563   005E90  C504  F5EE         	movff	TMR0_SetInterruptHandler@InterruptHandler+1,_TMR0_InterruptHandler+1
  8564   005E94  C505  F5EF         	movff	TMR0_SetInterruptHandler@InterruptHandler+2,_TMR0_InterruptHandler+2
  8565   005E98  0012               	return		;funcret
  8566   005E9A                     __end_of_TMR0_SetInterruptHandler:
  8567                           	callstack 0
  8568                           
  8569 ;; *************** function _PMD_Initialize *****************
  8570 ;; Defined at:
  8571 ;;		line 77 in file "mcc_generated_files/mcc.c"
  8572 ;; Parameters:    Size  Location     Type
  8573 ;;		None
  8574 ;; Auto vars:     Size  Location     Type
  8575 ;;		None
  8576 ;; Return value:  Size  Location     Type
  8577 ;;                  1    wreg      void 
  8578 ;; Registers used:
  8579 ;;		wreg, status,2
  8580 ;; Tracked objects:
  8581 ;;		On entry : 0/0
  8582 ;;		On exit  : 0/0
  8583 ;;		Unchanged: 0/0
  8584 ;; Data sizes:     COMRAM   BANK5   BANK6   BANK7   BANK8   BANK9  BANK10  BANK11  BANK12  BANK13  BANK14  BANK15  BANK1
      +6  BANK17  BANK18  BANK19  BANK20  BANK21  BANK22  BANK23  BANK24  BANK25  BANK26  BANK27  BANK28  BANK29  BANK30  BANK3
      +1  BANK32  BANK33  BANK34  BANK35  BANK36
  8585 ;;      Params:         0       0       0       0       0       0       0       0       0       0       0       0       
      +0       0       0       0       0       0       0       0       0       0       0       0       0       0       0       
      +0       0       0       0       0       0
  8586 ;;      Locals:         0       0       0       0       0       0       0       0       0       0       0       0       
      +0       0       0       0       0       0       0       0       0       0       0       0       0       0       0       
      +0       0       0       0       0       0
  8587 ;;      Temps:          0       0       0       0       0       0       0       0       0       0       0       0       
      +0       0       0       0       0       0       0       0       0       0       0       0       0       0       0       
      +0       0       0       0       0       0
  8588 ;;      Totals:         0       0       0       0       0       0       0       0       0       0       0       0       
      +0       0       0       0       0       0       0       0       0       0       0       0       0       0       0       
      +0       0       0       0       0       0
  8589 ;;Total ram usage:        0 bytes
  8590 ;; Hardware stack levels used: 1
  8591 ;; Hardware stack levels required when called: 4
  8592 ;; This function calls:
  8593 ;;		Nothing
  8594 ;; This function is called by:
  8595 ;;		_SYSTEM_Initialize
  8596 ;; This function uses a non-reentrant model
  8597 ;;
  8598                           
  8599                           	psect	text38
  8600   005DEE                     __ptext38:
  8601                           	callstack 0
  8602   005DEE                     _PMD_Initialize:
  8603                           	callstack 121
  8604   005DEE                     
  8605                           ;mcc_generated_files/mcc.c: 80:     PMD0 = 0x00;
  8606   005DEE  0E00               	movlw	0
  8607   005DF0  0100               	movlb	0	; () banked
  8608   005DF2  6F60               	movwf	96,b	;volatile
  8609                           
  8610                           ;mcc_generated_files/mcc.c: 82:     PMD1 = 0x00;
  8611   005DF4  0E00               	movlw	0
  8612   005DF6  6F61               	movwf	97,b	;volatile
  8613                           
  8614                           ;mcc_generated_files/mcc.c: 84:     PMD3 = 0x00;
  8615   005DF8  0E00               	movlw	0
  8616   005DFA  6F63               	movwf	99,b	;volatile
  8617                           
  8618                           ;mcc_generated_files/mcc.c: 86:     PMD4 = 0x00;
  8619   005DFC  0E00               	movlw	0
  8620   005DFE  6F64               	movwf	100,b	;volatile
  8621                           
  8622                           ;mcc_generated_files/mcc.c: 88:     PMD5 = 0x00;
  8623   005E00  0E00               	movlw	0
  8624   005E02  6F65               	movwf	101,b	;volatile
  8625                           
  8626                           ;mcc_generated_files/mcc.c: 90:     PMD6 = 0x00;
  8627   005E04  0E00               	movlw	0
  8628   005E06  6F66               	movwf	102,b	;volatile
  8629                           
  8630                           ;mcc_generated_files/mcc.c: 92:     PMD7 = 0x00;
  8631   005E08  0E00               	movlw	0
  8632   005E0A  6F67               	movwf	103,b	;volatile
  8633                           
  8634                           ;mcc_generated_files/mcc.c: 94:     PMD8 = 0x00;
  8635   005E0C  0E00               	movlw	0
  8636   005E0E  6F68               	movwf	104,b	;volatile
  8637   005E10                     
  8638                           ; BSR set to: 0
  8639   005E10  0012               	return		;funcret
  8640   005E12                     __end_of_PMD_Initialize:
  8641                           	callstack 0
  8642                           
  8643 ;; *************** function _PIN_MANAGER_Initialize *****************
  8644 ;; Defined at:
  8645 ;;		line 55 in file "mcc_generated_files/pin_manager.c"
  8646 ;; Parameters:    Size  Location     Type
  8647 ;;		None
  8648 ;; Auto vars:     Size  Location     Type
  8649 ;;		None
  8650 ;; Return value:  Size  Location     Type
  8651 ;;                  1    wreg      void 
  8652 ;; Registers used:
  8653 ;;		wreg, status,2
  8654 ;; Tracked objects:
  8655 ;;		On entry : 0/0
  8656 ;;		On exit  : 0/0
  8657 ;;		Unchanged: 0/0
  8658 ;; Data sizes:     COMRAM   BANK5   BANK6   BANK7   BANK8   BANK9  BANK10  BANK11  BANK12  BANK13  BANK14  BANK15  BANK1
      +6  BANK17  BANK18  BANK19  BANK20  BANK21  BANK22  BANK23  BANK24  BANK25  BANK26  BANK27  BANK28  BANK29  BANK30  BANK3
      +1  BANK32  BANK33  BANK34  BANK35  BANK36
  8659 ;;      Params:         0       0       0       0       0       0       0       0       0       0       0       0       
      +0       0       0       0       0       0       0       0       0       0       0       0       0       0       0       
      +0       0       0       0       0       0
  8660 ;;      Locals:         0       0       0       0       0       0       0       0       0       0       0       0       
      +0       0       0       0       0       0       0       0       0       0       0       0       0       0       0       
      +0       0       0       0       0       0
  8661 ;;      Temps:          0       0       0       0       0       0       0       0       0       0       0       0       
      +0       0       0       0       0       0       0       0       0       0       0       0       0       0       0       
      +0       0       0       0       0       0
  8662 ;;      Totals:         0       0       0       0       0       0       0       0       0       0       0       0       
      +0       0       0       0       0       0       0       0       0       0       0       0       0       0       0       
      +0       0       0       0       0       0
  8663 ;;Total ram usage:        0 bytes
  8664 ;; Hardware stack levels used: 1
  8665 ;; Hardware stack levels required when called: 4
  8666 ;; This function calls:
  8667 ;;		Nothing
  8668 ;; This function is called by:
  8669 ;;		_SYSTEM_Initialize
  8670 ;; This function uses a non-reentrant model
  8671 ;;
  8672                           
  8673                           	psect	text39
  8674   005488                     __ptext39:
  8675                           	callstack 0
  8676   005488                     _PIN_MANAGER_Initialize:
  8677                           	callstack 121
  8678   005488                     
  8679                           ;mcc_generated_files/pin_manager.c: 60:     LATE = 0x00;
  8680   005488  0E00               	movlw	0
  8681   00548A  6EC2               	movwf	194,c	;volatile
  8682                           
  8683                           ;mcc_generated_files/pin_manager.c: 61:     LATD = 0x00;
  8684   00548C  0E00               	movlw	0
  8685   00548E  6EC1               	movwf	193,c	;volatile
  8686                           
  8687                           ;mcc_generated_files/pin_manager.c: 62:     LATA = 0x00;
  8688   005490  0E00               	movlw	0
  8689   005492  6EBE               	movwf	190,c	;volatile
  8690                           
  8691                           ;mcc_generated_files/pin_manager.c: 63:     LATF = 0x00;
  8692   005494  0E00               	movlw	0
  8693   005496  6EC3               	movwf	195,c	;volatile
  8694                           
  8695                           ;mcc_generated_files/pin_manager.c: 64:     LATB = 0x00;
  8696   005498  0E00               	movlw	0
  8697   00549A  6EBF               	movwf	191,c	;volatile
  8698                           
  8699                           ;mcc_generated_files/pin_manager.c: 65:     LATC = 0x00;
  8700   00549C  0E00               	movlw	0
  8701   00549E  6EC0               	movwf	192,c	;volatile
  8702   0054A0                     
  8703                           ;mcc_generated_files/pin_manager.c: 66:     PORTDbits.RD1 = 0;
  8704   0054A0  92D1               	bcf	209,1,c	;volatile
  8705   0054A2                     
  8706                           ;mcc_generated_files/pin_manager.c: 67:     PORTDbits.RD2 = 0;
  8707   0054A2  94D1               	bcf	209,2,c	;volatile
  8708                           
  8709                           ;mcc_generated_files/pin_manager.c: 72:     TRISE = 0x07;
  8710   0054A4  0E07               	movlw	7
  8711   0054A6  6ECA               	movwf	202,c	;volatile
  8712                           
  8713                           ;mcc_generated_files/pin_manager.c: 73:     TRISF = 0xBE;
  8714   0054A8  0EBE               	movlw	190
  8715   0054AA  6ECB               	movwf	203,c	;volatile
  8716   0054AC                     
  8717                           ;mcc_generated_files/pin_manager.c: 74:     TRISA = 0xFF;
  8718   0054AC  68C6               	setf	198,c	;volatile
  8719   0054AE                     
  8720                           ;mcc_generated_files/pin_manager.c: 75:     TRISB = 0xFF;
  8721   0054AE  68C7               	setf	199,c	;volatile
  8722   0054B0                     
  8723                           ;mcc_generated_files/pin_manager.c: 76:     TRISC = 0xFF;
  8724   0054B0  68C8               	setf	200,c	;volatile
  8725                           
  8726                           ;mcc_generated_files/pin_manager.c: 77:     TRISD = 0x19;
  8727   0054B2  0E19               	movlw	25
  8728   0054B4  6EC9               	movwf	201,c	;volatile
  8729                           
  8730                           ;mcc_generated_files/pin_manager.c: 82:     ANSELD = 0x1C;
  8731   0054B6  0E1C               	movlw	28
  8732   0054B8  0104               	movlb	4	; () banked
  8733   0054BA  6F18               	movwf	24,b	;volatile
  8734                           
  8735                           ;mcc_generated_files/pin_manager.c: 83:     ANSELC = 0xF3;
  8736   0054BC  0EF3               	movlw	243
  8737   0054BE  6F10               	movwf	16,b	;volatile
  8738                           
  8739                           ;mcc_generated_files/pin_manager.c: 84:     ANSELB = 0xFB;
  8740   0054C0  0EFB               	movlw	251
  8741   0054C2  6F08               	movwf	8,b	;volatile
  8742                           
  8743                           ;mcc_generated_files/pin_manager.c: 85:     ANSELE = 0x02;
  8744   0054C4  0E02               	movlw	2
  8745   0054C6  6F20               	movwf	32,b	;volatile
  8746                           
  8747                           ;mcc_generated_files/pin_manager.c: 86:     ANSELF = 0x3C;
  8748   0054C8  0E3C               	movlw	60
  8749   0054CA  6F28               	movwf	40,b	;volatile
  8750                           
  8751                           ;mcc_generated_files/pin_manager.c: 87:     ANSELA = 0xE7;
  8752   0054CC  0EE7               	movlw	231
  8753   0054CE  6F00               	movwf	0,b	;volatile
  8754                           
  8755                           ;mcc_generated_files/pin_manager.c: 92:     WPUD = 0x00;
  8756   0054D0  0E00               	movlw	0
  8757   0054D2  6F19               	movwf	25,b	;volatile
  8758                           
  8759                           ;mcc_generated_files/pin_manager.c: 93:     WPUF = 0x00;
  8760   0054D4  0E00               	movlw	0
  8761   0054D6  6F29               	movwf	41,b	;volatile
  8762                           
  8763                           ;mcc_generated_files/pin_manager.c: 94:     WPUE = 0x04;
  8764   0054D8  0E04               	movlw	4
  8765   0054DA  6F21               	movwf	33,b	;volatile
  8766                           
  8767                           ;mcc_generated_files/pin_manager.c: 95:     WPUB = 0x04;
  8768   0054DC  0E04               	movlw	4
  8769   0054DE  6F09               	movwf	9,b	;volatile
  8770                           
  8771                           ;mcc_generated_files/pin_manager.c: 96:     WPUA = 0x18;
  8772   0054E0  0E18               	movlw	24
  8773   0054E2  6F01               	movwf	1,b	;volatile
  8774                           
  8775                           ;mcc_generated_files/pin_manager.c: 97:     WPUC = 0x0C;
  8776   0054E4  0E0C               	movlw	12
  8777   0054E6  6F11               	movwf	17,b	;volatile
  8778                           
  8779                           ;mcc_generated_files/pin_manager.c: 102:     RB1I2C = 0x00;
  8780   0054E8  0E00               	movlw	0
  8781   0054EA  0102               	movlb	2	; () banked
  8782   0054EC  6F89               	movwf	137,b	;volatile
  8783                           
  8784                           ;mcc_generated_files/pin_manager.c: 103:     RB2I2C = 0x00;
  8785   0054EE  0E00               	movlw	0
  8786   0054F0  6F88               	movwf	136,b	;volatile
  8787                           
  8788                           ;mcc_generated_files/pin_manager.c: 104:     RC3I2C = 0x00;
  8789   0054F2  0E00               	movlw	0
  8790   0054F4  6F87               	movwf	135,b	;volatile
  8791                           
  8792                           ;mcc_generated_files/pin_manager.c: 105:     RC4I2C = 0x00;
  8793   0054F6  0E00               	movlw	0
  8794   0054F8  6F86               	movwf	134,b	;volatile
  8795                           
  8796                           ;mcc_generated_files/pin_manager.c: 110:     ODCONE = 0x00;
  8797   0054FA  0E00               	movlw	0
  8798   0054FC  0104               	movlb	4	; () banked
  8799   0054FE  6F22               	movwf	34,b	;volatile
  8800                           
  8801                           ;mcc_generated_files/pin_manager.c: 111:     ODCONF = 0x00;
  8802   005500  0E00               	movlw	0
  8803   005502  6F2A               	movwf	42,b	;volatile
  8804                           
  8805                           ;mcc_generated_files/pin_manager.c: 112:     ODCONA = 0x00;
  8806   005504  0E00               	movlw	0
  8807   005506  6F02               	movwf	2,b	;volatile
  8808                           
  8809                           ;mcc_generated_files/pin_manager.c: 113:     ODCONB = 0x00;
  8810   005508  0E00               	movlw	0
  8811   00550A  6F0A               	movwf	10,b	;volatile
  8812                           
  8813                           ;mcc_generated_files/pin_manager.c: 114:     ODCONC = 0x00;
  8814   00550C  0E00               	movlw	0
  8815   00550E  6F12               	movwf	18,b	;volatile
  8816                           
  8817                           ;mcc_generated_files/pin_manager.c: 115:     ODCOND = 0x00;
  8818   005510  0E00               	movlw	0
  8819   005512  6F1A               	movwf	26,b	;volatile
  8820   005514                     
  8821                           ; BSR set to: 4
  8822                           ;mcc_generated_files/pin_manager.c: 120:     SLRCONA = 0xFF;
  8823   005514  6903               	setf	3,b	;volatile
  8824   005516                     
  8825                           ; BSR set to: 4
  8826                           ;mcc_generated_files/pin_manager.c: 121:     SLRCONB = 0xFF;
  8827   005516  690B               	setf	11,b	;volatile
  8828   005518                     
  8829                           ; BSR set to: 4
  8830                           ;mcc_generated_files/pin_manager.c: 122:     SLRCONC = 0xFF;
  8831   005518  6913               	setf	19,b	;volatile
  8832   00551A                     
  8833                           ; BSR set to: 4
  8834                           ;mcc_generated_files/pin_manager.c: 123:     SLRCOND = 0xFF;
  8835   00551A  691B               	setf	27,b	;volatile
  8836                           
  8837                           ;mcc_generated_files/pin_manager.c: 124:     SLRCONE = 0x07;
  8838   00551C  0E07               	movlw	7
  8839   00551E  6F23               	movwf	35,b	;volatile
  8840   005520                     
  8841                           ; BSR set to: 4
  8842                           ;mcc_generated_files/pin_manager.c: 125:     SLRCONF = 0xFF;
  8843   005520  692B               	setf	43,b	;volatile
  8844   005522                     
  8845                           ; BSR set to: 4
  8846                           ;mcc_generated_files/pin_manager.c: 130:     INLVLA = 0xFF;
  8847   005522  6904               	setf	4,b	;volatile
  8848   005524                     
  8849                           ; BSR set to: 4
  8850                           ;mcc_generated_files/pin_manager.c: 131:     INLVLB = 0xFF;
  8851   005524  690C               	setf	12,b	;volatile
  8852   005526                     
  8853                           ; BSR set to: 4
  8854                           ;mcc_generated_files/pin_manager.c: 132:     INLVLC = 0xFF;
  8855   005526  6914               	setf	20,b	;volatile
  8856   005528                     
  8857                           ; BSR set to: 4
  8858                           ;mcc_generated_files/pin_manager.c: 133:     INLVLD = 0xFF;
  8859   005528  691C               	setf	28,b	;volatile
  8860                           
  8861                           ;mcc_generated_files/pin_manager.c: 134:     INLVLE = 0x0F;
  8862   00552A  0E0F               	movlw	15
  8863   00552C  6F24               	movwf	36,b	;volatile
  8864   00552E                     
  8865                           ; BSR set to: 4
  8866                           ;mcc_generated_files/pin_manager.c: 135:     INLVLF = 0xFF;
  8867   00552E  692C               	setf	44,b	;volatile
  8868                           
  8869                           ;mcc_generated_files/pin_manager.c: 144:     RF0PPS = 0x20;
  8870   005530  0E20               	movlw	32
  8871   005532  0102               	movlb	2	; () banked
  8872   005534  6F29               	movwf	41,b	;volatile
  8873                           
  8874                           ;mcc_generated_files/pin_manager.c: 145:     U1RXPPS = 0x29;
  8875   005536  0E29               	movlw	41
  8876   005538  6F72               	movwf	114,b	;volatile
  8877   00553A                     
  8878                           ; BSR set to: 2
  8879   00553A  0012               	return		;funcret
  8880   00553C                     __end_of_PIN_MANAGER_Initialize:
  8881                           	callstack 0
  8882                           
  8883 ;; *************** function _OSCILLATOR_Initialize *****************
  8884 ;; Defined at:
  8885 ;;		line 61 in file "mcc_generated_files/mcc.c"
  8886 ;; Parameters:    Size  Location     Type
  8887 ;;		None
  8888 ;; Auto vars:     Size  Location     Type
  8889 ;;		None
  8890 ;; Return value:  Size  Location     Type
  8891 ;;                  1    wreg      void 
  8892 ;; Registers used:
  8893 ;;		wreg, status,2
  8894 ;; Tracked objects:
  8895 ;;		On entry : 0/0
  8896 ;;		On exit  : 0/0
  8897 ;;		Unchanged: 0/0
  8898 ;; Data sizes:     COMRAM   BANK5   BANK6   BANK7   BANK8   BANK9  BANK10  BANK11  BANK12  BANK13  BANK14  BANK15  BANK1
      +6  BANK17  BANK18  BANK19  BANK20  BANK21  BANK22  BANK23  BANK24  BANK25  BANK26  BANK27  BANK28  BANK29  BANK30  BANK3
      +1  BANK32  BANK33  BANK34  BANK35  BANK36
  8899 ;;      Params:         0       0       0       0       0       0       0       0       0       0       0       0       
      +0       0       0       0       0       0       0       0       0       0       0       0       0       0       0       
      +0       0       0       0       0       0
  8900 ;;      Locals:         0       0       0       0       0       0       0       0       0       0       0       0       
      +0       0       0       0       0       0       0       0       0       0       0       0       0       0       0       
      +0       0       0       0       0       0
  8901 ;;      Temps:          0       0       0       0       0       0       0       0       0       0       0       0       
      +0       0       0       0       0       0       0       0       0       0       0       0       0       0       0       
      +0       0       0       0       0       0
  8902 ;;      Totals:         0       0       0       0       0       0       0       0       0       0       0       0       
      +0       0       0       0       0       0       0       0       0       0       0       0       0       0       0       
      +0       0       0       0       0       0
  8903 ;;Total ram usage:        0 bytes
  8904 ;; Hardware stack levels used: 1
  8905 ;; Hardware stack levels required when called: 4
  8906 ;; This function calls:
  8907 ;;		Nothing
  8908 ;; This function is called by:
  8909 ;;		_SYSTEM_Initialize
  8910 ;; This function uses a non-reentrant model
  8911 ;;
  8912                           
  8913                           	psect	text40
  8914   005E30                     __ptext40:
  8915                           	callstack 0
  8916   005E30                     _OSCILLATOR_Initialize:
  8917                           	callstack 121
  8918   005E30                     
  8919                           ;mcc_generated_files/mcc.c: 64:     OSCCON1 = 0x60;
  8920   005E30  0E60               	movlw	96
  8921   005E32  0100               	movlb	0	; () banked
  8922   005E34  6FAD               	movwf	173,b	;volatile
  8923                           
  8924                           ;mcc_generated_files/mcc.c: 66:     OSCCON3 = 0x00;
  8925   005E36  0E00               	movlw	0
  8926   005E38  6FAF               	movwf	175,b	;volatile
  8927                           
  8928                           ;mcc_generated_files/mcc.c: 68:     OSCEN = 0x00;
  8929   005E3A  0E00               	movlw	0
  8930   005E3C  6FB3               	movwf	179,b	;volatile
  8931                           
  8932                           ;mcc_generated_files/mcc.c: 70:     OSCFRQ = 0x08;
  8933   005E3E  0E08               	movlw	8
  8934   005E40  6FB1               	movwf	177,b	;volatile
  8935                           
  8936                           ;mcc_generated_files/mcc.c: 72:     OSCTUNE = 0x00;
  8937   005E42  0E00               	movlw	0
  8938   005E44  6FB0               	movwf	176,b	;volatile
  8939                           
  8940                           ;mcc_generated_files/mcc.c: 74:     ACTCON = 0x00;
  8941   005E46  0E00               	movlw	0
  8942   005E48  6FAC               	movwf	172,b	;volatile
  8943   005E4A                     
  8944                           ; BSR set to: 0
  8945   005E4A  0012               	return		;funcret
  8946   005E4C                     __end_of_OSCILLATOR_Initialize:
  8947                           	callstack 0
  8948                           
  8949 ;; *************** function _INTERRUPT_Initialize *****************
  8950 ;; Defined at:
  8951 ;;		line 52 in file "mcc_generated_files/interrupt_manager.c"
  8952 ;; Parameters:    Size  Location     Type
  8953 ;;		None
  8954 ;; Auto vars:     Size  Location     Type
  8955 ;;		None
  8956 ;; Return value:  Size  Location     Type
  8957 ;;                  1    wreg      void 
  8958 ;; Registers used:
  8959 ;;		None
  8960 ;; Tracked objects:
  8961 ;;		On entry : 0/0
  8962 ;;		On exit  : 0/0
  8963 ;;		Unchanged: 0/0
  8964 ;; Data sizes:     COMRAM   BANK5   BANK6   BANK7   BANK8   BANK9  BANK10  BANK11  BANK12  BANK13  BANK14  BANK15  BANK1
      +6  BANK17  BANK18  BANK19  BANK20  BANK21  BANK22  BANK23  BANK24  BANK25  BANK26  BANK27  BANK28  BANK29  BANK30  BANK3
      +1  BANK32  BANK33  BANK34  BANK35  BANK36
  8965 ;;      Params:         0       0       0       0       0       0       0       0       0       0       0       0       
      +0       0       0       0       0       0       0       0       0       0       0       0       0       0       0       
      +0       0       0       0       0       0
  8966 ;;      Locals:         0       0       0       0       0       0       0       0       0       0       0       0       
      +0       0       0       0       0       0       0       0       0       0       0       0       0       0       0       
      +0       0       0       0       0       0
  8967 ;;      Temps:          0       0       0       0       0       0       0       0       0       0       0       0       
      +0       0       0       0       0       0       0       0       0       0       0       0       0       0       0       
      +0       0       0       0       0       0
  8968 ;;      Totals:         0       0       0       0       0       0       0       0       0       0       0       0       
      +0       0       0       0       0       0       0       0       0       0       0       0       0       0       0       
      +0       0       0       0       0       0
  8969 ;;Total ram usage:        0 bytes
  8970 ;; Hardware stack levels used: 1
  8971 ;; Hardware stack levels required when called: 4
  8972 ;; This function calls:
  8973 ;;		Nothing
  8974 ;; This function is called by:
  8975 ;;		_SYSTEM_Initialize
  8976 ;; This function uses a non-reentrant model
  8977 ;;
  8978                           
  8979                           	psect	text41
  8980   005EA4                     __ptext41:
  8981                           	callstack 0
  8982   005EA4                     _INTERRUPT_Initialize:
  8983                           	callstack 121
  8984   005EA4                     
  8985                           ;mcc_generated_files/interrupt_manager.c: 55:     (INTCON0bits.GIE = 1);
  8986   005EA4  8ED6               	bsf	214,7,c	;volatile
  8987                           
  8988                           ;mcc_generated_files/interrupt_manager.c: 56:     INTCON0bits.IPEN = 0;
  8989   005EA6  9AD6               	bcf	214,5,c	;volatile
  8990   005EA8  0012               	return		;funcret
  8991   005EAA                     __end_of_INTERRUPT_Initialize:
  8992                           	callstack 0
  8993                           
  8994 ;; *************** function _ADCC_Initialize *****************
  8995 ;; Defined at:
  8996 ;;		line 62 in file "mcc_generated_files/adcc.c"
  8997 ;; Parameters:    Size  Location     Type
  8998 ;;		None
  8999 ;; Auto vars:     Size  Location     Type
  9000 ;;		None
  9001 ;; Return value:  Size  Location     Type
  9002 ;;                  1    wreg      void 
  9003 ;; Registers used:
  9004 ;;		wreg, status,2
  9005 ;; Tracked objects:
  9006 ;;		On entry : 0/0
  9007 ;;		On exit  : 0/0
  9008 ;;		Unchanged: 0/0
  9009 ;; Data sizes:     COMRAM   BANK5   BANK6   BANK7   BANK8   BANK9  BANK10  BANK11  BANK12  BANK13  BANK14  BANK15  BANK1
      +6  BANK17  BANK18  BANK19  BANK20  BANK21  BANK22  BANK23  BANK24  BANK25  BANK26  BANK27  BANK28  BANK29  BANK30  BANK3
      +1  BANK32  BANK33  BANK34  BANK35  BANK36
  9010 ;;      Params:         0       0       0       0       0       0       0       0       0       0       0       0       
      +0       0       0       0       0       0       0       0       0       0       0       0       0       0       0       
      +0       0       0       0       0       0
  9011 ;;      Locals:         0       0       0       0       0       0       0       0       0       0       0       0       
      +0       0       0       0       0       0       0       0       0       0       0       0       0       0       0       
      +0       0       0       0       0       0
  9012 ;;      Temps:          0       0       0       0       0       0       0       0       0       0       0       0       
      +0       0       0       0       0       0       0       0       0       0       0       0       0       0       0       
      +0       0       0       0       0       0
  9013 ;;      Totals:         0       0       0       0       0       0       0       0       0       0       0       0       
      +0       0       0       0       0       0       0       0       0       0       0       0       0       0       0       
      +0       0       0       0       0       0
  9014 ;;Total ram usage:        0 bytes
  9015 ;; Hardware stack levels used: 1
  9016 ;; Hardware stack levels required when called: 4
  9017 ;; This function calls:
  9018 ;;		Nothing
  9019 ;; This function is called by:
  9020 ;;		_SYSTEM_Initialize
  9021 ;; This function uses a non-reentrant model
  9022 ;;
  9023                           
  9024                           	psect	text42
  9025   0058F0                     __ptext42:
  9026                           	callstack 0
  9027   0058F0                     _ADCC_Initialize:
  9028                           	callstack 121
  9029   0058F0                     
  9030                           ;mcc_generated_files/adcc.c: 66:     ADLTHL = 0x00;
  9031   0058F0  0E00               	movlw	0
  9032   0058F2  0103               	movlb	3	; () banked
  9033   0058F4  6FD9               	movwf	217,b	;volatile
  9034                           
  9035                           ;mcc_generated_files/adcc.c: 68:     ADLTHH = 0x00;
  9036   0058F6  0E00               	movlw	0
  9037   0058F8  6FDA               	movwf	218,b	;volatile
  9038                           
  9039                           ;mcc_generated_files/adcc.c: 70:     ADUTHL = 0x00;
  9040   0058FA  0E00               	movlw	0
  9041   0058FC  6FDB               	movwf	219,b	;volatile
  9042                           
  9043                           ;mcc_generated_files/adcc.c: 72:     ADUTHH = 0x00;
  9044   0058FE  0E00               	movlw	0
  9045   005900  6FDC               	movwf	220,b	;volatile
  9046                           
  9047                           ;mcc_generated_files/adcc.c: 74:     ADSTPTL = 0x00;
  9048   005902  0E00               	movlw	0
  9049   005904  6FDF               	movwf	223,b	;volatile
  9050                           
  9051                           ;mcc_generated_files/adcc.c: 76:     ADSTPTH = 0x00;
  9052   005906  0E00               	movlw	0
  9053   005908  6FE0               	movwf	224,b	;volatile
  9054                           
  9055                           ;mcc_generated_files/adcc.c: 78:     ADACCU = 0x00;
  9056   00590A  0E00               	movlw	0
  9057   00590C  6FE5               	movwf	229,b	;volatile
  9058                           
  9059                           ;mcc_generated_files/adcc.c: 80:     ADRPT = 0x00;
  9060   00590E  0E00               	movlw	0
  9061   005910  6FE7               	movwf	231,b	;volatile
  9062                           
  9063                           ;mcc_generated_files/adcc.c: 82:     ADPCH = 0x00;
  9064   005912  0E00               	movlw	0
  9065   005914  6FEC               	movwf	236,b	;volatile
  9066                           
  9067                           ;mcc_generated_files/adcc.c: 84:     ADACQL = 0x00;
  9068   005916  0E00               	movlw	0
  9069   005918  6FEE               	movwf	238,b	;volatile
  9070                           
  9071                           ;mcc_generated_files/adcc.c: 86:     ADACQH = 0x00;
  9072   00591A  0E00               	movlw	0
  9073   00591C  6FEF               	movwf	239,b	;volatile
  9074                           
  9075                           ;mcc_generated_files/adcc.c: 88:     ADCAP = 0x00;
  9076   00591E  0E00               	movlw	0
  9077   005920  6FF0               	movwf	240,b	;volatile
  9078                           
  9079                           ;mcc_generated_files/adcc.c: 90:     ADPREL = 0x00;
  9080   005922  0E00               	movlw	0
  9081   005924  6FF1               	movwf	241,b	;volatile
  9082                           
  9083                           ;mcc_generated_files/adcc.c: 92:     ADPREH = 0x00;
  9084   005926  0E00               	movlw	0
  9085   005928  6FF2               	movwf	242,b	;volatile
  9086                           
  9087                           ;mcc_generated_files/adcc.c: 94:     ADCON1 = 0x00;
  9088   00592A  0E00               	movlw	0
  9089   00592C  6FF4               	movwf	244,b	;volatile
  9090                           
  9091                           ;mcc_generated_files/adcc.c: 96:     ADCON2 = 0x10;
  9092   00592E  0E10               	movlw	16
  9093   005930  6FF5               	movwf	245,b	;volatile
  9094                           
  9095                           ;mcc_generated_files/adcc.c: 98:     ADCON3 = 0x00;
  9096   005932  0E00               	movlw	0
  9097   005934  6FF6               	movwf	246,b	;volatile
  9098                           
  9099                           ;mcc_generated_files/adcc.c: 100:     ADSTAT = 0x00;
  9100   005936  0E00               	movlw	0
  9101   005938  6FF7               	movwf	247,b	;volatile
  9102                           
  9103                           ;mcc_generated_files/adcc.c: 102:     ADREF = 0x00;
  9104   00593A  0E00               	movlw	0
  9105   00593C  6FF8               	movwf	248,b	;volatile
  9106                           
  9107                           ;mcc_generated_files/adcc.c: 104:     ADACT = 0x00;
  9108   00593E  0E00               	movlw	0
  9109   005940  6FF9               	movwf	249,b	;volatile
  9110                           
  9111                           ;mcc_generated_files/adcc.c: 106:     ADCLK = 0x1F;
  9112   005942  0E1F               	movlw	31
  9113   005944  6FFA               	movwf	250,b	;volatile
  9114                           
  9115                           ;mcc_generated_files/adcc.c: 108:     ADCON0 = 0x84;
  9116   005946  0E84               	movlw	132
  9117   005948  6FF3               	movwf	243,b	;volatile
  9118   00594A                     
  9119                           ; BSR set to: 3
  9120   00594A  0012               	return		;funcret
  9121   00594C                     __end_of_ADCC_Initialize:
  9122                           	callstack 0
  9123                           
  9124 ;; *************** function _DHT11_Read_Data *****************
  9125 ;; Defined at:
  9126 ;;		line 44 in file "dht11.c"
  9127 ;; Parameters:    Size  Location     Type
  9128 ;;  tem             2   53[COMRAM] PTR float 
  9129 ;;		 -> temp(4), 
  9130 ;;  hum             2   55[COMRAM] PTR float 
  9131 ;;		 -> hume(4), 
  9132 ;; Auto vars:     Size  Location     Type
  9133 ;;  info           10   57[COMRAM] int [5]
  9134 ;;  temp            2    0        int 
  9135 ;; Return value:  Size  Location     Type
  9136 ;;                  2   53[COMRAM] short 
  9137 ;; Registers used:
  9138 ;;		wreg, fsr2l, fsr2h, status,2, status,0, prodl, prodh, cstack
  9139 ;; Tracked objects:
  9140 ;;		On entry : 0/0
  9141 ;;		On exit  : 0/0
  9142 ;;		Unchanged: 0/0
  9143 ;; Data sizes:     COMRAM   BANK5   BANK6   BANK7   BANK8   BANK9  BANK10  BANK11  BANK12  BANK13  BANK14  BANK15  BANK1
      +6  BANK17  BANK18  BANK19  BANK20  BANK21  BANK22  BANK23  BANK24  BANK25  BANK26  BANK27  BANK28  BANK29  BANK30  BANK3
      +1  BANK32  BANK33  BANK34  BANK35  BANK36
  9144 ;;      Params:         4       0       0       0       0       0       0       0       0       0       0       0       
      +0       0       0       0       0       0       0       0       0       0       0       0       0       0       0       
      +0       0       0       0       0       0
  9145 ;;      Locals:        10       0       0       0       0       0       0       0       0       0       0       0       
      +0       0       0       0       0       0       0       0       0       0       0       0       0       0       0       
      +0       0       0       0       0       0
  9146 ;;      Temps:          0       0       0       0       0       0       0       0       0       0       0       0       
      +0       0       0       0       0       0       0       0       0       0       0       0       0       0       0       
      +0       0       0       0       0       0
  9147 ;;      Totals:        14       0       0       0       0       0       0       0       0       0       0       0       
      +0       0       0       0       0       0       0       0       0       0       0       0       0       0       0       
      +0       0       0       0       0       0
  9148 ;;Total ram usage:       14 bytes
  9149 ;; Hardware stack levels used: 1
  9150 ;; Hardware stack levels required when called: 6
  9151 ;; This function calls:
  9152 ;;		_DHT11_Join_Data
  9153 ;;		_DHT11_Read_Byte
  9154 ;;		_DHT11_Response
  9155 ;;		_DHT11_Start
  9156 ;;		___fldiv
  9157 ;;		___xxtofl
  9158 ;; This function is called by:
  9159 ;;		_main
  9160 ;; This function uses a non-reentrant model
  9161 ;;
  9162                           
  9163                           	psect	text43
  9164   005076                     __ptext43:
  9165                           	callstack 0
  9166   005076                     _DHT11_Read_Data:
  9167                           	callstack 120
  9168   005076                     
  9169                           ;dht11.c: 47:     int info[5];;dht11.c: 48:     DHT11_Start();
  9170   005076  ECD0  F02E         	call	_DHT11_Start	;wreg free
  9171   00507A                     
  9172                           ;dht11.c: 49:     DHT11_Response();
  9173   00507A  EC91  F02E         	call	_DHT11_Response	;wreg free
  9174   00507E                     
  9175                           ;dht11.c: 50:     info[0] = DHT11_Read_Byte();
  9176   00507E  EC93  F02B         	call	_DHT11_Read_Byte	;wreg free
  9177   005082  C503  F53A         	movff	?_DHT11_Read_Byte,DHT11_Read_Data@info
  9178   005086  C504  F53B         	movff	?_DHT11_Read_Byte+1,DHT11_Read_Data@info+1
  9179   00508A                     
  9180                           ;dht11.c: 51:     info[1] = DHT11_Read_Byte();
  9181   00508A  EC93  F02B         	call	_DHT11_Read_Byte	;wreg free
  9182   00508E  C503  F53C         	movff	?_DHT11_Read_Byte,DHT11_Read_Data@info+2
  9183   005092  C504  F53D         	movff	?_DHT11_Read_Byte+1,DHT11_Read_Data@info+3
  9184   005096                     
  9185                           ;dht11.c: 52:     info[2] = DHT11_Read_Byte();
  9186   005096  EC93  F02B         	call	_DHT11_Read_Byte	;wreg free
  9187   00509A  C503  F53E         	movff	?_DHT11_Read_Byte,DHT11_Read_Data@info+4
  9188   00509E  C504  F53F         	movff	?_DHT11_Read_Byte+1,DHT11_Read_Data@info+5
  9189   0050A2                     
  9190                           ;dht11.c: 53:     info[3] = DHT11_Read_Byte();
  9191   0050A2  EC93  F02B         	call	_DHT11_Read_Byte	;wreg free
  9192   0050A6  C503  F540         	movff	?_DHT11_Read_Byte,DHT11_Read_Data@info+6
  9193   0050AA  C504  F541         	movff	?_DHT11_Read_Byte+1,DHT11_Read_Data@info+7
  9194   0050AE                     
  9195                           ;dht11.c: 54:     info[4] = DHT11_Read_Byte();
  9196   0050AE  EC93  F02B         	call	_DHT11_Read_Byte	;wreg free
  9197   0050B2  C503  F542         	movff	?_DHT11_Read_Byte,DHT11_Read_Data@info+8
  9198   0050B6  C504  F543         	movff	?_DHT11_Read_Byte+1,DHT11_Read_Data@info+9
  9199   0050BA                     
  9200                           ;dht11.c: 55:     *hum = (float)((DHT11_Join_Data(info[0], info[1])) / 10.0f);
  9201   0050BA  C53C  F50B         	movff	DHT11_Read_Data@info+2,DHT11_Join_Data@l
  9202   0050BE  C53D  F50C         	movff	DHT11_Read_Data@info+3,DHT11_Join_Data@l+1
  9203   0050C2  C53A  F509         	movff	DHT11_Read_Data@info,DHT11_Join_Data@h
  9204   0050C6  C53B  F50A         	movff	DHT11_Read_Data@info+1,DHT11_Join_Data@h+1
  9205   0050CA  EC48  F02C         	call	_DHT11_Join_Data	;wreg free
  9206   0050CE  C509  F50F         	movff	?_DHT11_Join_Data,___xxtofl@val
  9207   0050D2  C50A  F510         	movff	?_DHT11_Join_Data+1,___xxtofl@val+1
  9208   0050D6  6A11               	clrf	(___xxtofl@val+2)^(0+1280),c
  9209   0050D8  6A12               	clrf	(___xxtofl@val+3)^(0+1280),c
  9210   0050DA  0E00               	movlw	0
  9211   0050DC  EC3C  F025         	call	___xxtofl
  9212   0050E0  C50F  F51D         	movff	?___xxtofl,___fldiv@b
  9213   0050E4  C510  F51E         	movff	?___xxtofl+1,___fldiv@b+1
  9214   0050E8  C511  F51F         	movff	?___xxtofl+2,___fldiv@b+2
  9215   0050EC  C512  F520         	movff	?___xxtofl+3,___fldiv@b+3
  9216   0050F0  0E00               	movlw	0
  9217   0050F2  6E21               	movwf	___fldiv@a^(0+1280),c
  9218   0050F4  0E00               	movlw	0
  9219   0050F6  6E22               	movwf	(___fldiv@a+1)^(0+1280),c
  9220   0050F8  0E20               	movlw	32
  9221   0050FA  6E23               	movwf	(___fldiv@a+2)^(0+1280),c
  9222   0050FC  0E41               	movlw	65
  9223   0050FE  6E24               	movwf	(___fldiv@a+3)^(0+1280),c
  9224   005100  EC8D  F01F         	call	___fldiv	;wreg free
  9225   005104  C538  F4D9         	movff	DHT11_Read_Data@hum,fsr2l
  9226   005108  C539  F4DA         	movff	DHT11_Read_Data@hum+1,fsr2h
  9227   00510C  C51D  F4DE         	movff	?___fldiv,postinc2
  9228   005110  C51E  F4DE         	movff	?___fldiv+1,postinc2
  9229   005114  C51F  F4DE         	movff	?___fldiv+2,postinc2
  9230   005118  C520  F4DE         	movff	?___fldiv+3,postinc2
  9231   00511C                     
  9232                           ;dht11.c: 56:     *tem = (float)((DHT11_Join_Data(info[2], info[3])) / 10.0f);
  9233   00511C  C540  F50B         	movff	DHT11_Read_Data@info+6,DHT11_Join_Data@l
  9234   005120  C541  F50C         	movff	DHT11_Read_Data@info+7,DHT11_Join_Data@l+1
  9235   005124  C53E  F509         	movff	DHT11_Read_Data@info+4,DHT11_Join_Data@h
  9236   005128  C53F  F50A         	movff	DHT11_Read_Data@info+5,DHT11_Join_Data@h+1
  9237   00512C  EC48  F02C         	call	_DHT11_Join_Data	;wreg free
  9238   005130  C509  F50F         	movff	?_DHT11_Join_Data,___xxtofl@val
  9239   005134  C50A  F510         	movff	?_DHT11_Join_Data+1,___xxtofl@val+1
  9240   005138  6A11               	clrf	(___xxtofl@val+2)^(0+1280),c
  9241   00513A  6A12               	clrf	(___xxtofl@val+3)^(0+1280),c
  9242   00513C  0E00               	movlw	0
  9243   00513E  EC3C  F025         	call	___xxtofl
  9244   005142  C50F  F51D         	movff	?___xxtofl,___fldiv@b
  9245   005146  C510  F51E         	movff	?___xxtofl+1,___fldiv@b+1
  9246   00514A  C511  F51F         	movff	?___xxtofl+2,___fldiv@b+2
  9247   00514E  C512  F520         	movff	?___xxtofl+3,___fldiv@b+3
  9248   005152  0E00               	movlw	0
  9249   005154  6E21               	movwf	___fldiv@a^(0+1280),c
  9250   005156  0E00               	movlw	0
  9251   005158  6E22               	movwf	(___fldiv@a+1)^(0+1280),c
  9252   00515A  0E20               	movlw	32
  9253   00515C  6E23               	movwf	(___fldiv@a+2)^(0+1280),c
  9254   00515E  0E41               	movlw	65
  9255   005160  6E24               	movwf	(___fldiv@a+3)^(0+1280),c
  9256   005162  EC8D  F01F         	call	___fldiv	;wreg free
  9257   005166  C536  F4D9         	movff	DHT11_Read_Data@tem,fsr2l
  9258   00516A  C537  F4DA         	movff	DHT11_Read_Data@tem+1,fsr2h
  9259   00516E  C51D  F4DE         	movff	?___fldiv,postinc2
  9260   005172  C51E  F4DE         	movff	?___fldiv+1,postinc2
  9261   005176  C51F  F4DE         	movff	?___fldiv+2,postinc2
  9262   00517A  C520  F4DE         	movff	?___fldiv+3,postinc2
  9263   00517E  0012               	return		;funcret
  9264   005180                     __end_of_DHT11_Read_Data:
  9265                           	callstack 0
  9266                           
  9267 ;; *************** function ___xxtofl *****************
  9268 ;; Defined at:
  9269 ;;		line 10 in file "C:\Program Files\Microchip\xc8\v2.40\pic\sources\c99\common\xxtofl.c"
  9270 ;; Parameters:    Size  Location     Type
  9271 ;;  sign            1    wreg     unsigned char 
  9272 ;;  val             4   14[COMRAM] long 
  9273 ;; Auto vars:     Size  Location     Type
  9274 ;;  sign            1   22[COMRAM] unsigned char 
  9275 ;;  arg             4   24[COMRAM] unsigned long 
  9276 ;;  exp             1   23[COMRAM] unsigned char 
  9277 ;; Return value:  Size  Location     Type
  9278 ;;                  4   14[COMRAM] unsigned char 
  9279 ;; Registers used:
  9280 ;;		wreg, status,2, status,0
  9281 ;; Tracked objects:
  9282 ;;		On entry : 0/0
  9283 ;;		On exit  : 0/0
  9284 ;;		Unchanged: 0/0
  9285 ;; Data sizes:     COMRAM   BANK5   BANK6   BANK7   BANK8   BANK9  BANK10  BANK11  BANK12  BANK13  BANK14  BANK15  BANK1
      +6  BANK17  BANK18  BANK19  BANK20  BANK21  BANK22  BANK23  BANK24  BANK25  BANK26  BANK27  BANK28  BANK29  BANK30  BANK3
      +1  BANK32  BANK33  BANK34  BANK35  BANK36
  9286 ;;      Params:         4       0       0       0       0       0       0       0       0       0       0       0       
      +0       0       0       0       0       0       0       0       0       0       0       0       0       0       0       
      +0       0       0       0       0       0
  9287 ;;      Locals:         6       0       0       0       0       0       0       0       0       0       0       0       
      +0       0       0       0       0       0       0       0       0       0       0       0       0       0       0       
      +0       0       0       0       0       0
  9288 ;;      Temps:          4       0       0       0       0       0       0       0       0       0       0       0       
      +0       0       0       0       0       0       0       0       0       0       0       0       0       0       0       
      +0       0       0       0       0       0
  9289 ;;      Totals:        14       0       0       0       0       0       0       0       0       0       0       0       
      +0       0       0       0       0       0       0       0       0       0       0       0       0       0       0       
      +0       0       0       0       0       0
  9290 ;;Total ram usage:       14 bytes
  9291 ;; Hardware stack levels used: 1
  9292 ;; Hardware stack levels required when called: 4
  9293 ;; This function calls:
  9294 ;;		Nothing
  9295 ;; This function is called by:
  9296 ;;		_main
  9297 ;;		_DHT11_Read_Data
  9298 ;; This function uses a non-reentrant model
  9299 ;;
  9300                           
  9301                           	psect	text44
  9302   004A78                     __ptext44:
  9303                           	callstack 0
  9304   004A78                     ___xxtofl:
  9305                           	callstack 122
  9306                           
  9307                           ;incstack = 0
  9308                           ;___xxtofl@sign stored from wreg
  9309   004A78  6E17               	movwf	___xxtofl@sign^(0+1280),c
  9310   004A7A  5017               	movf	___xxtofl@sign^(0+1280),w,c
  9311   004A7C  B4D8               	btfsc	status,2,c
  9312   004A7E  EF43  F025         	goto	u4831
  9313   004A82  EF45  F025         	goto	u4830
  9314   004A86                     u4831:
  9315   004A86  EF67  F025         	goto	l1317
  9316   004A8A                     u4830:
  9317   004A8A  BE12               	btfsc	(___xxtofl@val+3)^(0+1280),7,c
  9318   004A8C  EF4C  F025         	goto	u4840
  9319   004A90  EF4A  F025         	goto	u4841
  9320   004A94                     u4841:
  9321   004A94  EF67  F025         	goto	l1317
  9322   004A98                     u4840:
  9323   004A98  C50F  F513         	movff	___xxtofl@val,??___xxtofl
  9324   004A9C  C510  F514         	movff	___xxtofl@val+1,??___xxtofl+1
  9325   004AA0  C511  F515         	movff	___xxtofl@val+2,??___xxtofl+2
  9326   004AA4  C512  F516         	movff	___xxtofl@val+3,??___xxtofl+3
  9327   004AA8  1E13               	comf	??___xxtofl^(0+1280),f,c
  9328   004AAA  1E14               	comf	(??___xxtofl+1)^(0+1280),f,c
  9329   004AAC  1E15               	comf	(??___xxtofl+2)^(0+1280),f,c
  9330   004AAE  1E16               	comf	(??___xxtofl+3)^(0+1280),f,c
  9331   004AB0  2A13               	incf	??___xxtofl^(0+1280),f,c
  9332   004AB2  0E00               	movlw	0
  9333   004AB4  2214               	addwfc	(??___xxtofl+1)^(0+1280),f,c
  9334   004AB6  2215               	addwfc	(??___xxtofl+2)^(0+1280),f,c
  9335   004AB8  2216               	addwfc	(??___xxtofl+3)^(0+1280),f,c
  9336   004ABA  C513  F519         	movff	??___xxtofl,___xxtofl@arg
  9337   004ABE  C514  F51A         	movff	??___xxtofl+1,___xxtofl@arg+1
  9338   004AC2  C515  F51B         	movff	??___xxtofl+2,___xxtofl@arg+2
  9339   004AC6  C516  F51C         	movff	??___xxtofl+3,___xxtofl@arg+3
  9340   004ACA  EF6F  F025         	goto	l4809
  9341   004ACE                     l1317:
  9342   004ACE  C50F  F519         	movff	___xxtofl@val,___xxtofl@arg
  9343   004AD2  C510  F51A         	movff	___xxtofl@val+1,___xxtofl@arg+1
  9344   004AD6  C511  F51B         	movff	___xxtofl@val+2,___xxtofl@arg+2
  9345   004ADA  C512  F51C         	movff	___xxtofl@val+3,___xxtofl@arg+3
  9346   004ADE                     l4809:
  9347   004ADE  500F               	movf	___xxtofl@val^(0+1280),w,c
  9348   004AE0  1010               	iorwf	(___xxtofl@val+1)^(0+1280),w,c
  9349   004AE2  1011               	iorwf	(___xxtofl@val+2)^(0+1280),w,c
  9350   004AE4  1012               	iorwf	(___xxtofl@val+3)^(0+1280),w,c
  9351   004AE6  A4D8               	btfss	status,2,c
  9352   004AE8  EF78  F025         	goto	u4851
  9353   004AEC  EF7A  F025         	goto	u4850
  9354   004AF0                     u4851:
  9355   004AF0  EF84  F025         	goto	l4815
  9356   004AF4                     u4850:
  9357   004AF4  0E00               	movlw	0
  9358   004AF6  6E0F               	movwf	?___xxtofl^(0+1280),c
  9359   004AF8  0E00               	movlw	0
  9360   004AFA  6E10               	movwf	(?___xxtofl+1)^(0+1280),c
  9361   004AFC  0E00               	movlw	0
  9362   004AFE  6E11               	movwf	(?___xxtofl+2)^(0+1280),c
  9363   004B00  0E00               	movlw	0
  9364   004B02  6E12               	movwf	(?___xxtofl+3)^(0+1280),c
  9365   004B04  EF15  F026         	goto	l1320
  9366   004B08                     l4815:
  9367   004B08  0E96               	movlw	150
  9368   004B0A  6E18               	movwf	___xxtofl@exp^(0+1280),c
  9369   004B0C  EF8E  F025         	goto	l4819
  9370   004B10                     l4817:
  9371   004B10  2A18               	incf	___xxtofl@exp^(0+1280),f,c
  9372   004B12  90D8               	bcf	status,0,c
  9373   004B14  321C               	rrcf	(___xxtofl@arg+3)^(0+1280),f,c
  9374   004B16  321B               	rrcf	(___xxtofl@arg+2)^(0+1280),f,c
  9375   004B18  321A               	rrcf	(___xxtofl@arg+1)^(0+1280),f,c
  9376   004B1A  3219               	rrcf	___xxtofl@arg^(0+1280),f,c
  9377   004B1C                     l4819:
  9378   004B1C  0E00               	movlw	0
  9379   004B1E  1419               	andwf	___xxtofl@arg^(0+1280),w,c
  9380   004B20  6E13               	movwf	??___xxtofl^(0+1280),c
  9381   004B22  0E00               	movlw	0
  9382   004B24  141A               	andwf	(___xxtofl@arg+1)^(0+1280),w,c
  9383   004B26  6E14               	movwf	(??___xxtofl+1)^(0+1280),c
  9384   004B28  0E00               	movlw	0
  9385   004B2A  141B               	andwf	(___xxtofl@arg+2)^(0+1280),w,c
  9386   004B2C  6E15               	movwf	(??___xxtofl+2)^(0+1280),c
  9387   004B2E  0EFE               	movlw	254
  9388   004B30  141C               	andwf	(___xxtofl@arg+3)^(0+1280),w,c
  9389   004B32  6E16               	movwf	(??___xxtofl+3)^(0+1280),c
  9390   004B34  5013               	movf	??___xxtofl^(0+1280),w,c
  9391   004B36  1014               	iorwf	(??___xxtofl+1)^(0+1280),w,c
  9392   004B38  1015               	iorwf	(??___xxtofl+2)^(0+1280),w,c
  9393   004B3A  1016               	iorwf	(??___xxtofl+3)^(0+1280),w,c
  9394   004B3C  A4D8               	btfss	status,2,c
  9395   004B3E  EFA3  F025         	goto	u4861
  9396   004B42  EFA5  F025         	goto	u4860
  9397   004B46                     u4861:
  9398   004B46  EF88  F025         	goto	l4817
  9399   004B4A                     u4860:
  9400   004B4A  EFB3  F025         	goto	l1324
  9401   004B4E                     l4821:
  9402   004B4E  2A18               	incf	___xxtofl@exp^(0+1280),f,c
  9403   004B50  0E01               	movlw	1
  9404   004B52  2619               	addwf	___xxtofl@arg^(0+1280),f,c
  9405   004B54  0E00               	movlw	0
  9406   004B56  221A               	addwfc	(___xxtofl@arg+1)^(0+1280),f,c
  9407   004B58  221B               	addwfc	(___xxtofl@arg+2)^(0+1280),f,c
  9408   004B5A  221C               	addwfc	(___xxtofl@arg+3)^(0+1280),f,c
  9409   004B5C  90D8               	bcf	status,0,c
  9410   004B5E  321C               	rrcf	(___xxtofl@arg+3)^(0+1280),f,c
  9411   004B60  321B               	rrcf	(___xxtofl@arg+2)^(0+1280),f,c
  9412   004B62  321A               	rrcf	(___xxtofl@arg+1)^(0+1280),f,c
  9413   004B64  3219               	rrcf	___xxtofl@arg^(0+1280),f,c
  9414   004B66                     l1324:
  9415   004B66  0E00               	movlw	0
  9416   004B68  1419               	andwf	___xxtofl@arg^(0+1280),w,c
  9417   004B6A  6E13               	movwf	??___xxtofl^(0+1280),c
  9418   004B6C  0E00               	movlw	0
  9419   004B6E  141A               	andwf	(___xxtofl@arg+1)^(0+1280),w,c
  9420   004B70  6E14               	movwf	(??___xxtofl+1)^(0+1280),c
  9421   004B72  0E00               	movlw	0
  9422   004B74  141B               	andwf	(___xxtofl@arg+2)^(0+1280),w,c
  9423   004B76  6E15               	movwf	(??___xxtofl+2)^(0+1280),c
  9424   004B78  0EFF               	movlw	255
  9425   004B7A  141C               	andwf	(___xxtofl@arg+3)^(0+1280),w,c
  9426   004B7C  6E16               	movwf	(??___xxtofl+3)^(0+1280),c
  9427   004B7E  5013               	movf	??___xxtofl^(0+1280),w,c
  9428   004B80  1014               	iorwf	(??___xxtofl+1)^(0+1280),w,c
  9429   004B82  1015               	iorwf	(??___xxtofl+2)^(0+1280),w,c
  9430   004B84  1016               	iorwf	(??___xxtofl+3)^(0+1280),w,c
  9431   004B86  A4D8               	btfss	status,2,c
  9432   004B88  EFC8  F025         	goto	u4871
  9433   004B8C  EFCA  F025         	goto	u4870
  9434   004B90                     u4871:
  9435   004B90  EFA7  F025         	goto	l4821
  9436   004B94                     u4870:
  9437   004B94  EFD2  F025         	goto	l4829
  9438   004B98                     l4827:
  9439   004B98  0618               	decf	___xxtofl@exp^(0+1280),f,c
  9440   004B9A  90D8               	bcf	status,0,c
  9441   004B9C  3619               	rlcf	___xxtofl@arg^(0+1280),f,c
  9442   004B9E  361A               	rlcf	(___xxtofl@arg+1)^(0+1280),f,c
  9443   004BA0  361B               	rlcf	(___xxtofl@arg+2)^(0+1280),f,c
  9444   004BA2  361C               	rlcf	(___xxtofl@arg+3)^(0+1280),f,c
  9445   004BA4                     l4829:
  9446   004BA4  BE1B               	btfsc	(___xxtofl@arg+2)^(0+1280),7,c
  9447   004BA6  EFD7  F025         	goto	u4881
  9448   004BAA  EFD9  F025         	goto	u4880
  9449   004BAE                     u4881:
  9450   004BAE  EFE1  F025         	goto	l1331
  9451   004BB2                     u4880:
  9452   004BB2  0E02               	movlw	2
  9453   004BB4  6018               	cpfslt	___xxtofl@exp^(0+1280),c
  9454   004BB6  EFDF  F025         	goto	u4891
  9455   004BBA  EFE1  F025         	goto	u4890
  9456   004BBE                     u4891:
  9457   004BBE  EFCC  F025         	goto	l4827
  9458   004BC2                     u4890:
  9459   004BC2                     l1331:
  9460   004BC2  B018               	btfsc	___xxtofl@exp^(0+1280),0,c
  9461   004BC4  EFE6  F025         	goto	u4901
  9462   004BC8  EFE8  F025         	goto	u4900
  9463   004BCC                     u4901:
  9464   004BCC  EFE9  F025         	goto	l4835
  9465   004BD0                     u4900:
  9466   004BD0  9E1B               	bcf	(___xxtofl@arg+2)^(0+1280),7,c
  9467   004BD2                     l4835:
  9468   004BD2  90D8               	bcf	status,0,c
  9469   004BD4  3218               	rrcf	___xxtofl@exp^(0+1280),f,c
  9470   004BD6  C518  F513         	movff	___xxtofl@exp,??___xxtofl
  9471   004BDA  6A14               	clrf	(??___xxtofl+1)^(0+1280),c
  9472   004BDC  6A15               	clrf	(??___xxtofl+2)^(0+1280),c
  9473   004BDE  6A16               	clrf	(??___xxtofl+3)^(0+1280),c
  9474   004BE0  C513  F516         	movff	??___xxtofl,??___xxtofl+3
  9475   004BE4  6A15               	clrf	(??___xxtofl+2)^(0+1280),c
  9476   004BE6  6A14               	clrf	(??___xxtofl+1)^(0+1280),c
  9477   004BE8  6A13               	clrf	??___xxtofl^(0+1280),c
  9478   004BEA  5013               	movf	??___xxtofl^(0+1280),w,c
  9479   004BEC  1219               	iorwf	___xxtofl@arg^(0+1280),f,c
  9480   004BEE  5014               	movf	(??___xxtofl+1)^(0+1280),w,c
  9481   004BF0  121A               	iorwf	(___xxtofl@arg+1)^(0+1280),f,c
  9482   004BF2  5015               	movf	(??___xxtofl+2)^(0+1280),w,c
  9483   004BF4  121B               	iorwf	(___xxtofl@arg+2)^(0+1280),f,c
  9484   004BF6  5016               	movf	(??___xxtofl+3)^(0+1280),w,c
  9485   004BF8  121C               	iorwf	(___xxtofl@arg+3)^(0+1280),f,c
  9486   004BFA  5017               	movf	___xxtofl@sign^(0+1280),w,c
  9487   004BFC  B4D8               	btfsc	status,2,c
  9488   004BFE  EF03  F026         	goto	u4911
  9489   004C02  EF05  F026         	goto	u4910
  9490   004C06                     u4911:
  9491   004C06  EF0D  F026         	goto	l4845
  9492   004C0A                     u4910:
  9493   004C0A  BE12               	btfsc	(___xxtofl@val+3)^(0+1280),7,c
  9494   004C0C  EF0C  F026         	goto	u4920
  9495   004C10  EF0A  F026         	goto	u4921
  9496   004C14                     u4921:
  9497   004C14  EF0D  F026         	goto	l4845
  9498   004C18                     u4920:
  9499   004C18  8E1C               	bsf	(___xxtofl@arg+3)^(0+1280),7,c
  9500   004C1A                     l4845:
  9501   004C1A  C519  F50F         	movff	___xxtofl@arg,?___xxtofl
  9502   004C1E  C51A  F510         	movff	___xxtofl@arg+1,?___xxtofl+1
  9503   004C22  C51B  F511         	movff	___xxtofl@arg+2,?___xxtofl+2
  9504   004C26  C51C  F512         	movff	___xxtofl@arg+3,?___xxtofl+3
  9505   004C2A                     l1320:
  9506   004C2A  0012               	return		;funcret
  9507   004C2C                     __end_of___xxtofl:
  9508                           	callstack 0
  9509                           
  9510 ;; *************** function ___fldiv *****************
  9511 ;; Defined at:
  9512 ;;		line 11 in file "C:\Program Files\Microchip\xc8\v2.40\pic\sources\c99\common\sprcdiv.c"
  9513 ;; Parameters:    Size  Location     Type
  9514 ;;  b               4   28[COMRAM] unsigned char 
  9515 ;;  a               4   32[COMRAM] unsigned char 
  9516 ;; Auto vars:     Size  Location     Type
  9517 ;;  grs             4   47[COMRAM] unsigned long 
  9518 ;;  rem             4   40[COMRAM] unsigned long 
  9519 ;;  new_exp         2   45[COMRAM] short 
  9520 ;;  aexp            1   52[COMRAM] unsigned char 
  9521 ;;  bexp            1   51[COMRAM] unsigned char 
  9522 ;;  sign            1   44[COMRAM] unsigned char 
  9523 ;; Return value:  Size  Location     Type
  9524 ;;                  4   28[COMRAM] unsigned char 
  9525 ;; Registers used:
  9526 ;;		wreg, status,2, status,0
  9527 ;; Tracked objects:
  9528 ;;		On entry : 0/0
  9529 ;;		On exit  : 0/0
  9530 ;;		Unchanged: 0/0
  9531 ;; Data sizes:     COMRAM   BANK5   BANK6   BANK7   BANK8   BANK9  BANK10  BANK11  BANK12  BANK13  BANK14  BANK15  BANK1
      +6  BANK17  BANK18  BANK19  BANK20  BANK21  BANK22  BANK23  BANK24  BANK25  BANK26  BANK27  BANK28  BANK29  BANK30  BANK3
      +1  BANK32  BANK33  BANK34  BANK35  BANK36
  9532 ;;      Params:         8       0       0       0       0       0       0       0       0       0       0       0       
      +0       0       0       0       0       0       0       0       0       0       0       0       0       0       0       
      +0       0       0       0       0       0
  9533 ;;      Locals:        13       0       0       0       0       0       0       0       0       0       0       0       
      +0       0       0       0       0       0       0       0       0       0       0       0       0       0       0       
      +0       0       0       0       0       0
  9534 ;;      Temps:          4       0       0       0       0       0       0       0       0       0       0       0       
      +0       0       0       0       0       0       0       0       0       0       0       0       0       0       0       
      +0       0       0       0       0       0
  9535 ;;      Totals:        25       0       0       0       0       0       0       0       0       0       0       0       
      +0       0       0       0       0       0       0       0       0       0       0       0       0       0       0       
      +0       0       0       0       0       0
  9536 ;;Total ram usage:       25 bytes
  9537 ;; Hardware stack levels used: 1
  9538 ;; Hardware stack levels required when called: 4
  9539 ;; This function calls:
  9540 ;;		Nothing
  9541 ;; This function is called by:
  9542 ;;		_DHT11_Read_Data
  9543 ;;		_efgtoa
  9544 ;; This function uses a non-reentrant model
  9545 ;;
  9546                           
  9547                           	psect	text45
  9548   003F1A                     __ptext45:
  9549                           	callstack 0
  9550   003F1A                     ___fldiv:
  9551                           	callstack 118
  9552   003F1A  5020               	movf	(___fldiv@b+3)^(0+1280),w,c
  9553   003F1C  0B80               	andlw	128
  9554   003F1E  6E2D               	movwf	___fldiv@sign^(0+1280),c
  9555   003F20  5020               	movf	(___fldiv@b+3)^(0+1280),w,c
  9556   003F22  2420               	addwf	(___fldiv@b+3)^(0+1280),w,c
  9557   003F24  6E34               	movwf	___fldiv@bexp^(0+1280),c
  9558   003F26  AE1F               	btfss	(___fldiv@b+2)^(0+1280),7,c
  9559   003F28  EF98  F01F         	goto	u5851
  9560   003F2C  EF9A  F01F         	goto	u5850
  9561   003F30                     u5851:
  9562   003F30  EF9B  F01F         	goto	l5551
  9563   003F34                     u5850:
  9564   003F34  8034               	bsf	___fldiv@bexp^(0+1280),0,c
  9565   003F36                     l5551:
  9566   003F36  5034               	movf	___fldiv@bexp^(0+1280),w,c
  9567   003F38  B4D8               	btfsc	status,2,c
  9568   003F3A  EFA1  F01F         	goto	u5861
  9569   003F3E  EFA3  F01F         	goto	u5860
  9570   003F42                     u5861:
  9571   003F42  EFB8  F01F         	goto	l5561
  9572   003F46                     u5860:
  9573   003F46  2834               	incf	___fldiv@bexp^(0+1280),w,c
  9574   003F48  A4D8               	btfss	status,2,c
  9575   003F4A  EFA9  F01F         	goto	u5871
  9576   003F4E  EFAB  F01F         	goto	u5870
  9577   003F52                     u5871:
  9578   003F52  EFB3  F01F         	goto	l5557
  9579   003F56                     u5870:
  9580   003F56  0E00               	movlw	0
  9581   003F58  6E1D               	movwf	___fldiv@b^(0+1280),c
  9582   003F5A  0E00               	movlw	0
  9583   003F5C  6E1E               	movwf	(___fldiv@b+1)^(0+1280),c
  9584   003F5E  0E00               	movlw	0
  9585   003F60  6E1F               	movwf	(___fldiv@b+2)^(0+1280),c
  9586   003F62  0E00               	movlw	0
  9587   003F64  6E20               	movwf	(___fldiv@b+3)^(0+1280),c
  9588   003F66                     l5557:
  9589   003F66  8E1F               	bsf	(___fldiv@b+2)^(0+1280),7,c
  9590   003F68  0E00               	movlw	0
  9591   003F6A  6E20               	movwf	(___fldiv@b+3)^(0+1280),c
  9592   003F6C  EFC0  F01F         	goto	l5563
  9593   003F70                     l5561:
  9594   003F70  0E00               	movlw	0
  9595   003F72  6E1D               	movwf	___fldiv@b^(0+1280),c
  9596   003F74  0E00               	movlw	0
  9597   003F76  6E1E               	movwf	(___fldiv@b+1)^(0+1280),c
  9598   003F78  0E00               	movlw	0
  9599   003F7A  6E1F               	movwf	(___fldiv@b+2)^(0+1280),c
  9600   003F7C  0E00               	movlw	0
  9601   003F7E  6E20               	movwf	(___fldiv@b+3)^(0+1280),c
  9602   003F80                     l5563:
  9603   003F80  5024               	movf	(___fldiv@a+3)^(0+1280),w,c
  9604   003F82  0B80               	andlw	128
  9605   003F84  1A2D               	xorwf	___fldiv@sign^(0+1280),f,c
  9606   003F86  5024               	movf	(___fldiv@a+3)^(0+1280),w,c
  9607   003F88  2424               	addwf	(___fldiv@a+3)^(0+1280),w,c
  9608   003F8A  6E35               	movwf	___fldiv@aexp^(0+1280),c
  9609   003F8C  AE23               	btfss	(___fldiv@a+2)^(0+1280),7,c
  9610   003F8E  EFCB  F01F         	goto	u5881
  9611   003F92  EFCD  F01F         	goto	u5880
  9612   003F96                     u5881:
  9613   003F96  EFCE  F01F         	goto	l5571
  9614   003F9A                     u5880:
  9615   003F9A  8035               	bsf	___fldiv@aexp^(0+1280),0,c
  9616   003F9C                     l5571:
  9617   003F9C  5035               	movf	___fldiv@aexp^(0+1280),w,c
  9618   003F9E  B4D8               	btfsc	status,2,c
  9619   003FA0  EFD4  F01F         	goto	u5891
  9620   003FA4  EFD6  F01F         	goto	u5890
  9621   003FA8                     u5891:
  9622   003FA8  EFEB  F01F         	goto	l5581
  9623   003FAC                     u5890:
  9624   003FAC  2835               	incf	___fldiv@aexp^(0+1280),w,c
  9625   003FAE  A4D8               	btfss	status,2,c
  9626   003FB0  EFDC  F01F         	goto	u5901
  9627   003FB4  EFDE  F01F         	goto	u5900
  9628   003FB8                     u5901:
  9629   003FB8  EFE6  F01F         	goto	l5577
  9630   003FBC                     u5900:
  9631   003FBC  0E00               	movlw	0
  9632   003FBE  6E21               	movwf	___fldiv@a^(0+1280),c
  9633   003FC0  0E00               	movlw	0
  9634   003FC2  6E22               	movwf	(___fldiv@a+1)^(0+1280),c
  9635   003FC4  0E00               	movlw	0
  9636   003FC6  6E23               	movwf	(___fldiv@a+2)^(0+1280),c
  9637   003FC8  0E00               	movlw	0
  9638   003FCA  6E24               	movwf	(___fldiv@a+3)^(0+1280),c
  9639   003FCC                     l5577:
  9640   003FCC  8E23               	bsf	(___fldiv@a+2)^(0+1280),7,c
  9641   003FCE  0E00               	movlw	0
  9642   003FD0  6E24               	movwf	(___fldiv@a+3)^(0+1280),c
  9643   003FD2  EFF3  F01F         	goto	l5583
  9644   003FD6                     l5581:
  9645   003FD6  0E00               	movlw	0
  9646   003FD8  6E21               	movwf	___fldiv@a^(0+1280),c
  9647   003FDA  0E00               	movlw	0
  9648   003FDC  6E22               	movwf	(___fldiv@a+1)^(0+1280),c
  9649   003FDE  0E00               	movlw	0
  9650   003FE0  6E23               	movwf	(___fldiv@a+2)^(0+1280),c
  9651   003FE2  0E00               	movlw	0
  9652   003FE4  6E24               	movwf	(___fldiv@a+3)^(0+1280),c
  9653   003FE6                     l5583:
  9654   003FE6  5021               	movf	___fldiv@a^(0+1280),w,c
  9655   003FE8  1022               	iorwf	(___fldiv@a+1)^(0+1280),w,c
  9656   003FEA  1023               	iorwf	(___fldiv@a+2)^(0+1280),w,c
  9657   003FEC  1024               	iorwf	(___fldiv@a+3)^(0+1280),w,c
  9658   003FEE  A4D8               	btfss	status,2,c
  9659   003FF0  EFFC  F01F         	goto	u5911
  9660   003FF4  EFFE  F01F         	goto	u5910
  9661   003FF8                     u5911:
  9662   003FF8  EF16  F020         	goto	l5595
  9663   003FFC                     u5910:
  9664   003FFC  0E00               	movlw	0
  9665   003FFE  6E1D               	movwf	___fldiv@b^(0+1280),c
  9666   004000  0E00               	movlw	0
  9667   004002  6E1E               	movwf	(___fldiv@b+1)^(0+1280),c
  9668   004004  0E00               	movlw	0
  9669   004006  6E1F               	movwf	(___fldiv@b+2)^(0+1280),c
  9670   004008  0E00               	movlw	0
  9671   00400A  6E20               	movwf	(___fldiv@b+3)^(0+1280),c
  9672   00400C  0E80               	movlw	128
  9673   00400E  121F               	iorwf	(___fldiv@b+2)^(0+1280),f,c
  9674   004010  0E7F               	movlw	127
  9675   004012  1220               	iorwf	(___fldiv@b+3)^(0+1280),f,c
  9676   004014                     l5589:
  9677   004014  502D               	movf	___fldiv@sign^(0+1280),w,c
  9678   004016  1220               	iorwf	(___fldiv@b+3)^(0+1280),f,c
  9679   004018  C51D  F51D         	movff	___fldiv@b,?___fldiv
  9680   00401C  C51E  F51E         	movff	___fldiv@b+1,?___fldiv+1
  9681   004020  C51F  F51F         	movff	___fldiv@b+2,?___fldiv+2
  9682   004024  C520  F520         	movff	___fldiv@b+3,?___fldiv+3
  9683   004028  EF59  F021         	goto	l1244
  9684   00402C                     l5595:
  9685   00402C  5034               	movf	___fldiv@bexp^(0+1280),w,c
  9686   00402E  A4D8               	btfss	status,2,c
  9687   004030  EF1C  F020         	goto	u5921
  9688   004034  EF1E  F020         	goto	u5920
  9689   004038                     u5921:
  9690   004038  EF28  F020         	goto	l5603
  9691   00403C                     u5920:
  9692   00403C  0E00               	movlw	0
  9693   00403E  6E1D               	movwf	?___fldiv^(0+1280),c
  9694   004040  0E00               	movlw	0
  9695   004042  6E1E               	movwf	(?___fldiv+1)^(0+1280),c
  9696   004044  0E00               	movlw	0
  9697   004046  6E1F               	movwf	(?___fldiv+2)^(0+1280),c
  9698   004048  0E00               	movlw	0
  9699   00404A  6E20               	movwf	(?___fldiv+3)^(0+1280),c
  9700   00404C  EF59  F021         	goto	l1244
  9701   004050                     l5603:
  9702   004050  5035               	movf	___fldiv@aexp^(0+1280),w,c
  9703   004052  C534  F525         	movff	___fldiv@bexp,??___fldiv
  9704   004056  6A26               	clrf	(??___fldiv+1)^(0+1280),c
  9705   004058  5E25               	subwf	??___fldiv^(0+1280),f,c
  9706   00405A  0E00               	movlw	0
  9707   00405C  5A26               	subwfb	(??___fldiv+1)^(0+1280),f,c
  9708   00405E  0E7F               	movlw	127
  9709   004060  2425               	addwf	??___fldiv^(0+1280),w,c
  9710   004062  6E2E               	movwf	___fldiv@new_exp^(0+1280),c
  9711   004064  0E00               	movlw	0
  9712   004066  2026               	addwfc	(??___fldiv+1)^(0+1280),w,c
  9713   004068  6E2F               	movwf	(___fldiv@new_exp+1)^(0+1280),c
  9714   00406A  C51D  F529         	movff	___fldiv@b,___fldiv@rem
  9715   00406E  C51E  F52A         	movff	___fldiv@b+1,___fldiv@rem+1
  9716   004072  C51F  F52B         	movff	___fldiv@b+2,___fldiv@rem+2
  9717   004076  C520  F52C         	movff	___fldiv@b+3,___fldiv@rem+3
  9718   00407A  0E00               	movlw	0
  9719   00407C  6E1D               	movwf	___fldiv@b^(0+1280),c
  9720   00407E  0E00               	movlw	0
  9721   004080  6E1E               	movwf	(___fldiv@b+1)^(0+1280),c
  9722   004082  0E00               	movlw	0
  9723   004084  6E1F               	movwf	(___fldiv@b+2)^(0+1280),c
  9724   004086  0E00               	movlw	0
  9725   004088  6E20               	movwf	(___fldiv@b+3)^(0+1280),c
  9726   00408A  0E00               	movlw	0
  9727   00408C  6E30               	movwf	___fldiv@grs^(0+1280),c
  9728   00408E  0E00               	movlw	0
  9729   004090  6E31               	movwf	(___fldiv@grs+1)^(0+1280),c
  9730   004092  0E00               	movlw	0
  9731   004094  6E32               	movwf	(___fldiv@grs+2)^(0+1280),c
  9732   004096  0E00               	movlw	0
  9733   004098  6E33               	movwf	(___fldiv@grs+3)^(0+1280),c
  9734   00409A  0E00               	movlw	0
  9735   00409C  6E35               	movwf	___fldiv@aexp^(0+1280),c
  9736   00409E  EF89  F020         	goto	l1246
  9737   0040A2                     l5613:
  9738   0040A2  5035               	movf	___fldiv@aexp^(0+1280),w,c
  9739   0040A4  B4D8               	btfsc	status,2,c
  9740   0040A6  EF57  F020         	goto	u5931
  9741   0040AA  EF59  F020         	goto	u5930
  9742   0040AE                     u5931:
  9743   0040AE  EF70  F020         	goto	l5621
  9744   0040B2                     u5930:
  9745   0040B2  90D8               	bcf	status,0,c
  9746   0040B4  3629               	rlcf	___fldiv@rem^(0+1280),f,c
  9747   0040B6  362A               	rlcf	(___fldiv@rem+1)^(0+1280),f,c
  9748   0040B8  362B               	rlcf	(___fldiv@rem+2)^(0+1280),f,c
  9749   0040BA  362C               	rlcf	(___fldiv@rem+3)^(0+1280),f,c
  9750   0040BC  90D8               	bcf	status,0,c
  9751   0040BE  361D               	rlcf	___fldiv@b^(0+1280),f,c
  9752   0040C0  361E               	rlcf	(___fldiv@b+1)^(0+1280),f,c
  9753   0040C2  361F               	rlcf	(___fldiv@b+2)^(0+1280),f,c
  9754   0040C4  3620               	rlcf	(___fldiv@b+3)^(0+1280),f,c
  9755   0040C6  AE33               	btfss	(___fldiv@grs+3)^(0+1280),7,c
  9756   0040C8  EF68  F020         	goto	u5941
  9757   0040CC  EF6A  F020         	goto	u5940
  9758   0040D0                     u5941:
  9759   0040D0  EF6B  F020         	goto	l1249
  9760   0040D4                     u5940:
  9761   0040D4  801D               	bsf	___fldiv@b^(0+1280),0,c
  9762   0040D6                     l1249:
  9763   0040D6  90D8               	bcf	status,0,c
  9764   0040D8  3630               	rlcf	___fldiv@grs^(0+1280),f,c
  9765   0040DA  3631               	rlcf	(___fldiv@grs+1)^(0+1280),f,c
  9766   0040DC  3632               	rlcf	(___fldiv@grs+2)^(0+1280),f,c
  9767   0040DE  3633               	rlcf	(___fldiv@grs+3)^(0+1280),f,c
  9768   0040E0                     l5621:
  9769   0040E0  5021               	movf	___fldiv@a^(0+1280),w,c
  9770   0040E2  5C29               	subwf	___fldiv@rem^(0+1280),w,c
  9771   0040E4  5022               	movf	(___fldiv@a+1)^(0+1280),w,c
  9772   0040E6  582A               	subwfb	(___fldiv@rem+1)^(0+1280),w,c
  9773   0040E8  5023               	movf	(___fldiv@a+2)^(0+1280),w,c
  9774   0040EA  582B               	subwfb	(___fldiv@rem+2)^(0+1280),w,c
  9775   0040EC  5024               	movf	(___fldiv@a+3)^(0+1280),w,c
  9776   0040EE  582C               	subwfb	(___fldiv@rem+3)^(0+1280),w,c
  9777   0040F0  A0D8               	btfss	status,0,c
  9778   0040F2  EF7D  F020         	goto	u5951
  9779   0040F6  EF7F  F020         	goto	u5950
  9780   0040FA                     u5951:
  9781   0040FA  EF88  F020         	goto	l5627
  9782   0040FE                     u5950:
  9783   0040FE  8C33               	bsf	(___fldiv@grs+3)^(0+1280),6,c
  9784   004100  5021               	movf	___fldiv@a^(0+1280),w,c
  9785   004102  5E29               	subwf	___fldiv@rem^(0+1280),f,c
  9786   004104  5022               	movf	(___fldiv@a+1)^(0+1280),w,c
  9787   004106  5A2A               	subwfb	(___fldiv@rem+1)^(0+1280),f,c
  9788   004108  5023               	movf	(___fldiv@a+2)^(0+1280),w,c
  9789   00410A  5A2B               	subwfb	(___fldiv@rem+2)^(0+1280),f,c
  9790   00410C  5024               	movf	(___fldiv@a+3)^(0+1280),w,c
  9791   00410E  5A2C               	subwfb	(___fldiv@rem+3)^(0+1280),f,c
  9792   004110                     l5627:
  9793   004110  2A35               	incf	___fldiv@aexp^(0+1280),f,c
  9794   004112                     l1246:
  9795   004112  0E19               	movlw	25
  9796   004114  6435               	cpfsgt	___fldiv@aexp^(0+1280),c
  9797   004116  EF8F  F020         	goto	u5961
  9798   00411A  EF91  F020         	goto	u5960
  9799   00411E                     u5961:
  9800   00411E  EF51  F020         	goto	l5613
  9801   004122                     u5960:
  9802   004122  5029               	movf	___fldiv@rem^(0+1280),w,c
  9803   004124  102A               	iorwf	(___fldiv@rem+1)^(0+1280),w,c
  9804   004126  102B               	iorwf	(___fldiv@rem+2)^(0+1280),w,c
  9805   004128  102C               	iorwf	(___fldiv@rem+3)^(0+1280),w,c
  9806   00412A  B4D8               	btfsc	status,2,c
  9807   00412C  EF9A  F020         	goto	u5971
  9808   004130  EF9C  F020         	goto	u5970
  9809   004134                     u5971:
  9810   004134  EFB4  F020         	goto	l5639
  9811   004138                     u5970:
  9812   004138  8030               	bsf	___fldiv@grs^(0+1280),0,c
  9813   00413A  EFB4  F020         	goto	l5639
  9814   00413E                     l5633:
  9815   00413E  90D8               	bcf	status,0,c
  9816   004140  361D               	rlcf	___fldiv@b^(0+1280),f,c
  9817   004142  361E               	rlcf	(___fldiv@b+1)^(0+1280),f,c
  9818   004144  361F               	rlcf	(___fldiv@b+2)^(0+1280),f,c
  9819   004146  3620               	rlcf	(___fldiv@b+3)^(0+1280),f,c
  9820   004148  AE33               	btfss	(___fldiv@grs+3)^(0+1280),7,c
  9821   00414A  EFA9  F020         	goto	u5981
  9822   00414E  EFAB  F020         	goto	u5980
  9823   004152                     u5981:
  9824   004152  EFAC  F020         	goto	l1255
  9825   004156                     u5980:
  9826   004156  801D               	bsf	___fldiv@b^(0+1280),0,c
  9827   004158                     l1255:
  9828   004158  90D8               	bcf	status,0,c
  9829   00415A  3630               	rlcf	___fldiv@grs^(0+1280),f,c
  9830   00415C  3631               	rlcf	(___fldiv@grs+1)^(0+1280),f,c
  9831   00415E  3632               	rlcf	(___fldiv@grs+2)^(0+1280),f,c
  9832   004160  3633               	rlcf	(___fldiv@grs+3)^(0+1280),f,c
  9833   004162  062E               	decf	___fldiv@new_exp^(0+1280),f,c
  9834   004164  A0D8               	btfss	status,0,c
  9835   004166  062F               	decf	(___fldiv@new_exp+1)^(0+1280),f,c
  9836   004168                     l5639:
  9837   004168  AE1F               	btfss	(___fldiv@b+2)^(0+1280),7,c
  9838   00416A  EFB9  F020         	goto	u5991
  9839   00416E  EFBB  F020         	goto	u5990
  9840   004172                     u5991:
  9841   004172  EF9F  F020         	goto	l5633
  9842   004176                     u5990:
  9843   004176  0E00               	movlw	0
  9844   004178  6E35               	movwf	___fldiv@aexp^(0+1280),c
  9845   00417A  AE33               	btfss	(___fldiv@grs+3)^(0+1280),7,c
  9846   00417C  EFC2  F020         	goto	u6001
  9847   004180  EFC4  F020         	goto	u6000
  9848   004184                     u6001:
  9849   004184  EFE8  F020         	goto	l1257
  9850   004188                     u6000:
  9851   004188  0EFF               	movlw	255
  9852   00418A  1430               	andwf	___fldiv@grs^(0+1280),w,c
  9853   00418C  6E25               	movwf	??___fldiv^(0+1280),c
  9854   00418E  0EFF               	movlw	255
  9855   004190  1431               	andwf	(___fldiv@grs+1)^(0+1280),w,c
  9856   004192  6E26               	movwf	(??___fldiv+1)^(0+1280),c
  9857   004194  0EFF               	movlw	255
  9858   004196  1432               	andwf	(___fldiv@grs+2)^(0+1280),w,c
  9859   004198  6E27               	movwf	(??___fldiv+2)^(0+1280),c
  9860   00419A  0E7F               	movlw	127
  9861   00419C  1433               	andwf	(___fldiv@grs+3)^(0+1280),w,c
  9862   00419E  6E28               	movwf	(??___fldiv+3)^(0+1280),c
  9863   0041A0  5025               	movf	??___fldiv^(0+1280),w,c
  9864   0041A2  1026               	iorwf	(??___fldiv+1)^(0+1280),w,c
  9865   0041A4  1027               	iorwf	(??___fldiv+2)^(0+1280),w,c
  9866   0041A6  1028               	iorwf	(??___fldiv+3)^(0+1280),w,c
  9867   0041A8  B4D8               	btfsc	status,2,c
  9868   0041AA  EFD9  F020         	goto	u6011
  9869   0041AE  EFDB  F020         	goto	u6010
  9870   0041B2                     u6011:
  9871   0041B2  EFDF  F020         	goto	l1258
  9872   0041B6                     u6010:
  9873   0041B6                     l5647:
  9874   0041B6  0E01               	movlw	1
  9875   0041B8  6E35               	movwf	___fldiv@aexp^(0+1280),c
  9876   0041BA  EFE8  F020         	goto	l1257
  9877   0041BE                     l1258:
  9878   0041BE  A01D               	btfss	___fldiv@b^(0+1280),0,c
  9879   0041C0  EFE4  F020         	goto	u6021
  9880   0041C4  EFE6  F020         	goto	u6020
  9881   0041C8                     u6021:
  9882   0041C8  EFE8  F020         	goto	l1257
  9883   0041CC                     u6020:
  9884   0041CC  EFDB  F020         	goto	l5647
  9885   0041D0                     l1257:
  9886   0041D0  5035               	movf	___fldiv@aexp^(0+1280),w,c
  9887   0041D2  B4D8               	btfsc	status,2,c
  9888   0041D4  EFEE  F020         	goto	u6031
  9889   0041D8  EFF0  F020         	goto	u6030
  9890   0041DC                     u6031:
  9891   0041DC  EF14  F021         	goto	l5659
  9892   0041E0                     u6030:
  9893   0041E0  0E01               	movlw	1
  9894   0041E2  261D               	addwf	___fldiv@b^(0+1280),f,c
  9895   0041E4  0E00               	movlw	0
  9896   0041E6  221E               	addwfc	(___fldiv@b+1)^(0+1280),f,c
  9897   0041E8  221F               	addwfc	(___fldiv@b+2)^(0+1280),f,c
  9898   0041EA  2220               	addwfc	(___fldiv@b+3)^(0+1280),f,c
  9899   0041EC  A020               	btfss	(___fldiv@b+3)^(0+1280),0,c
  9900   0041EE  EFFB  F020         	goto	u6041
  9901   0041F2  EFFD  F020         	goto	u6040
  9902   0041F6                     u6041:
  9903   0041F6  EF14  F021         	goto	l5659
  9904   0041FA                     u6040:
  9905   0041FA  C51D  F525         	movff	___fldiv@b,??___fldiv
  9906   0041FE  C51E  F526         	movff	___fldiv@b+1,??___fldiv+1
  9907   004202  C51F  F527         	movff	___fldiv@b+2,??___fldiv+2
  9908   004206  C520  F528         	movff	___fldiv@b+3,??___fldiv+3
  9909   00420A  3428               	rlcf	(??___fldiv+3)^(0+1280),w,c
  9910   00420C  3228               	rrcf	(??___fldiv+3)^(0+1280),f,c
  9911   00420E  3227               	rrcf	(??___fldiv+2)^(0+1280),f,c
  9912   004210  3226               	rrcf	(??___fldiv+1)^(0+1280),f,c
  9913   004212  3225               	rrcf	??___fldiv^(0+1280),f,c
  9914   004214  C525  F51D         	movff	??___fldiv,___fldiv@b
  9915   004218  C526  F51E         	movff	??___fldiv+1,___fldiv@b+1
  9916   00421C  C527  F51F         	movff	??___fldiv+2,___fldiv@b+2
  9917   004220  C528  F520         	movff	??___fldiv+3,___fldiv@b+3
  9918   004224  4A2E               	infsnz	___fldiv@new_exp^(0+1280),f,c
  9919   004226  2A2F               	incf	(___fldiv@new_exp+1)^(0+1280),f,c
  9920   004228                     l5659:
  9921   004228  BE2F               	btfsc	(___fldiv@new_exp+1)^(0+1280),7,c
  9922   00422A  EF1F  F021         	goto	u6051
  9923   00422E  502F               	movf	(___fldiv@new_exp+1)^(0+1280),w,c
  9924   004230  E108               	bnz	u6050
  9925   004232  282E               	incf	___fldiv@new_exp^(0+1280),w,c
  9926   004234  A0D8               	btfss	status,0,c
  9927   004236  EF1F  F021         	goto	u6051
  9928   00423A  EF21  F021         	goto	u6050
  9929   00423E                     u6051:
  9930   00423E  EF2C  F021         	goto	l5663
  9931   004242                     u6050:
  9932   004242  0E00               	movlw	0
  9933   004244  6E2F               	movwf	(___fldiv@new_exp+1)^(0+1280),c
  9934   004246  682E               	setf	___fldiv@new_exp^(0+1280),c
  9935   004248  0E00               	movlw	0
  9936   00424A  6E1D               	movwf	___fldiv@b^(0+1280),c
  9937   00424C  0E00               	movlw	0
  9938   00424E  6E1E               	movwf	(___fldiv@b+1)^(0+1280),c
  9939   004250  0E00               	movlw	0
  9940   004252  6E1F               	movwf	(___fldiv@b+2)^(0+1280),c
  9941   004254  0E00               	movlw	0
  9942   004256  6E20               	movwf	(___fldiv@b+3)^(0+1280),c
  9943   004258                     l5663:
  9944   004258  BE2F               	btfsc	(___fldiv@new_exp+1)^(0+1280),7,c
  9945   00425A  EF39  F021         	goto	u6060
  9946   00425E  502F               	movf	(___fldiv@new_exp+1)^(0+1280),w,c
  9947   004260  E106               	bnz	u6061
  9948   004262  042E               	decf	___fldiv@new_exp^(0+1280),w,c
  9949   004264  B0D8               	btfsc	status,0,c
  9950   004266  EF37  F021         	goto	u6061
  9951   00426A  EF39  F021         	goto	u6060
  9952   00426E                     u6061:
  9953   00426E  EF47  F021         	goto	l5667
  9954   004272                     u6060:
  9955   004272  0E00               	movlw	0
  9956   004274  6E2F               	movwf	(___fldiv@new_exp+1)^(0+1280),c
  9957   004276  0E00               	movlw	0
  9958   004278  6E2E               	movwf	___fldiv@new_exp^(0+1280),c
  9959   00427A  0E00               	movlw	0
  9960   00427C  6E1D               	movwf	___fldiv@b^(0+1280),c
  9961   00427E  0E00               	movlw	0
  9962   004280  6E1E               	movwf	(___fldiv@b+1)^(0+1280),c
  9963   004282  0E00               	movlw	0
  9964   004284  6E1F               	movwf	(___fldiv@b+2)^(0+1280),c
  9965   004286  0E00               	movlw	0
  9966   004288  6E20               	movwf	(___fldiv@b+3)^(0+1280),c
  9967   00428A  0E00               	movlw	0
  9968   00428C  6E2D               	movwf	___fldiv@sign^(0+1280),c
  9969   00428E                     l5667:
  9970   00428E  C52E  F534         	movff	___fldiv@new_exp,___fldiv@bexp
  9971   004292  A034               	btfss	___fldiv@bexp^(0+1280),0,c
  9972   004294  EF4E  F021         	goto	u6071
  9973   004298  EF50  F021         	goto	u6070
  9974   00429C                     u6071:
  9975   00429C  EF53  F021         	goto	l5673
  9976   0042A0                     u6070:
  9977   0042A0  8E1F               	bsf	(___fldiv@b+2)^(0+1280),7,c
  9978   0042A2  EF54  F021         	goto	l5675
  9979   0042A6                     l5673:
  9980   0042A6  9E1F               	bcf	(___fldiv@b+2)^(0+1280),7,c
  9981   0042A8                     l5675:
  9982   0042A8  90D8               	bcf	status,0,c
  9983   0042AA  3034               	rrcf	___fldiv@bexp^(0+1280),w,c
  9984   0042AC  6E20               	movwf	(___fldiv@b+3)^(0+1280),c
  9985   0042AE  EF0A  F020         	goto	l5589
  9986   0042B2                     l1244:
  9987   0042B2  0012               	return		;funcret
  9988   0042B4                     __end_of___fldiv:
  9989                           	callstack 0
  9990                           
  9991 ;; *************** function _DHT11_Start *****************
  9992 ;; Defined at:
  9993 ;;		line 11 in file "dht11.c"
  9994 ;; Parameters:    Size  Location     Type
  9995 ;;		None
  9996 ;; Auto vars:     Size  Location     Type
  9997 ;;		None
  9998 ;; Return value:  Size  Location     Type
  9999 ;;                  1    wreg      void 
 10000 ;; Registers used:
 10001 ;;		wreg
 10002 ;; Tracked objects:
 10003 ;;		On entry : 0/0
 10004 ;;		On exit  : 0/0
 10005 ;;		Unchanged: 0/0
 10006 ;; Data sizes:     COMRAM   BANK5   BANK6   BANK7   BANK8   BANK9  BANK10  BANK11  BANK12  BANK13  BANK14  BANK15  BANK1
      +6  BANK17  BANK18  BANK19  BANK20  BANK21  BANK22  BANK23  BANK24  BANK25  BANK26  BANK27  BANK28  BANK29  BANK30  BANK3
      +1  BANK32  BANK33  BANK34  BANK35  BANK36
 10007 ;;      Params:         0       0       0       0       0       0       0       0       0       0       0       0       
      +0       0       0       0       0       0       0       0       0       0       0       0       0       0       0       
      +0       0       0       0       0       0
 10008 ;;      Locals:         0       0       0       0       0       0       0       0       0       0       0       0       
      +0       0       0       0       0       0       0       0       0       0       0       0       0       0       0       
      +0       0       0       0       0       0
 10009 ;;      Temps:          2       0       0       0       0       0       0       0       0       0       0       0       
      +0       0       0       0       0       0       0       0       0       0       0       0       0       0       0       
      +0       0       0       0       0       0
 10010 ;;      Totals:         2       0       0       0       0       0       0       0       0       0       0       0       
      +0       0       0       0       0       0       0       0       0       0       0       0       0       0       0       
      +0       0       0       0       0       0
 10011 ;;Total ram usage:        2 bytes
 10012 ;; Hardware stack levels used: 1
 10013 ;; Hardware stack levels required when called: 4
 10014 ;; This function calls:
 10015 ;;		Nothing
 10016 ;; This function is called by:
 10017 ;;		_DHT11_Read_Data
 10018 ;; This function uses a non-reentrant model
 10019 ;;
 10020                           
 10021                           	psect	text46
 10022   005DA0                     __ptext46:
 10023                           	callstack 0
 10024   005DA0                     _DHT11_Start:
 10025                           	callstack 121
 10026   005DA0                     
 10027                           ;dht11.c: 13:     TRISEbits.TRISE0 = 0;
 10028   005DA0  90CA               	bcf	202,0,c	;volatile
 10029                           
 10030                           ;dht11.c: 14:     LATEbits.LATE0 = 0;
 10031   005DA2  90C2               	bcf	194,0,c	;volatile
 10032   005DA4                     
 10033                           ;dht11.c: 15:     _delay((unsigned long)((20)*(64000000UL/4000.0)));
 10034   005DA4  0E02               	movlw	2
 10035   005DA6  6E04               	movwf	(??_DHT11_Start+1)^(0+1280),c
 10036   005DA8  0EA0               	movlw	160
 10037   005DAA  6E03               	movwf	??_DHT11_Start^(0+1280),c
 10038   005DAC  0E92               	movlw	146
 10039   005DAE                     u7597:
 10040   005DAE  2EE8               	decfsz	wreg,f,c
 10041   005DB0  D7FE               	bra	u7597
 10042   005DB2  2E03               	decfsz	??_DHT11_Start^(0+1280),f,c
 10043   005DB4  D7FC               	bra	u7597
 10044   005DB6  2E04               	decfsz	(??_DHT11_Start+1)^(0+1280),f,c
 10045   005DB8  D7FA               	bra	u7597
 10046   005DBA  D000               	nop2	
 10047   005DBC                     
 10048                           ;dht11.c: 16:     LATEbits.LATE0 = 1;
 10049   005DBC  80C2               	bsf	194,0,c	;volatile
 10050                           
 10051                           ;dht11.c: 17:     _delay((unsigned long)((30)*(64000000UL/4000000.0)));
 10052   005DBE  0EA0               	movlw	160
 10053   005DC0                     u7607:
 10054   005DC0  2EE8               	decfsz	wreg,f,c
 10055   005DC2  D7FE               	bra	u7607
 10056   005DC4                     
 10057                           ;dht11.c: 18:     TRISEbits.TRISE0 = 1;
 10058   005DC4  80CA               	bsf	202,0,c	;volatile
 10059   005DC6  0012               	return		;funcret
 10060   005DC8                     __end_of_DHT11_Start:
 10061                           	callstack 0
 10062                           
 10063 ;; *************** function _DHT11_Response *****************
 10064 ;; Defined at:
 10065 ;;		line 21 in file "dht11.c"
 10066 ;; Parameters:    Size  Location     Type
 10067 ;;		None
 10068 ;; Auto vars:     Size  Location     Type
 10069 ;;		None
 10070 ;; Return value:  Size  Location     Type
 10071 ;;                  1    wreg      void 
 10072 ;; Registers used:
 10073 ;;		None
 10074 ;; Tracked objects:
 10075 ;;		On entry : 0/0
 10076 ;;		On exit  : 0/0
 10077 ;;		Unchanged: 0/0
 10078 ;; Data sizes:     COMRAM   BANK5   BANK6   BANK7   BANK8   BANK9  BANK10  BANK11  BANK12  BANK13  BANK14  BANK15  BANK1
      +6  BANK17  BANK18  BANK19  BANK20  BANK21  BANK22  BANK23  BANK24  BANK25  BANK26  BANK27  BANK28  BANK29  BANK30  BANK3
      +1  BANK32  BANK33  BANK34  BANK35  BANK36
 10079 ;;      Params:         0       0       0       0       0       0       0       0       0       0       0       0       
      +0       0       0       0       0       0       0       0       0       0       0       0       0       0       0       
      +0       0       0       0       0       0
 10080 ;;      Locals:         0       0       0       0       0       0       0       0       0       0       0       0       
      +0       0       0       0       0       0       0       0       0       0       0       0       0       0       0       
      +0       0       0       0       0       0
 10081 ;;      Temps:          0       0       0       0       0       0       0       0       0       0       0       0       
      +0       0       0       0       0       0       0       0       0       0       0       0       0       0       0       
      +0       0       0       0       0       0
 10082 ;;      Totals:         0       0       0       0       0       0       0       0       0       0       0       0       
      +0       0       0       0       0       0       0       0       0       0       0       0       0       0       0       
      +0       0       0       0       0       0
 10083 ;;Total ram usage:        0 bytes
 10084 ;; Hardware stack levels used: 1
 10085 ;; Hardware stack levels required when called: 4
 10086 ;; This function calls:
 10087 ;;		Nothing
 10088 ;; This function is called by:
 10089 ;;		_DHT11_Read_Data
 10090 ;; This function uses a non-reentrant model
 10091 ;;
 10092                           
 10093                           	psect	text47
 10094   005D22                     __ptext47:
 10095                           	callstack 0
 10096   005D22                     _DHT11_Response:
 10097                           	callstack 121
 10098   005D22                     l626:
 10099   005D22  B0D2               	btfsc	210,0,c	;volatile
 10100   005D24  EF96  F02E         	goto	u4751
 10101   005D28  EF98  F02E         	goto	u4750
 10102   005D2C                     u4751:
 10103   005D2C  EF91  F02E         	goto	l626
 10104   005D30                     u4750:
 10105   005D30                     l629:
 10106   005D30  A0D2               	btfss	210,0,c	;volatile
 10107   005D32  EF9D  F02E         	goto	u4761
 10108   005D36  EF9F  F02E         	goto	u4760
 10109   005D3A                     u4761:
 10110   005D3A  EF98  F02E         	goto	l629
 10111   005D3E                     u4760:
 10112   005D3E                     l632:
 10113   005D3E  B0D2               	btfsc	210,0,c	;volatile
 10114   005D40  EFA4  F02E         	goto	u4771
 10115   005D44  EFA6  F02E         	goto	u4770
 10116   005D48                     u4771:
 10117   005D48  EF9F  F02E         	goto	l632
 10118   005D4C                     u4770:
 10119   005D4C  0012               	return		;funcret
 10120   005D4E                     __end_of_DHT11_Response:
 10121                           	callstack 0
 10122                           
 10123 ;; *************** function _DHT11_Read_Byte *****************
 10124 ;; Defined at:
 10125 ;;		line 28 in file "dht11.c"
 10126 ;; Parameters:    Size  Location     Type
 10127 ;;		None
 10128 ;; Auto vars:     Size  Location     Type
 10129 ;;  data            2    8[COMRAM] int 
 10130 ;;  i               2    6[COMRAM] int 
 10131 ;; Return value:  Size  Location     Type
 10132 ;;                  2    2[COMRAM] int 
 10133 ;; Registers used:
 10134 ;;		wreg, status,2, status,0
 10135 ;; Tracked objects:
 10136 ;;		On entry : 0/0
 10137 ;;		On exit  : 0/0
 10138 ;;		Unchanged: 0/0
 10139 ;; Data sizes:     COMRAM   BANK5   BANK6   BANK7   BANK8   BANK9  BANK10  BANK11  BANK12  BANK13  BANK14  BANK15  BANK1
      +6  BANK17  BANK18  BANK19  BANK20  BANK21  BANK22  BANK23  BANK24  BANK25  BANK26  BANK27  BANK28  BANK29  BANK30  BANK3
      +1  BANK32  BANK33  BANK34  BANK35  BANK36
 10140 ;;      Params:         2       0       0       0       0       0       0       0       0       0       0       0       
      +0       0       0       0       0       0       0       0       0       0       0       0       0       0       0       
      +0       0       0       0       0       0
 10141 ;;      Locals:         4       0       0       0       0       0       0       0       0       0       0       0       
      +0       0       0       0       0       0       0       0       0       0       0       0       0       0       0       
      +0       0       0       0       0       0
 10142 ;;      Temps:          2       0       0       0       0       0       0       0       0       0       0       0       
      +0       0       0       0       0       0       0       0       0       0       0       0       0       0       0       
      +0       0       0       0       0       0
 10143 ;;      Totals:         8       0       0       0       0       0       0       0       0       0       0       0       
      +0       0       0       0       0       0       0       0       0       0       0       0       0       0       0       
      +0       0       0       0       0       0
 10144 ;;Total ram usage:        8 bytes
 10145 ;; Hardware stack levels used: 1
 10146 ;; Hardware stack levels required when called: 4
 10147 ;; This function calls:
 10148 ;;		Nothing
 10149 ;; This function is called by:
 10150 ;;		_DHT11_Read_Data
 10151 ;; This function uses a non-reentrant model
 10152 ;;
 10153                           
 10154                           	psect	text48
 10155   005726                     __ptext48:
 10156                           	callstack 0
 10157   005726                     _DHT11_Read_Byte:
 10158                           	callstack 121
 10159   005726                     
 10160                           ;dht11.c: 30:     int i,data = 0;
 10161   005726  0E00               	movlw	0
 10162   005728  6E0A               	movwf	(DHT11_Read_Byte@data+1)^(0+1280),c
 10163   00572A  0E00               	movlw	0
 10164   00572C  6E09               	movwf	DHT11_Read_Byte@data^(0+1280),c
 10165                           
 10166                           ;dht11.c: 31:     for(i=0;i<8;i++){
 10167   00572E  0E00               	movlw	0
 10168   005730  6E08               	movwf	(DHT11_Read_Byte@i+1)^(0+1280),c
 10169   005732  0E00               	movlw	0
 10170   005734  6E07               	movwf	DHT11_Read_Byte@i^(0+1280),c
 10171   005736                     l640:
 10172   005736  A0D2               	btfss	210,0,c	;volatile
 10173   005738  EFA0  F02B         	goto	u4781
 10174   00573C  EFA2  F02B         	goto	u4780
 10175   005740                     u4781:
 10176   005740  EF9B  F02B         	goto	l640
 10177   005744                     u4780:
 10178   005744                     
 10179                           ;dht11.c: 33:         _delay((unsigned long)((30)*(64000000UL/4000000.0)));
 10180   005744  0EA0               	movlw	160
 10181   005746                     u7617:
 10182   005746  2EE8               	decfsz	wreg,f,c
 10183   005748  D7FE               	bra	u7617
 10184   00574A                     
 10185                           ;dht11.c: 34:         if((PORTEbits.RE0) == 1){
 10186   00574A  A0D2               	btfss	210,0,c	;volatile
 10187   00574C  EFAA  F02B         	goto	u4791
 10188   005750  EFAC  F02B         	goto	u4790
 10189   005754                     u4791:
 10190   005754  EFBA  F02B         	goto	l4787
 10191   005758                     u4790:
 10192   005758                     
 10193                           ;dht11.c: 35:             data = ((data<<1) | 1);
 10194   005758  0E01               	movlw	1
 10195   00575A  C509  F505         	movff	DHT11_Read_Byte@data,??_DHT11_Read_Byte
 10196   00575E  C50A  F506         	movff	DHT11_Read_Byte@data+1,??_DHT11_Read_Byte+1
 10197   005762  90D8               	bcf	status,0,c
 10198   005764  3605               	rlcf	??_DHT11_Read_Byte^(0+1280),f,c
 10199   005766  3606               	rlcf	(??_DHT11_Read_Byte+1)^(0+1280),f,c
 10200   005768  1005               	iorwf	??_DHT11_Read_Byte^(0+1280),w,c
 10201   00576A  6E09               	movwf	DHT11_Read_Byte@data^(0+1280),c
 10202   00576C  5006               	movf	(??_DHT11_Read_Byte+1)^(0+1280),w,c
 10203   00576E  6E0A               	movwf	(DHT11_Read_Byte@data+1)^(0+1280),c
 10204                           
 10205                           ;dht11.c: 36:         }else{
 10206   005770  EFBF  F02B         	goto	l645
 10207   005774                     l4787:
 10208                           
 10209                           ;dht11.c: 37:             data = (data<<1);
 10210   005774  90D8               	bcf	status,0,c
 10211   005776  3409               	rlcf	DHT11_Read_Byte@data^(0+1280),w,c
 10212   005778  6E09               	movwf	DHT11_Read_Byte@data^(0+1280),c
 10213   00577A  340A               	rlcf	(DHT11_Read_Byte@data+1)^(0+1280),w,c
 10214   00577C  6E0A               	movwf	(DHT11_Read_Byte@data+1)^(0+1280),c
 10215   00577E                     l645:
 10216   00577E  B0D2               	btfsc	210,0,c	;volatile
 10217   005780  EFC4  F02B         	goto	u4801
 10218   005784  EFC6  F02B         	goto	u4800
 10219   005788                     u4801:
 10220   005788  EFBF  F02B         	goto	l645
 10221   00578C                     u4800:
 10222   00578C                     
 10223                           ;dht11.c: 40:     }
 10224   00578C  4A07               	infsnz	DHT11_Read_Byte@i^(0+1280),f,c
 10225   00578E  2A08               	incf	(DHT11_Read_Byte@i+1)^(0+1280),f,c
 10226   005790  BE08               	btfsc	(DHT11_Read_Byte@i+1)^(0+1280),7,c
 10227   005792  EFD4  F02B         	goto	u4811
 10228   005796  5008               	movf	(DHT11_Read_Byte@i+1)^(0+1280),w,c
 10229   005798  E109               	bnz	u4810
 10230   00579A  0E08               	movlw	8
 10231   00579C  5C07               	subwf	DHT11_Read_Byte@i^(0+1280),w,c
 10232   00579E  A0D8               	btfss	status,0,c
 10233   0057A0  EFD4  F02B         	goto	u4811
 10234   0057A4  EFD6  F02B         	goto	u4810
 10235   0057A8                     u4811:
 10236   0057A8  EF9B  F02B         	goto	l640
 10237   0057AC                     u4810:
 10238   0057AC                     
 10239                           ;dht11.c: 41:     return data;
 10240   0057AC  C509  F503         	movff	DHT11_Read_Byte@data,?_DHT11_Read_Byte
 10241   0057B0  C50A  F504         	movff	DHT11_Read_Byte@data+1,?_DHT11_Read_Byte+1
 10242   0057B4  0012               	return		;funcret
 10243   0057B6                     __end_of_DHT11_Read_Byte:
 10244                           	callstack 0
 10245                           
 10246 ;; *************** function _DHT11_Join_Data *****************
 10247 ;; Defined at:
 10248 ;;		line 65 in file "dht11.c"
 10249 ;; Parameters:    Size  Location     Type
 10250 ;;  h               2    8[COMRAM] unsigned int 
 10251 ;;  l               2   10[COMRAM] unsigned int 
 10252 ;; Auto vars:     Size  Location     Type
 10253 ;;  pow             2   12[COMRAM] unsigned int 
 10254 ;; Return value:  Size  Location     Type
 10255 ;;                  2    8[COMRAM] unsigned int 
 10256 ;; Registers used:
 10257 ;;		wreg, status,2, status,0, prodl, prodh, cstack
 10258 ;; Tracked objects:
 10259 ;;		On entry : 0/0
 10260 ;;		On exit  : 0/0
 10261 ;;		Unchanged: 0/0
 10262 ;; Data sizes:     COMRAM   BANK5   BANK6   BANK7   BANK8   BANK9  BANK10  BANK11  BANK12  BANK13  BANK14  BANK15  BANK1
      +6  BANK17  BANK18  BANK19  BANK20  BANK21  BANK22  BANK23  BANK24  BANK25  BANK26  BANK27  BANK28  BANK29  BANK30  BANK3
      +1  BANK32  BANK33  BANK34  BANK35  BANK36
 10263 ;;      Params:         4       0       0       0       0       0       0       0       0       0       0       0       
      +0       0       0       0       0       0       0       0       0       0       0       0       0       0       0       
      +0       0       0       0       0       0
 10264 ;;      Locals:         2       0       0       0       0       0       0       0       0       0       0       0       
      +0       0       0       0       0       0       0       0       0       0       0       0       0       0       0       
      +0       0       0       0       0       0
 10265 ;;      Temps:          0       0       0       0       0       0       0       0       0       0       0       0       
      +0       0       0       0       0       0       0       0       0       0       0       0       0       0       0       
      +0       0       0       0       0       0
 10266 ;;      Totals:         6       0       0       0       0       0       0       0       0       0       0       0       
      +0       0       0       0       0       0       0       0       0       0       0       0       0       0       0       
      +0       0       0       0       0       0
 10267 ;;Total ram usage:        6 bytes
 10268 ;; Hardware stack levels used: 1
 10269 ;; Hardware stack levels required when called: 5
 10270 ;; This function calls:
 10271 ;;		___wmul
 10272 ;; This function is called by:
 10273 ;;		_DHT11_Read_Data
 10274 ;; This function uses a non-reentrant model
 10275 ;;
 10276                           
 10277                           	psect	text49
 10278   005890                     __ptext49:
 10279                           	callstack 0
 10280   005890                     _DHT11_Join_Data:
 10281                           	callstack 120
 10282   005890                     
 10283                           ;dht11.c: 65: unsigned DHT11_Join_Data(unsigned h, unsigned l);dht11.c: 66: {;dht11.c: 6
      +                          7:     unsigned pow = 10;
 10284   005890  0E00               	movlw	0
 10285   005892  6E0E               	movwf	(DHT11_Join_Data@pow+1)^(0+1280),c
 10286   005894  0E0A               	movlw	10
 10287   005896  6E0D               	movwf	DHT11_Join_Data@pow^(0+1280),c
 10288                           
 10289                           ;dht11.c: 68:     while(l >= pow)
 10290   005898  EF5C  F02C         	goto	l6491
 10291   00589C                     l6489:
 10292                           
 10293                           ;dht11.c: 69:         pow *= 10;
 10294   00589C  C50D  F503         	movff	DHT11_Join_Data@pow,___wmul@multiplier
 10295   0058A0  C50E  F504         	movff	DHT11_Join_Data@pow+1,___wmul@multiplier+1
 10296   0058A4  0E00               	movlw	0
 10297   0058A6  6E06               	movwf	(___wmul@multiplicand+1)^(0+1280),c
 10298   0058A8  0E0A               	movlw	10
 10299   0058AA  6E05               	movwf	___wmul@multiplicand^(0+1280),c
 10300   0058AC  ECE4  F02E         	call	___wmul	;wreg free
 10301   0058B0  C503  F50D         	movff	?___wmul,DHT11_Join_Data@pow
 10302   0058B4  C504  F50E         	movff	?___wmul+1,DHT11_Join_Data@pow+1
 10303   0058B8                     l6491:
 10304                           
 10305                           ;dht11.c: 68:     while(l >= pow)
 10306   0058B8  500D               	movf	DHT11_Join_Data@pow^(0+1280),w,c
 10307   0058BA  5C0B               	subwf	DHT11_Join_Data@l^(0+1280),w,c
 10308   0058BC  500E               	movf	(DHT11_Join_Data@pow+1)^(0+1280),w,c
 10309   0058BE  580C               	subwfb	(DHT11_Join_Data@l+1)^(0+1280),w,c
 10310   0058C0  B0D8               	btfsc	status,0,c
 10311   0058C2  EF65  F02C         	goto	u7351
 10312   0058C6  EF67  F02C         	goto	u7350
 10313   0058CA                     u7351:
 10314   0058CA  EF4E  F02C         	goto	l6489
 10315   0058CE                     u7350:
 10316   0058CE                     
 10317                           ;dht11.c: 70:     return h * pow + l;
 10318   0058CE  C509  F503         	movff	DHT11_Join_Data@h,___wmul@multiplier
 10319   0058D2  C50A  F504         	movff	DHT11_Join_Data@h+1,___wmul@multiplier+1
 10320   0058D6  C50D  F505         	movff	DHT11_Join_Data@pow,___wmul@multiplicand
 10321   0058DA  C50E  F506         	movff	DHT11_Join_Data@pow+1,___wmul@multiplicand+1
 10322   0058DE  ECE4  F02E         	call	___wmul	;wreg free
 10323   0058E2  500B               	movf	DHT11_Join_Data@l^(0+1280),w,c
 10324   0058E4  2403               	addwf	?___wmul^(0+1280),w,c
 10325   0058E6  6E09               	movwf	?_DHT11_Join_Data^(0+1280),c
 10326   0058E8  500C               	movf	(DHT11_Join_Data@l+1)^(0+1280),w,c
 10327   0058EA  2004               	addwfc	(?___wmul+1)^(0+1280),w,c
 10328   0058EC  6E0A               	movwf	(?_DHT11_Join_Data+1)^(0+1280),c
 10329   0058EE  0012               	return		;funcret
 10330   0058F0                     __end_of_DHT11_Join_Data:
 10331                           	callstack 0
 10332                           
 10333 ;; *************** function ___wmul *****************
 10334 ;; Defined at:
 10335 ;;		line 15 in file "C:\Program Files\Microchip\xc8\v2.40\pic\sources\c99\common\Umul16.c"
 10336 ;; Parameters:    Size  Location     Type
 10337 ;;  multiplier      2    2[COMRAM] unsigned int 
 10338 ;;  multiplicand    2    4[COMRAM] unsigned int 
 10339 ;; Auto vars:     Size  Location     Type
 10340 ;;  product         2    6[COMRAM] unsigned int 
 10341 ;; Return value:  Size  Location     Type
 10342 ;;                  2    2[COMRAM] unsigned int 
 10343 ;; Registers used:
 10344 ;;		wreg, status,2, status,0, prodl, prodh
 10345 ;; Tracked objects:
 10346 ;;		On entry : 0/0
 10347 ;;		On exit  : 0/0
 10348 ;;		Unchanged: 0/0
 10349 ;; Data sizes:     COMRAM   BANK5   BANK6   BANK7   BANK8   BANK9  BANK10  BANK11  BANK12  BANK13  BANK14  BANK15  BANK1
      +6  BANK17  BANK18  BANK19  BANK20  BANK21  BANK22  BANK23  BANK24  BANK25  BANK26  BANK27  BANK28  BANK29  BANK30  BANK3
      +1  BANK32  BANK33  BANK34  BANK35  BANK36
 10350 ;;      Params:         4       0       0       0       0       0       0       0       0       0       0       0       
      +0       0       0       0       0       0       0       0       0       0       0       0       0       0       0       
      +0       0       0       0       0       0
 10351 ;;      Locals:         2       0       0       0       0       0       0       0       0       0       0       0       
      +0       0       0       0       0       0       0       0       0       0       0       0       0       0       0       
      +0       0       0       0       0       0
 10352 ;;      Temps:          0       0       0       0       0       0       0       0       0       0       0       0       
      +0       0       0       0       0       0       0       0       0       0       0       0       0       0       0       
      +0       0       0       0       0       0
 10353 ;;      Totals:         6       0       0       0       0       0       0       0       0       0       0       0       
      +0       0       0       0       0       0       0       0       0       0       0       0       0       0       0       
      +0       0       0       0       0       0
 10354 ;;Total ram usage:        6 bytes
 10355 ;; Hardware stack levels used: 1
 10356 ;; Hardware stack levels required when called: 4
 10357 ;; This function calls:
 10358 ;;		Nothing
 10359 ;; This function is called by:
 10360 ;;		_DHT11_Join_Data
 10361 ;;		_atoi
 10362 ;; This function uses a non-reentrant model
 10363 ;;
 10364                           
 10365                           	psect	text50
 10366   005DC8                     __ptext50:
 10367                           	callstack 0
 10368   005DC8                     ___wmul:
 10369                           	callstack 118
 10370   005DC8  5003               	movf	___wmul@multiplier^(0+1280),w,c
 10371   005DCA  0205               	mulwf	___wmul@multiplicand^(0+1280),c
 10372   005DCC  C4F3 F507          	movff	prodl,___wmul@product
 10373   005DD0  C4F4 F508          	movff	prodh,___wmul@product+1
 10374   005DD4  5003               	movf	___wmul@multiplier^(0+1280),w,c
 10375   005DD6  0206               	mulwf	(___wmul@multiplicand+1)^(0+1280),c
 10376   005DD8  50F3               	movf	243,w,c
 10377   005DDA  2608               	addwf	(___wmul@product+1)^(0+1280),f,c
 10378   005DDC  5004               	movf	(___wmul@multiplier+1)^(0+1280),w,c
 10379   005DDE  0205               	mulwf	___wmul@multiplicand^(0+1280),c
 10380   005DE0  50F3               	movf	243,w,c
 10381   005DE2  2608               	addwf	(___wmul@product+1)^(0+1280),f,c
 10382   005DE4  C507  F503         	movff	___wmul@product,?___wmul
 10383   005DE8  C508  F504         	movff	___wmul@product+1,?___wmul+1
 10384   005DEC  0012               	return		;funcret
 10385   005DEE                     __end_of___wmul:
 10386                           	callstack 0
 10387                           
 10388 ;; *************** function _ADCC_GetSingleConversion *****************
 10389 ;; Defined at:
 10390 ;;		line 137 in file "mcc_generated_files/adcc.c"
 10391 ;; Parameters:    Size  Location     Type
 10392 ;;  channel         1    wreg     enum E16691
 10393 ;; Auto vars:     Size  Location     Type
 10394 ;;  channel         1    6[COMRAM] enum E16691
 10395 ;; Return value:  Size  Location     Type
 10396 ;;                  2    2[COMRAM] unsigned short 
 10397 ;; Registers used:
 10398 ;;		wreg, status,2, status,0
 10399 ;; Tracked objects:
 10400 ;;		On entry : 0/0
 10401 ;;		On exit  : 0/0
 10402 ;;		Unchanged: 0/0
 10403 ;; Data sizes:     COMRAM   BANK5   BANK6   BANK7   BANK8   BANK9  BANK10  BANK11  BANK12  BANK13  BANK14  BANK15  BANK1
      +6  BANK17  BANK18  BANK19  BANK20  BANK21  BANK22  BANK23  BANK24  BANK25  BANK26  BANK27  BANK28  BANK29  BANK30  BANK3
      +1  BANK32  BANK33  BANK34  BANK35  BANK36
 10404 ;;      Params:         2       0       0       0       0       0       0       0       0       0       0       0       
      +0       0       0       0       0       0       0       0       0       0       0       0       0       0       0       
      +0       0       0       0       0       0
 10405 ;;      Locals:         1       0       0       0       0       0       0       0       0       0       0       0       
      +0       0       0       0       0       0       0       0       0       0       0       0       0       0       0       
      +0       0       0       0       0       0
 10406 ;;      Temps:          2       0       0       0       0       0       0       0       0       0       0       0       
      +0       0       0       0       0       0       0       0       0       0       0       0       0       0       0       
      +0       0       0       0       0       0
 10407 ;;      Totals:         5       0       0       0       0       0       0       0       0       0       0       0       
      +0       0       0       0       0       0       0       0       0       0       0       0       0       0       0       
      +0       0       0       0       0       0
 10408 ;;Total ram usage:        5 bytes
 10409 ;; Hardware stack levels used: 1
 10410 ;; Hardware stack levels required when called: 4
 10411 ;; This function calls:
 10412 ;;		Nothing
 10413 ;; This function is called by:
 10414 ;;		_main
 10415 ;; This function uses a non-reentrant model
 10416 ;;
 10417                           
 10418                           	psect	text51
 10419   005CC6                     __ptext51:
 10420                           	callstack 0
 10421   005CC6                     _ADCC_GetSingleConversion:
 10422                           	callstack 122
 10423                           
 10424                           ;incstack = 0
 10425                           ;ADCC_GetSingleConversion@channel stored from wreg
 10426   005CC6  6E07               	movwf	ADCC_GetSingleConversion@channel^(0+1280),c
 10427   005CC8                     
 10428                           ;mcc_generated_files/adcc.c: 137: adc_result_t ADCC_GetSingleConversion(adcc_channel_t c
      +                          hannel);mcc_generated_files/adcc.c: 138: {;mcc_generated_files/adcc.c: 140:     ADPCH = 
      +                          channel;
 10429   005CC8  C507  F3EC         	movff	ADCC_GetSingleConversion@channel,1004	;volatile
 10430   005CCC                     
 10431                           ;mcc_generated_files/adcc.c: 143:     ADCON0bits.ADON = 1;
 10432   005CCC  0103               	movlb	3	; () banked
 10433   005CCE  8FF3               	bsf	243,7,b	;volatile
 10434   005CD0                     
 10435                           ; BSR set to: 3
 10436                           ;mcc_generated_files/adcc.c: 146:     ADCON0bits.ADCONT = 0;
 10437   005CD0  9DF3               	bcf	243,6,b	;volatile
 10438   005CD2                     
 10439                           ; BSR set to: 3
 10440                           ;mcc_generated_files/adcc.c: 149:     ADCON0bits.ADGO = 1;
 10441   005CD2  81F3               	bsf	243,0,b	;volatile
 10442   005CD4                     l362:
 10443                           
 10444                           ; BSR set to: 3
 10445                           ;mcc_generated_files/adcc.c: 153:     while (ADCON0bits.ADGO)
 10446   005CD4  B1F3               	btfsc	243,0,b	;volatile
 10447   005CD6  EF6F  F02E         	goto	u5011
 10448   005CDA  EF71  F02E         	goto	u5010
 10449   005CDE                     u5011:
 10450   005CDE  EF6A  F02E         	goto	l362
 10451   005CE2                     u5010:
 10452   005CE2                     
 10453                           ; BSR set to: 3
 10454                           ;mcc_generated_files/adcc.c: 159:     return ((adc_result_t)((ADRESH << 8) + ADRESL));
 10455   005CE2  51EB               	movf	235,w,b	;volatile
 10456   005CE4  6E06               	movwf	(??_ADCC_GetSingleConversion+1)^(0+1280),c
 10457   005CE6  6A05               	clrf	??_ADCC_GetSingleConversion^(0+1280),c
 10458   005CE8  51EA               	movf	234,w,b	;volatile
 10459   005CEA  2405               	addwf	??_ADCC_GetSingleConversion^(0+1280),w,c
 10460   005CEC  6E03               	movwf	?_ADCC_GetSingleConversion^(0+1280),c
 10461   005CEE  0E00               	movlw	0
 10462   005CF0  2006               	addwfc	(??_ADCC_GetSingleConversion+1)^(0+1280),w,c
 10463   005CF2  6E04               	movwf	(?_ADCC_GetSingleConversion+1)^(0+1280),c
 10464   005CF4                     
 10465                           ; BSR set to: 3
 10466   005CF4  0012               	return		;funcret
 10467   005CF6                     __end_of_ADCC_GetSingleConversion:
 10468                           	callstack 0
 10469                           
 10470 ;; *************** function _INTERRUPT_InterruptManager *****************
 10471 ;; Defined at:
 10472 ;;		line 59 in file "mcc_generated_files/interrupt_manager.c"
 10473 ;; Parameters:    Size  Location     Type
 10474 ;;		None
 10475 ;; Auto vars:     Size  Location     Type
 10476 ;;		None
 10477 ;; Return value:  Size  Location     Type
 10478 ;;                  1    wreg      void 
 10479 ;; Registers used:
 10480 ;;		wreg, status,2, status,0, pcl, pclath, pclatu, tosl, cstack
 10481 ;; Tracked objects:
 10482 ;;		On entry : 0/0
 10483 ;;		On exit  : 0/0
 10484 ;;		Unchanged: 0/0
 10485 ;; Data sizes:     COMRAM   BANK5   BANK6   BANK7   BANK8   BANK9  BANK10  BANK11  BANK12  BANK13  BANK14  BANK15  BANK1
      +6  BANK17  BANK18  BANK19  BANK20  BANK21  BANK22  BANK23  BANK24  BANK25  BANK26  BANK27  BANK28  BANK29  BANK30  BANK3
      +1  BANK32  BANK33  BANK34  BANK35  BANK36
 10486 ;;      Params:         0       0       0       0       0       0       0       0       0       0       0       0       
      +0       0       0       0       0       0       0       0       0       0       0       0       0       0       0       
      +0       0       0       0       0       0
 10487 ;;      Locals:         0       0       0       0       0       0       0       0       0       0       0       0       
      +0       0       0       0       0       0       0       0       0       0       0       0       0       0       0       
      +0       0       0       0       0       0
 10488 ;;      Temps:          2       0       0       0       0       0       0       0       0       0       0       0       
      +0       0       0       0       0       0       0       0       0       0       0       0       0       0       0       
      +0       0       0       0       0       0
 10489 ;;      Totals:         2       0       0       0       0       0       0       0       0       0       0       0       
      +0       0       0       0       0       0       0       0       0       0       0       0       0       0       0       
      +0       0       0       0       0       0
 10490 ;;Total ram usage:        2 bytes
 10491 ;; Hardware stack levels used: 1
 10492 ;; Hardware stack levels required when called: 3
 10493 ;; This function calls:
 10494 ;;		_TMR0_ISR
 10495 ;; This function is called by:
 10496 ;;		Interrupt level 2
 10497 ;; This function uses a non-reentrant model
 10498 ;;
 10499                           
 10500                           	psect	text52
 10501   005C32                     __ptext52:
 10502                           	callstack 0
 10503   005C32                     _INTERRUPT_InterruptManager:
 10504                           	callstack 114
 10505                           
 10506                           ; BSR set to: 3
 10507                           ;incstack = 0
 10508   005C32  C4FA F501          	movff	pclath,??_INTERRUPT_InterruptManager
 10509   005C36  C4FB F502          	movff	pclatu,??_INTERRUPT_InterruptManager+1
 10510   005C3A                     
 10511                           ;mcc_generated_files/interrupt_manager.c: 62:     if(PIE3bits.TMR0IE == 1 && PIR3bits.TM
      +                          R0IF == 1)
 10512   005C3A  AEA1               	btfss	161,7,c	;volatile
 10513   005C3C  EF22  F02E         	goto	i2u506_41
 10514   005C40  EF24  F02E         	goto	i2u506_40
 10515   005C44                     i2u506_41:
 10516   005C44  EF2D  F02E         	goto	i2l449
 10517   005C48                     i2u506_40:
 10518   005C48  AEB1               	btfss	177,7,c	;volatile
 10519   005C4A  EF29  F02E         	goto	i2u507_41
 10520   005C4E  EF2B  F02E         	goto	i2u507_40
 10521   005C52                     i2u507_41:
 10522   005C52  EF2D  F02E         	goto	i2l449
 10523   005C56                     i2u507_40:
 10524   005C56                     
 10525                           ;mcc_generated_files/interrupt_manager.c: 63:     {;mcc_generated_files/interrupt_manage
      +                          r.c: 64:         TMR0_ISR();
 10526   005C56  ECE5  F02D         	call	_TMR0_ISR	;wreg free
 10527   005C5A                     i2l449:
 10528   005C5A  C502  F4FB         	movff	??_INTERRUPT_InterruptManager+1,pclatu
 10529   005C5E  C501  F4FA         	movff	??_INTERRUPT_InterruptManager,pclath
 10530   005C62  0011               	retfie		f
 10531   005C64                     __end_of_INTERRUPT_InterruptManager:
 10532                           	callstack 0
 10533                           
 10534 ;; *************** function _TMR0_ISR *****************
 10535 ;; Defined at:
 10536 ;;		line 123 in file "mcc_generated_files/tmr0.c"
 10537 ;; Parameters:    Size  Location     Type
 10538 ;;		None
 10539 ;; Auto vars:     Size  Location     Type
 10540 ;;		None
 10541 ;; Return value:  Size  Location     Type
 10542 ;;                  1    wreg      void 
 10543 ;; Registers used:
 10544 ;;		wreg, status,2, status,0, pcl, pclath, pclatu, tosl, cstack
 10545 ;; Tracked objects:
 10546 ;;		On entry : 0/0
 10547 ;;		On exit  : 0/0
 10548 ;;		Unchanged: 0/0
 10549 ;; Data sizes:     COMRAM   BANK5   BANK6   BANK7   BANK8   BANK9  BANK10  BANK11  BANK12  BANK13  BANK14  BANK15  BANK1
      +6  BANK17  BANK18  BANK19  BANK20  BANK21  BANK22  BANK23  BANK24  BANK25  BANK26  BANK27  BANK28  BANK29  BANK30  BANK3
      +1  BANK32  BANK33  BANK34  BANK35  BANK36
 10550 ;;      Params:         0       0       0       0       0       0       0       0       0       0       0       0       
      +0       0       0       0       0       0       0       0       0       0       0       0       0       0       0       
      +0       0       0       0       0       0
 10551 ;;      Locals:         0       0       0       0       0       0       0       0       0       0       0       0       
      +0       0       0       0       0       0       0       0       0       0       0       0       0       0       0       
      +0       0       0       0       0       0
 10552 ;;      Temps:          0       0       0       0       0       0       0       0       0       0       0       0       
      +0       0       0       0       0       0       0       0       0       0       0       0       0       0       0       
      +0       0       0       0       0       0
 10553 ;;      Totals:         0       0       0       0       0       0       0       0       0       0       0       0       
      +0       0       0       0       0       0       0       0       0       0       0       0       0       0       0       
      +0       0       0       0       0       0
 10554 ;;Total ram usage:        0 bytes
 10555 ;; Hardware stack levels used: 1
 10556 ;; Hardware stack levels required when called: 2
 10557 ;; This function calls:
 10558 ;;		_TMR0_CallBack
 10559 ;; This function is called by:
 10560 ;;		_INTERRUPT_InterruptManager
 10561 ;; This function uses a non-reentrant model
 10562 ;;
 10563                           
 10564                           	psect	text53
 10565   005BCA                     __ptext53:
 10566                           	callstack 0
 10567   005BCA                     _TMR0_ISR:
 10568                           	callstack 114
 10569   005BCA                     
 10570                           ;mcc_generated_files/tmr0.c: 127:     PIR3bits.TMR0IF = 0;
 10571   005BCA  9EB1               	bcf	177,7,c	;volatile
 10572   005BCC                     
 10573                           ;mcc_generated_files/tmr0.c: 130:     TMR0_CallBack();
 10574   005BCC  EC32  F02E         	call	_TMR0_CallBack	;wreg free
 10575   005BD0                     
 10576                           ;mcc_generated_files/tmr0.c: 132:     cont++;
 10577   005BD0  0105               	movlb	5	; () banked
 10578   005BD2  4BE3               	infsnz	_cont& (0+255),f,b
 10579   005BD4  2BE4               	incf	(_cont+1)& (0+255),f,b
 10580   005BD6                     
 10581                           ; BSR set to: 5
 10582                           ;mcc_generated_files/tmr0.c: 134:     if(cont==1200){
 10583   005BD6  0EB0               	movlw	176
 10584   005BD8  19E3               	xorwf	_cont& (0+255),w,b
 10585   005BDA  E107               	bnz	i2u502_41
 10586   005BDC  0E04               	movlw	4
 10587   005BDE  19E4               	xorwf	(_cont+1)& (0+255),w,b
 10588   005BE0  A4D8               	btfss	status,2,c
 10589   005BE2  EFF5  F02D         	goto	i2u502_41
 10590   005BE6  EFF7  F02D         	goto	i2u502_40
 10591   005BEA                     i2u502_41:
 10592   005BEA  EFFF  F02D         	goto	i2l497
 10593   005BEE                     i2u502_40:
 10594   005BEE                     
 10595                           ; BSR set to: 5
 10596                           ;mcc_generated_files/tmr0.c: 135:         flag = 1;
 10597   005BEE  0E00               	movlw	0
 10598   005BF0  6FE2               	movwf	(_flag+1)& (0+255),b
 10599   005BF2  0E01               	movlw	1
 10600   005BF4  6FE1               	movwf	_flag& (0+255),b
 10601                           
 10602                           ;mcc_generated_files/tmr0.c: 136:         cont=0;
 10603   005BF6  0E00               	movlw	0
 10604   005BF8  6FE4               	movwf	(_cont+1)& (0+255),b
 10605   005BFA  0E00               	movlw	0
 10606   005BFC  6FE3               	movwf	_cont& (0+255),b
 10607   005BFE                     i2l497:
 10608                           
 10609                           ; BSR set to: 5
 10610   005BFE  0012               	return		;funcret
 10611   005C00                     __end_of_TMR0_ISR:
 10612                           	callstack 0
 10613                           
 10614 ;; *************** function _TMR0_CallBack *****************
 10615 ;; Defined at:
 10616 ;;		line 140 in file "mcc_generated_files/tmr0.c"
 10617 ;; Parameters:    Size  Location     Type
 10618 ;;		None
 10619 ;; Auto vars:     Size  Location     Type
 10620 ;;		None
 10621 ;; Return value:  Size  Location     Type
 10622 ;;                  1    wreg      void 
 10623 ;; Registers used:
 10624 ;;		wreg, status,2, status,0, pcl, pclath, pclatu, tosl, cstack
 10625 ;; Tracked objects:
 10626 ;;		On entry : 0/0
 10627 ;;		On exit  : 0/0
 10628 ;;		Unchanged: 0/0
 10629 ;; Data sizes:     COMRAM   BANK5   BANK6   BANK7   BANK8   BANK9  BANK10  BANK11  BANK12  BANK13  BANK14  BANK15  BANK1
      +6  BANK17  BANK18  BANK19  BANK20  BANK21  BANK22  BANK23  BANK24  BANK25  BANK26  BANK27  BANK28  BANK29  BANK30  BANK3
      +1  BANK32  BANK33  BANK34  BANK35  BANK36
 10630 ;;      Params:         0       0       0       0       0       0       0       0       0       0       0       0       
      +0       0       0       0       0       0       0       0       0       0       0       0       0       0       0       
      +0       0       0       0       0       0
 10631 ;;      Locals:         0       0       0       0       0       0       0       0       0       0       0       0       
      +0       0       0       0       0       0       0       0       0       0       0       0       0       0       0       
      +0       0       0       0       0       0
 10632 ;;      Temps:          0       0       0       0       0       0       0       0       0       0       0       0       
      +0       0       0       0       0       0       0       0       0       0       0       0       0       0       0       
      +0       0       0       0       0       0
 10633 ;;      Totals:         0       0       0       0       0       0       0       0       0       0       0       0       
      +0       0       0       0       0       0       0       0       0       0       0       0       0       0       0       
      +0       0       0       0       0       0
 10634 ;;Total ram usage:        0 bytes
 10635 ;; Hardware stack levels used: 1
 10636 ;; Hardware stack levels required when called: 1
 10637 ;; This function calls:
 10638 ;;		Absolute function
 10639 ;;		_TMR0_DefaultInterruptHandler
 10640 ;; This function is called by:
 10641 ;;		_TMR0_ISR
 10642 ;; This function uses a non-reentrant model
 10643 ;;
 10644                           
 10645                           	psect	text54
 10646   005C64                     __ptext54:
 10647                           	callstack 0
 10648   005C64                     _TMR0_CallBack:
 10649                           	callstack 114
 10650   005C64                     
 10651                           ;mcc_generated_files/tmr0.c: 144:     if(TMR0_InterruptHandler)
 10652   005C64  0105               	movlb	5	; () banked
 10653   005C66  51ED               	movf	_TMR0_InterruptHandler& (0+255),w,b
 10654   005C68  11EE               	iorwf	(_TMR0_InterruptHandler+1)& (0+255),w,b
 10655   005C6A  11EF               	iorwf	(_TMR0_InterruptHandler+2)& (0+255),w,b
 10656   005C6C  B4D8               	btfsc	status,2,c
 10657   005C6E  EF3B  F02E         	goto	i2u473_41
 10658   005C72  EF3D  F02E         	goto	i2u473_40
 10659   005C76                     i2u473_41:
 10660   005C76  EF4A  F02E         	goto	i2l501
 10661   005C7A                     i2u473_40:
 10662   005C7A                     
 10663                           ; BSR set to: 5
 10664                           ;mcc_generated_files/tmr0.c: 145:     {;mcc_generated_files/tmr0.c: 146:         TMR0_In
      +                          terruptHandler();
 10665   005C7A  D802               	call	i2u474_48
 10666   005C7C  EF4A  F02E         	goto	i2u474_49
 10667   005C80                     i2u474_48:
 10668   005C80  0005               	push	
 10669   005C82  6EFA               	movwf	pclath,c
 10670   005C84  51ED               	movf	_TMR0_InterruptHandler& (0+255),w,b
 10671   005C86  6EFD               	movwf	tosl,c
 10672   005C88  51EE               	movf	(_TMR0_InterruptHandler+1)& (0+255),w,b
 10673   005C8A  6EFE               	movwf	tosh,c
 10674   005C8C  51EF               	movf	(_TMR0_InterruptHandler+2)& (0+255),w,b
 10675   005C8E  6EFF               	movwf	tosu,c
 10676   005C90  50FA               	movf	pclath,w,c
 10677   005C92  0012               	return		;indir
 10678   005C94                     i2u474_49:
 10679   005C94                     i2l501:
 10680   005C94  0012               	return		;funcret
 10681   005C96                     __end_of_TMR0_CallBack:
 10682                           	callstack 0
 10683                           
 10684 ;; *************** function _TMR0_DefaultInterruptHandler *****************
 10685 ;; Defined at:
 10686 ;;		line 154 in file "mcc_generated_files/tmr0.c"
 10687 ;; Parameters:    Size  Location     Type
 10688 ;;		None
 10689 ;; Auto vars:     Size  Location     Type
 10690 ;;		None
 10691 ;; Return value:  Size  Location     Type
 10692 ;;                  1    wreg      void 
 10693 ;; Registers used:
 10694 ;;		None
 10695 ;; Tracked objects:
 10696 ;;		On entry : 0/0
 10697 ;;		On exit  : 0/0
 10698 ;;		Unchanged: 0/0
 10699 ;; Data sizes:     COMRAM   BANK5   BANK6   BANK7   BANK8   BANK9  BANK10  BANK11  BANK12  BANK13  BANK14  BANK15  BANK1
      +6  BANK17  BANK18  BANK19  BANK20  BANK21  BANK22  BANK23  BANK24  BANK25  BANK26  BANK27  BANK28  BANK29  BANK30  BANK3
      +1  BANK32  BANK33  BANK34  BANK35  BANK36
 10700 ;;      Params:         0       0       0       0       0       0       0       0       0       0       0       0       
      +0       0       0       0       0       0       0       0       0       0       0       0       0       0       0       
      +0       0       0       0       0       0
 10701 ;;      Locals:         0       0       0       0       0       0       0       0       0       0       0       0       
      +0       0       0       0       0       0       0       0       0       0       0       0       0       0       0       
      +0       0       0       0       0       0
 10702 ;;      Temps:          0       0       0       0       0       0       0       0       0       0       0       0       
      +0       0       0       0       0       0       0       0       0       0       0       0       0       0       0       
      +0       0       0       0       0       0
 10703 ;;      Totals:         0       0       0       0       0       0       0       0       0       0       0       0       
      +0       0       0       0       0       0       0       0       0       0       0       0       0       0       0       
      +0       0       0       0       0       0
 10704 ;;Total ram usage:        0 bytes
 10705 ;; Hardware stack levels used: 1
 10706 ;; This function calls:
 10707 ;;		Nothing
 10708 ;; This function is called by:
 10709 ;;		_TMR0_Initialize
 10710 ;;		_TMR0_CallBack
 10711 ;; This function uses a non-reentrant model
 10712 ;;
 10713                           
 10714                           	psect	text55
 10715   005EAA                     __ptext55:
 10716                           	callstack 0
 10717   005EAA                     _TMR0_DefaultInterruptHandler:
 10718                           	callstack 114
 10719   005EAA  0012               	return		;funcret
 10720   005EAC                     __end_of_TMR0_DefaultInterruptHandler:
 10721                           	callstack 0
 10722                           
 10723                           ;
 10724                           ; Interrupt Vector Table @ 0x8
 10725                           ;
 10726                           
 10727                           	psect	ivt0x8
 10728   000008                     __pivt0x8:
 10729                           	callstack 0
 10730   000008                     ivt0x8_base:
 10731                           	callstack 0
 10732                           
 10733                           ; high-priority vector
 10734   000008  EF19  F02E         	goto	_INTERRUPT_InterruptManager
 10735   000018                     	org	16
 10736                           
 10737                           ; low-priority vector
 10738   000018  00FF               	reset	
 10739                           
 10740                           	psect	text56
 10741   000000                     __ptext56:
 10742                           	callstack 0
 10743   000000                     
 10744                           	psect	rparam
 10745   000000                     
 10746                           	psect	idloc
 10747                           
 10748                           ;Config register IDLOC0 @ 0x200000
 10749                           ;	unspecified, using default values
 10750   200000                     	org	2097152
 10751   200000  0FFF               	dw	4095
 10752                           
 10753                           ;Config register IDLOC1 @ 0x200002
 10754                           ;	unspecified, using default values
 10755   200002                     	org	2097154
 10756   200002  0FFF               	dw	4095
 10757                           
 10758                           ;Config register IDLOC2 @ 0x200004
 10759                           ;	unspecified, using default values
 10760   200004                     	org	2097156
 10761   200004  0FFF               	dw	4095
 10762                           
 10763                           ;Config register IDLOC3 @ 0x200006
 10764                           ;	unspecified, using default values
 10765   200006                     	org	2097158
 10766   200006  0FFF               	dw	4095
 10767                           
 10768                           ;Config register IDLOC4 @ 0x200008
 10769                           ;	unspecified, using default values
 10770   200008                     	org	2097160
 10771   200008  0FFF               	dw	4095
 10772                           
 10773                           ;Config register IDLOC5 @ 0x20000A
 10774                           ;	unspecified, using default values
 10775   20000A                     	org	2097162
 10776   20000A  0FFF               	dw	4095
 10777                           
 10778                           ;Config register IDLOC6 @ 0x20000C
 10779                           ;	unspecified, using default values
 10780   20000C                     	org	2097164
 10781   20000C  0FFF               	dw	4095
 10782                           
 10783                           ;Config register IDLOC7 @ 0x20000E
 10784                           ;	unspecified, using default values
 10785   20000E                     	org	2097166
 10786   20000E  0FFF               	dw	4095
 10787                           
 10788                           ;Config register IDLOC8 @ 0x200010
 10789                           ;	unspecified, using default values
 10790   200010                     	org	2097168
 10791   200010  0FFF               	dw	4095
 10792                           
 10793                           ;Config register IDLOC9 @ 0x200012
 10794                           ;	unspecified, using default values
 10795   200012                     	org	2097170
 10796   200012  0FFF               	dw	4095
 10797                           
 10798                           ;Config register IDLOC10 @ 0x200014
 10799                           ;	unspecified, using default values
 10800   200014                     	org	2097172
 10801   200014  0FFF               	dw	4095
 10802                           
 10803                           ;Config register IDLOC11 @ 0x200016
 10804                           ;	unspecified, using default values
 10805   200016                     	org	2097174
 10806   200016  0FFF               	dw	4095
 10807                           
 10808                           ;Config register IDLOC12 @ 0x200018
 10809                           ;	unspecified, using default values
 10810   200018                     	org	2097176
 10811   200018  0FFF               	dw	4095
 10812                           
 10813                           ;Config register IDLOC13 @ 0x20001A
 10814                           ;	unspecified, using default values
 10815   20001A                     	org	2097178
 10816   20001A  0FFF               	dw	4095
 10817                           
 10818                           ;Config register IDLOC14 @ 0x20001C
 10819                           ;	unspecified, using default values
 10820   20001C                     	org	2097180
 10821   20001C  0FFF               	dw	4095
 10822                           
 10823                           ;Config register IDLOC15 @ 0x20001E
 10824                           ;	unspecified, using default values
 10825   20001E                     	org	2097182
 10826   20001E  0FFF               	dw	4095
 10827                           
 10828                           ;Config register IDLOC16 @ 0x200020
 10829                           ;	unspecified, using default values
 10830   200020                     	org	2097184
 10831   200020  0FFF               	dw	4095
 10832                           
 10833                           ;Config register IDLOC17 @ 0x200022
 10834                           ;	unspecified, using default values
 10835   200022                     	org	2097186
 10836   200022  0FFF               	dw	4095
 10837                           
 10838                           ;Config register IDLOC18 @ 0x200024
 10839                           ;	unspecified, using default values
 10840   200024                     	org	2097188
 10841   200024  0FFF               	dw	4095
 10842                           
 10843                           ;Config register IDLOC19 @ 0x200026
 10844                           ;	unspecified, using default values
 10845   200026                     	org	2097190
 10846   200026  0FFF               	dw	4095
 10847                           
 10848                           ;Config register IDLOC20 @ 0x200028
 10849                           ;	unspecified, using default values
 10850   200028                     	org	2097192
 10851   200028  0FFF               	dw	4095
 10852                           
 10853                           ;Config register IDLOC21 @ 0x20002A
 10854                           ;	unspecified, using default values
 10855   20002A                     	org	2097194
 10856   20002A  0FFF               	dw	4095
 10857                           
 10858                           ;Config register IDLOC22 @ 0x20002C
 10859                           ;	unspecified, using default values
 10860   20002C                     	org	2097196
 10861   20002C  0FFF               	dw	4095
 10862                           
 10863                           ;Config register IDLOC23 @ 0x20002E
 10864                           ;	unspecified, using default values
 10865   20002E                     	org	2097198
 10866   20002E  0FFF               	dw	4095
 10867                           
 10868                           ;Config register IDLOC24 @ 0x200030
 10869                           ;	unspecified, using default values
 10870   200030                     	org	2097200
 10871   200030  0FFF               	dw	4095
 10872                           
 10873                           ;Config register IDLOC25 @ 0x200032
 10874                           ;	unspecified, using default values
 10875   200032                     	org	2097202
 10876   200032  0FFF               	dw	4095
 10877                           
 10878                           ;Config register IDLOC26 @ 0x200034
 10879                           ;	unspecified, using default values
 10880   200034                     	org	2097204
 10881   200034  0FFF               	dw	4095
 10882                           
 10883                           ;Config register IDLOC27 @ 0x200036
 10884                           ;	unspecified, using default values
 10885   200036                     	org	2097206
 10886   200036  0FFF               	dw	4095
 10887                           
 10888                           ;Config register IDLOC28 @ 0x200038
 10889                           ;	unspecified, using default values
 10890   200038                     	org	2097208
 10891   200038  0FFF               	dw	4095
 10892                           
 10893                           ;Config register IDLOC29 @ 0x20003A
 10894                           ;	unspecified, using default values
 10895   20003A                     	org	2097210
 10896   20003A  0FFF               	dw	4095
 10897                           
 10898                           ;Config register IDLOC30 @ 0x20003C
 10899                           ;	unspecified, using default values
 10900   20003C                     	org	2097212
 10901   20003C  0FFF               	dw	4095
 10902                           
 10903                           ;Config register IDLOC31 @ 0x20003E
 10904                           ;	unspecified, using default values
 10905   20003E                     	org	2097214
 10906   20003E  0FFF               	dw	4095
 10907                           
 10908                           	psect	config
 10909                           
 10910                           ;Config register CONFIG1 @ 0x300000
 10911                           ;	External Oscillator Selection
 10912                           ;	FEXTOSC = OFF, Oscillator not enabled
 10913                           ;	Reset Oscillator Selection
 10914                           ;	RSTOSC = HFINTOSC_64MHZ, HFINTOSC with HFFRQ = 64 MHz and CDIV = 1:1
 10915   300000                     	org	3145728
 10916   300000  8C                 	db	140
 10917                           
 10918                           ;Config register CONFIG2 @ 0x300001
 10919                           ;	Clock out Enable bit
 10920                           ;	CLKOUTEN = OFF, CLKOUT function is disabled
 10921                           ;	PRLOCKED One-Way Set Enable bit
 10922                           ;	PR1WAY = ON, PRLOCKED bit can be cleared and set only once
 10923                           ;	Clock Switch Enable bit
 10924                           ;	CSWEN = ON, Writing to NOSC and NDIV is allowed
 10925                           ;	Fail-Safe Clock Monitor Enable bit
 10926                           ;	FCMEN = ON, Fail-Safe Clock Monitor enabled
 10927   300001                     	org	3145729
 10928   300001  FF                 	db	255
 10929                           
 10930                           ;Config register CONFIG3 @ 0x300002
 10931                           ;	MCLR Enable bit
 10932                           ;	MCLRE = EXTMCLR, If LVP = 0, MCLR pin is MCLR; If LVP = 1, RE3 pin function is MCLR
 10933                           ;	Power-up timer selection bits
 10934                           ;	PWRTS = PWRT_OFF, PWRT is disabled
 10935                           ;	Multi-vector enable bit
 10936                           ;	MVECEN = OFF, Interrupt contoller does not use vector table to prioritze interrupts
 10937                           ;	IVTLOCK bit One-way set enable bit
 10938                           ;	IVT1WAY = ON, IVTLOCKED bit can be cleared and set only once
 10939                           ;	Low Power BOR Enable bit
 10940                           ;	LPBOREN = OFF, Low-Power BOR disabled
 10941                           ;	Brown-out Reset Enable bits
 10942                           ;	BOREN = SBORDIS, Brown-out Reset enabled , SBOREN bit is ignored
 10943   300002                     	org	3145730
 10944   300002  F7                 	db	247
 10945                           
 10946                           ;Config register CONFIG4 @ 0x300003
 10947                           ;	Brown-out Reset Voltage Selection bits
 10948                           ;	BORV = VBOR_1P9, Brown-out Reset Voltage (VBOR) set to 1.9V
 10949                           ;	ZCD Disable bit
 10950                           ;	ZCD = OFF, ZCD module is disabled. ZCD can be enabled by setting the ZCDSEN bit of ZCD
      +                          CON
 10951                           ;	PPSLOCK bit One-Way Set Enable bit
 10952                           ;	PPS1WAY = ON, PPSLOCKED bit can be cleared and set only once; PPS registers remain loc
      +                          ked after one clear/set cycle
 10953                           ;	Stack Full/Underflow Reset Enable bit
 10954                           ;	STVREN = ON, Stack full/underflow will cause Reset
 10955                           ;	Low Voltage Programming Enable bit
 10956                           ;	LVP = ON, Low voltage programming enabled. MCLR/VPP pin function is MCLR. MCLRE config
      +                          uration bit is ignored
 10957                           ;	Extended Instruction Set Enable bit
 10958                           ;	XINST = OFF, Extended Instruction Set and Indexed Addressing Mode disabled
 10959   300003                     	org	3145731
 10960   300003  FF                 	db	255
 10961                           
 10962                           ;Config register CONFIG5 @ 0x300004
 10963                           ;	WDT Period selection bits
 10964                           ;	WDTCPS = WDTCPS_31, Divider ratio 1:65536; software control of WDTPS
 10965                           ;	WDT operating mode
 10966                           ;	WDTE = OFF, WDT Disabled; SWDTEN is ignored
 10967   300004                     	org	3145732
 10968   300004  9F                 	db	159
 10969                           
 10970                           ;Config register CONFIG6 @ 0x300005
 10971                           ;	WDT Window Select bits
 10972                           ;	WDTCWS = WDTCWS_7, window always open (100%); software control; keyed access not requi
      +                          red
 10973                           ;	WDT input clock selector
 10974                           ;	WDTCCS = SC, Software Control
 10975   300005                     	org	3145733
 10976   300005  FF                 	db	255
 10977                           
 10978                           ;Config register CONFIG7 @ 0x300006
 10979                           ;	Boot Block Size selection bits
 10980                           ;	BBSIZE = BBSIZE_512, Boot Block size is 512 words
 10981                           ;	Boot Block enable bit
 10982                           ;	BBEN = OFF, Boot block disabled
 10983                           ;	Storage Area Flash enable bit
 10984                           ;	SAFEN = OFF, SAF disabled
 10985                           ;	Background Debugger
 10986                           ;	DEBUG = OFF, Background Debugger disabled
 10987   300006                     	org	3145734
 10988   300006  FF                 	db	255
 10989                           
 10990                           ;Config register CONFIG8 @ 0x300007
 10991                           ;	Boot Block Write Protection bit
 10992                           ;	WRTB = OFF, Boot Block not Write protected
 10993                           ;	Configuration Register Write Protection bit
 10994                           ;	WRTC = OFF, Configuration registers not Write protected
 10995                           ;	Data EEPROM Write Protection bit
 10996                           ;	WRTD = OFF, Data EEPROM not Write protected
 10997                           ;	SAF Write protection bit
 10998                           ;	WRTSAF = OFF, SAF not Write Protected
 10999                           ;	Application Block write protection bit
 11000                           ;	WRTAPP = OFF, Application Block not write protected
 11001   300007                     	org	3145735
 11002   300007  FF                 	db	255
 11003                           
 11004                           ; Padding undefined space
 11005   300008                     	org	3145736
 11006   300008  FF                 	db	255
 11007                           
 11008                           ;Config register CONFIG10 @ 0x300009
 11009                           ;	PFM and Data EEPROM Code Protection bit
 11010                           ;	CP = OFF, PFM and Data EEPROM code protection disabled
 11011   300009                     	org	3145737
 11012   300009  FF                 	db	255
 11013                           tosu	equ	0x4FF
 11014                           tosh	equ	0x4FE
 11015                           tosl	equ	0x4FD
 11016                           stkptr	equ	0x4FC
 11017                           pclatu	equ	0x4FB
 11018                           pclath	equ	0x4FA
 11019                           pcl	equ	0x4F9
 11020                           tblptru	equ	0x4F8
 11021                           tblptrh	equ	0x4F7
 11022                           tblptrl	equ	0x4F6
 11023                           tablat	equ	0x4F5
 11024                           prodh	equ	0x4F4
 11025                           prodl	equ	0x4F3
 11026                           indf0	equ	0x4EF
 11027                           postinc0	equ	0x4EE
 11028                           postdec0	equ	0x4ED
 11029                           preinc0	equ	0x4EC
 11030                           plusw0	equ	0x4EB
 11031                           fsr0h	equ	0x4EA
 11032                           fsr0l	equ	0x4E9
 11033                           wreg	equ	0x4E8
 11034                           indf1	equ	0x4E7
 11035                           postinc1	equ	0x4E6
 11036                           postdec1	equ	0x4E5
 11037                           preinc1	equ	0x4E4
 11038                           plusw1	equ	0x4E3
 11039                           fsr1h	equ	0x4E2
 11040                           fsr1l	equ	0x4E1
 11041                           bsr	equ	0x4E0
 11042                           indf2	equ	0x4DF
 11043                           postinc2	equ	0x4DE
 11044                           postdec2	equ	0x4DD
 11045                           preinc2	equ	0x4DC
 11046                           plusw2	equ	0x4DB
 11047                           fsr2h	equ	0x4DA
 11048                           fsr2l	equ	0x4D9
 11049                           status	equ	0x4D8

Data Sizes:
    Strings     51
    Constant    0
    Data        0
    BSS         126
    Persistent  12
    Stack       0

Auto Spaces:
    Space          Size  Autos    Used
    COMRAM           95     91      93
    BANK5           160     97     153
    BANK6           256      0      80
    BANK7           256      0       0
    BANK8           256      0       0
    BANK9           256      0       0
    BANK10          256      0       0
    BANK11          256      0       0
    BANK12          256      0       0
    BANK13          256      0       0
    BANK14          256      0       0
    BANK15          256      0       0
    BANK16          256      0       0
    BANK17          256      0       0
    BANK18          256      0       0
    BANK19          256      0       0
    BANK20          256      0       0
    BANK21          256      0       0
    BANK22          256      0       0
    BANK23          256      0       0
    BANK24          256      0       0
    BANK25          256      0       0
    BANK26          256      0       0
    BANK27          256      0       0
    BANK28          256      0       0
    BANK29          256      0       0
    BANK30          256      0       0
    BANK31          256      0       0
    BANK32          256      0       0
    BANK33          256      0       0
    BANK34          256      0       0
    BANK35          256      0       0
    BANK36          256      0       0

Pointer List with Targets:

    strcpy@dest	PTR unsigned char  size(2) Largest target is 80
		 -> dbuf(BANK6[80]), 

    strcpy@d	PTR unsigned char  size(2) Largest target is 80
		 -> dbuf(BANK6[80]), 

    strcpy@src	PTR const unsigned char  size(2) Largest target is 4
		 -> STR_5(CODE[4]), STR_2(CODE[4]), 

    strcpy@s	PTR const unsigned char  size(2) Largest target is 4
		 -> STR_5(CODE[4]), STR_2(CODE[4]), 

    fputs@s	PTR const unsigned char  size(2) Largest target is 80
		 -> dbuf(BANK6[80]), 

    fputs@fp	PTR struct _IO_FILE size(2) Largest target is 0
		 -> NULL(NULL[0]), 

    S1694$source	PTR const unsigned char  size(2) Largest target is 0

    fputc@fp...source	PTR const unsigned char  size(2) Largest target is 0

    S1694$buffer	PTR unsigned char  size(2) Largest target is 0

    fputc@fp...buffer	PTR unsigned char  size(2) Largest target is 0

    fputc@fp	PTR struct _IO_FILE size(2) Largest target is 0
		 -> NULL(NULL[0]), 

    memcpy@d1	PTR void  size(2) Largest target is 80
		 -> dbuf(BANK6[80]), 

    memcpy@d	PTR unsigned char  size(2) Largest target is 80
		 -> dbuf(BANK6[80]), 

    memcpy@s1	PTR const void  size(2) Largest target is 80
		 -> dbuf(BANK6[80]), 

    memcpy@s	PTR const unsigned char  size(2) Largest target is 80
		 -> dbuf(BANK6[80]), 

    atoi@s	PTR const unsigned char  size(2) Largest target is 43
		 -> STR_1(CODE[43]), 

    vfprintf@ap	PTR PTR void  size(2) Largest target is 2
		 -> printf@ap(BANK5[2]), 

    vfprintf@fp	PTR struct _IO_FILE size(2) Largest target is 0
		 -> NULL(NULL[0]), 

    vfprintf@fmt	PTR const unsigned char  size(2) Largest target is 43
		 -> STR_1(CODE[43]), 

    vfprintf@cfmt	PTR unsigned char  size(2) Largest target is 43
		 -> STR_1(CODE[43]), 

    vfpfcnvrt@fp	PTR struct _IO_FILE size(2) Largest target is 0
		 -> NULL(NULL[0]), 

    vfpfcnvrt@cp	PTR unsigned char  size(2) Largest target is 43
		 -> STR_1(CODE[43]), 

    vfpfcnvrt@ap	PTR PTR void  size(2) Largest target is 2
		 -> printf@ap(BANK5[2]), 

    vfpfcnvrt@fmt	PTR PTR unsigned char  size(2) Largest target is 2
		 -> vfprintf@cfmt(BANK5[2]), 

    S1765$vp	PTR void  size(2) Largest target is 0

    convarg.vp	PTR void  size(2) Largest target is 0

    sp__memcpy	PTR void  size(2) Largest target is 80
		 -> dbuf(BANK6[80]), 

    efgtoa@fp	PTR struct _IO_FILE size(2) Largest target is 0
		 -> NULL(NULL[0]), 

    sp__strcpy	PTR unsigned char  size(2) Largest target is 80
		 -> dbuf(BANK6[80]), 

    dtoa@fp	PTR struct _IO_FILE size(2) Largest target is 0
		 -> NULL(NULL[0]), 

    pad@fp	PTR struct _IO_FILE size(2) Largest target is 0
		 -> NULL(NULL[0]), 

    pad@buf	PTR unsigned char  size(2) Largest target is 80
		 -> dbuf(BANK6[80]), 

    printf@fmt	PTR const unsigned char  size(2) Largest target is 43
		 -> STR_1(CODE[43]), 

    printf@ap	PTR void [1] size(2) Largest target is 2
		 -> ?_printf(BANK5[2]), 

    DHT11_Read_Data@tem	PTR float  size(2) Largest target is 4
		 -> temp(BANK5[4]), 

    DHT11_Read_Data@hum	PTR float  size(2) Largest target is 4
		 -> hume(BANK5[4]), 

    TMR0_SetInterruptHandler@InterruptHandler	PTR FTN()void  size(3) Largest target is 1
		 -> TMR0_DefaultInterruptHandler(), 

    TMR0_InterruptHandler	PTR FTN()void  size(3) Largest target is 1
		 -> Absolute function(), TMR0_DefaultInterruptHandler(), 

    UART1_SetErrorHandler@interruptHandler	PTR FTN()void  size(3) Largest target is 1
		 -> UART1_DefaultErrorHandler(), 

    UART1_SetOverrunErrorHandler@interruptHandler	PTR FTN()void  size(3) Largest target is 1
		 -> UART1_DefaultOverrunErrorHandler(), 

    UART1_SetFramingErrorHandler@interruptHandler	PTR FTN()void  size(3) Largest target is 1
		 -> UART1_DefaultFramingErrorHandler(), 

    UART1_ErrorHandler	PTR FTN()void  size(3) Largest target is 1
		 -> Absolute function(), UART1_DefaultErrorHandler(), 

    UART1_OverrunErrorHandler	PTR FTN()void  size(3) Largest target is 1
		 -> Absolute function(), UART1_DefaultOverrunErrorHandler(), 

    UART1_FramingErrorHandler	PTR FTN()void  size(3) Largest target is 1
		 -> Absolute function(), UART1_DefaultFramingErrorHandler(), 


Critical Paths under _main in COMRAM

    _vfprintf->_vfpfcnvrt
    _vfpfcnvrt->_efgtoa
    _efgtoa->_floorf
    _floorf->___fldiv
    ___flsub->___flmul
    ___flmul->___xxtofl
    ___flge->___flmul
    _dtoa->_pad
    _pad->_fputs
    _fputs->_fputc
    _fputc->_putch
    _putch->_UART1_Write
    _abs->___aomod
    _atoi->___wmul
    _UART1_Initialize->_UART1_SetErrorHandler
    _UART1_Initialize->_UART1_SetFramingErrorHandler
    _UART1_Initialize->_UART1_SetOverrunErrorHandler
    _TMR0_Initialize->_TMR0_SetInterruptHandler
    _DHT11_Read_Data->___fldiv
    ___xxtofl->_DHT11_Join_Data
    ___fldiv->___xxtofl
    _DHT11_Join_Data->___wmul

Critical Paths under _INTERRUPT_InterruptManager in COMRAM

    None.

Critical Paths under _main in BANK5

    _main->_printf
    _printf->_vfprintf
    _vfprintf->_vfpfcnvrt
    _vfpfcnvrt->_efgtoa

Critical Paths under _INTERRUPT_InterruptManager in BANK5

    None.

Critical Paths under _main in BANK6

    None.

Critical Paths under _INTERRUPT_InterruptManager in BANK6

    None.

Critical Paths under _main in BANK7

    None.

Critical Paths under _INTERRUPT_InterruptManager in BANK7

    None.

Critical Paths under _main in BANK8

    None.

Critical Paths under _INTERRUPT_InterruptManager in BANK8

    None.

Critical Paths under _main in BANK9

    None.

Critical Paths under _INTERRUPT_InterruptManager in BANK9

    None.

Critical Paths under _main in BANK10

    None.

Critical Paths under _INTERRUPT_InterruptManager in BANK10

    None.

Critical Paths under _main in BANK11

    None.

Critical Paths under _INTERRUPT_InterruptManager in BANK11

    None.

Critical Paths under _main in BANK12

    None.

Critical Paths under _INTERRUPT_InterruptManager in BANK12

    None.

Critical Paths under _main in BANK13

    None.

Critical Paths under _INTERRUPT_InterruptManager in BANK13

    None.

Critical Paths under _main in BANK14

    None.

Critical Paths under _INTERRUPT_InterruptManager in BANK14

    None.

Critical Paths under _main in BANK15

    None.

Critical Paths under _INTERRUPT_InterruptManager in BANK15

    None.

Critical Paths under _main in BANK16

    None.

Critical Paths under _INTERRUPT_InterruptManager in BANK16

    None.

Critical Paths under _main in BANK17

    None.

Critical Paths under _INTERRUPT_InterruptManager in BANK17

    None.

Critical Paths under _main in BANK18

    None.

Critical Paths under _INTERRUPT_InterruptManager in BANK18

    None.

Critical Paths under _main in BANK19

    None.

Critical Paths under _INTERRUPT_InterruptManager in BANK19

    None.

Critical Paths under _main in BANK20

    None.

Critical Paths under _INTERRUPT_InterruptManager in BANK20

    None.

Critical Paths under _main in BANK21

    None.

Critical Paths under _INTERRUPT_InterruptManager in BANK21

    None.

Critical Paths under _main in BANK22

    None.

Critical Paths under _INTERRUPT_InterruptManager in BANK22

    None.

Critical Paths under _main in BANK23

    None.

Critical Paths under _INTERRUPT_InterruptManager in BANK23

    None.

Critical Paths under _main in BANK24

    None.

Critical Paths under _INTERRUPT_InterruptManager in BANK24

    None.

Critical Paths under _main in BANK25

    None.

Critical Paths under _INTERRUPT_InterruptManager in BANK25

    None.

Critical Paths under _main in BANK26

    None.

Critical Paths under _INTERRUPT_InterruptManager in BANK26

    None.

Critical Paths under _main in BANK27

    None.

Critical Paths under _INTERRUPT_InterruptManager in BANK27

    None.

Critical Paths under _main in BANK28

    None.

Critical Paths under _INTERRUPT_InterruptManager in BANK28

    None.

Critical Paths under _main in BANK29

    None.

Critical Paths under _INTERRUPT_InterruptManager in BANK29

    None.

Critical Paths under _main in BANK30

    None.

Critical Paths under _INTERRUPT_InterruptManager in BANK30

    None.

Critical Paths under _main in BANK31

    None.

Critical Paths under _INTERRUPT_InterruptManager in BANK31

    None.

Critical Paths under _main in BANK32

    None.

Critical Paths under _INTERRUPT_InterruptManager in BANK32

    None.

Critical Paths under _main in BANK33

    None.

Critical Paths under _INTERRUPT_InterruptManager in BANK33

    None.

Critical Paths under _main in BANK34

    None.

Critical Paths under _INTERRUPT_InterruptManager in BANK34

    None.

Critical Paths under _main in BANK35

    None.

Critical Paths under _INTERRUPT_InterruptManager in BANK35

    None.

Critical Paths under _main in BANK36

    None.

Critical Paths under _INTERRUPT_InterruptManager in BANK36

    None.

Call Graph Tables:

 ---------------------------------------------------------------------------------
 (Depth) Function   	        Calls       Base Space   Used Autos Params    Refs
 ---------------------------------------------------------------------------------
 (0) _main                                                 2     2      0   48037
                                             95 BANK5      2     2      0
           _ADCC_GetSingleConversion
                    _DHT11_Read_Data
                  _SYSTEM_Initialize
                            ___flmul
                           ___xxtofl
                       _getDistancia
                            _get_DHT
                             _printf
 ---------------------------------------------------------------------------------
 (1) _printf                                              32     4     28   37654
                                             65 BANK5     30     2     28
                           _vfprintf
 ---------------------------------------------------------------------------------
 (2) _vfprintf                                             8     2      6   37459
                                             57 BANK5      8     2      6
                          _vfpfcnvrt
 ---------------------------------------------------------------------------------
 (3) _vfpfcnvrt                                           24    18      6   36923
                                             82 COMRAM     9     3      6
                                             44 BANK5     13    13      0
                               _atoi
                               _dtoa
                             _efgtoa
                              _fputc
                            _isdigit
 ---------------------------------------------------------------------------------
 (4) _efgtoa                                              54    47      7   26230
                                             73 COMRAM     9     2      7
                                              0 BANK5     44    44      0
                            ___fladd
                            ___fldiv
                             ___fleq
                             ___flge
                            ___flmul
                            ___flneg
                            ___flsub
                            ___fltol
                      ___fpclassifyf
                             _floorf
                               _labs
                             _memcpy
                                _pad
                             _strcpy
 ---------------------------------------------------------------------------------
 (5) _strcpy                                               8     4      4     497
                                              2 COMRAM     8     4      4
 ---------------------------------------------------------------------------------
 (5) _memcpy                                              11     5      6     478
                                              2 COMRAM    11     5      6
 ---------------------------------------------------------------------------------
 (5) _labs                                                 8     4      4     363
                                              2 COMRAM     8     4      4
 ---------------------------------------------------------------------------------
 (5) _floorf                                              20    16      4     669
                                             53 COMRAM    20    16      4
                            ___fldiv (ARG)
 ---------------------------------------------------------------------------------
 (5) ___fpclassifyf                                       14    10      4     375
                                              2 COMRAM    14    10      4
 ---------------------------------------------------------------------------------
 (5) ___fltol                                             10     6      4     607
                                              2 COMRAM    10     6      4
 ---------------------------------------------------------------------------------
 (5) ___flsub                                              8     0      8    4007
                                             53 COMRAM     8     0      8
                            ___fladd
                            ___flmul (ARG)
 ---------------------------------------------------------------------------------
 (6) ___fladd                                             16     8      8    3442
                                              2 COMRAM    16     8      8
 ---------------------------------------------------------------------------------
 (5) ___flneg                                              4     0      4     155
                                              2 COMRAM     4     0      4
 ---------------------------------------------------------------------------------
 (5) ___flmul                                             25    17      8    3593
                                             28 COMRAM    25    17      8
           _ADCC_GetSingleConversion (ARG)
                           ___xxtofl (ARG)
 ---------------------------------------------------------------------------------
 (5) ___flge                                              12     4      8     986
                                             53 COMRAM    12     4      8
                            ___flmul (ARG)
 ---------------------------------------------------------------------------------
 (5) ___fleq                                              12     4      8     770
                                              2 COMRAM    12     4      8
 ---------------------------------------------------------------------------------
 (4) _dtoa                                                35    25     10    5823
                                             31 COMRAM    35    25     10
                            ___aodiv
                            ___aomod
                                _abs
                                _pad
 ---------------------------------------------------------------------------------
 (5) _pad                                                 11     5      6    3523
                                             20 COMRAM    11     5      6
                              _fputc
                              _fputs
 ---------------------------------------------------------------------------------
 (6) _fputs                                                7     3      4    1326
                                             13 COMRAM     7     3      4
                              _fputc
 ---------------------------------------------------------------------------------
 (4) _fputc                                                9     5      4     826
                                              4 COMRAM     9     5      4
                              _putch
 ---------------------------------------------------------------------------------
 (5) _putch                                                1     1      0      62
                                              3 COMRAM     1     1      0
                        _UART1_Write
 ---------------------------------------------------------------------------------
 (6) _UART1_Write                                          1     1      0      31
                                              2 COMRAM     1     1      0
 ---------------------------------------------------------------------------------
 (5) _abs                                                  4     2      2     183
                                             20 COMRAM     4     2      2
                            ___aomod (ARG)
 ---------------------------------------------------------------------------------
 (5) ___aomod                                             18     2     16     613
                                              2 COMRAM    18     2     16
 ---------------------------------------------------------------------------------
 (5) ___aodiv                                             26    10     16     625
                                              2 COMRAM    26    10     16
 ---------------------------------------------------------------------------------
 (4) _atoi                                                 9     7      2    1944
                                              8 COMRAM     9     7      2
                             ___wmul
                            _isdigit
                            _isspace
 ---------------------------------------------------------------------------------
 (5) _isspace                                              5     3      2     259
                                              2 COMRAM     5     3      2
 ---------------------------------------------------------------------------------
 (4) _isdigit                                              4     2      2     371
                                              2 COMRAM     4     2      2
 ---------------------------------------------------------------------------------
 (1) _get_DHT                                              2     0      2       0
                                              2 COMRAM     2     0      2
 ---------------------------------------------------------------------------------
 (1) _getDistancia                                         4     2      2      24
                                              2 COMRAM     4     2      2
 ---------------------------------------------------------------------------------
 (1) _SYSTEM_Initialize                                    0     0      0     392
                    _ADCC_Initialize
               _INTERRUPT_Initialize
              _OSCILLATOR_Initialize
             _PIN_MANAGER_Initialize
                     _PMD_Initialize
                    _TMR0_Initialize
                   _UART1_Initialize
 ---------------------------------------------------------------------------------
 (2) _UART1_Initialize                                     0     0      0     294
              _UART1_SetErrorHandler
       _UART1_SetFramingErrorHandler
       _UART1_SetOverrunErrorHandler
 ---------------------------------------------------------------------------------
 (3) _UART1_SetOverrunErrorHandler                         3     0      3      98
                                              2 COMRAM     3     0      3
 ---------------------------------------------------------------------------------
 (3) _UART1_SetFramingErrorHandler                         3     0      3      98
                                              2 COMRAM     3     0      3
 ---------------------------------------------------------------------------------
 (3) _UART1_SetErrorHandler                                3     0      3      98
                                              2 COMRAM     3     0      3
 ---------------------------------------------------------------------------------
 (2) _TMR0_Initialize                                      0     0      0      98
           _TMR0_SetInterruptHandler
 ---------------------------------------------------------------------------------
 (3) _TMR0_SetInterruptHandler                             3     0      3      98
                                              2 COMRAM     3     0      3
 ---------------------------------------------------------------------------------
 (2) _PMD_Initialize                                       0     0      0       0
 ---------------------------------------------------------------------------------
 (2) _PIN_MANAGER_Initialize                               0     0      0       0
 ---------------------------------------------------------------------------------
 (2) _OSCILLATOR_Initialize                                0     0      0       0
 ---------------------------------------------------------------------------------
 (2) _INTERRUPT_Initialize                                 0     0      0       0
 ---------------------------------------------------------------------------------
 (2) _ADCC_Initialize                                      0     0      0       0
 ---------------------------------------------------------------------------------
 (1) _DHT11_Read_Data                                     16    12      4    5802
                                             53 COMRAM    14    10      4
                    _DHT11_Join_Data
                    _DHT11_Read_Byte
                     _DHT11_Response
                        _DHT11_Start
                            ___fldiv
                           ___xxtofl
 ---------------------------------------------------------------------------------
 (1) ___xxtofl                                            14    10      4     550
                                             14 COMRAM    14    10      4
           _ADCC_GetSingleConversion (ARG)
                    _DHT11_Join_Data (ARG)
 ---------------------------------------------------------------------------------
 (5) ___fldiv                                             25    17      8    3083
                                             28 COMRAM    25    17      8
                    _DHT11_Join_Data (ARG)
                           ___xxtofl (ARG)
 ---------------------------------------------------------------------------------
 (2) _DHT11_Start                                          2     2      0       0
                                              2 COMRAM     2     2      0
 ---------------------------------------------------------------------------------
 (2) _DHT11_Response                                       0     0      0       0
 ---------------------------------------------------------------------------------
 (2) _DHT11_Read_Byte                                      8     6      2     115
                                              2 COMRAM     8     6      2
 ---------------------------------------------------------------------------------
 (2) _DHT11_Join_Data                                      6     2      4    1324
                                              8 COMRAM     6     2      4
                             ___wmul
 ---------------------------------------------------------------------------------
 (5) ___wmul                                               6     2      4     772
                                              2 COMRAM     6     2      4
 ---------------------------------------------------------------------------------
 (1) _ADCC_GetSingleConversion                             5     3      2      22
                                              2 COMRAM     5     3      2
 ---------------------------------------------------------------------------------
 Estimated maximum stack depth 6
 ---------------------------------------------------------------------------------
 (Depth) Function   	        Calls       Base Space   Used Autos Params    Refs
 ---------------------------------------------------------------------------------
 (10) _INTERRUPT_InterruptManager                          2     2      0       0
                                              0 COMRAM     2     2      0
                           _TMR0_ISR
 ---------------------------------------------------------------------------------
 (11) _TMR0_ISR                                            0     0      0       0
                      _TMR0_CallBack
 ---------------------------------------------------------------------------------
 (12) _TMR0_CallBack                                       0     0      0       0
                   Absolute function *
       _TMR0_DefaultInterruptHandler *
 ---------------------------------------------------------------------------------
 (13) _TMR0_DefaultInterruptHandler                        0     0      0       0
 ---------------------------------------------------------------------------------
 (13) Absolute function(Fake)                              0     0      0       0
 ---------------------------------------------------------------------------------
 Estimated maximum stack depth 13
 ---------------------------------------------------------------------------------

 Call Graph Graphs:

 _main (ROOT)
   _ADCC_GetSingleConversion
   _DHT11_Read_Data
     _DHT11_Join_Data
       ___wmul
     _DHT11_Read_Byte
     _DHT11_Response
     _DHT11_Start
     ___fldiv
       _DHT11_Join_Data (ARG)
       ___xxtofl (ARG)
         _ADCC_GetSingleConversion (ARG)
         _DHT11_Join_Data (ARG)
     ___xxtofl
   _SYSTEM_Initialize
     _ADCC_Initialize
     _INTERRUPT_Initialize
     _OSCILLATOR_Initialize
     _PIN_MANAGER_Initialize
     _PMD_Initialize
     _TMR0_Initialize
       _TMR0_SetInterruptHandler
     _UART1_Initialize
       _UART1_SetErrorHandler
       _UART1_SetFramingErrorHandler
       _UART1_SetOverrunErrorHandler
   ___flmul
     _ADCC_GetSingleConversion (ARG)
     ___xxtofl (ARG)
   ___xxtofl
   _getDistancia
   _get_DHT
   _printf
     _vfprintf
       _vfpfcnvrt
         _atoi
           ___wmul
           _isdigit
           _isspace
         _dtoa
           ___aodiv
           ___aomod
           _abs
             ___aomod (ARG)
           _pad
             _fputc
               _putch
                 _UART1_Write
             _fputs
               _fputc
         _efgtoa
           ___fladd
           ___fldiv
           ___fleq
           ___flge
             ___flmul (ARG)
           ___flmul
           ___flneg
           ___flsub
             ___fladd
             ___flmul (ARG)
           ___fltol
           ___fpclassifyf
           _floorf
             ___fldiv (ARG)
           _labs
           _memcpy
           _pad
           _strcpy
         _fputc
         _isdigit

 _INTERRUPT_InterruptManager (ROOT)
   _TMR0_ISR
     _TMR0_CallBack
       Absolute function(Fake) *
       _TMR0_DefaultInterruptHandler *

 Address spaces:
Name               Size   Autos  Total    Cost      Usage
BIGRAM            1FFF      0       0      69        0.0%
EEDATA             400      0       0       0        0.0%
BITBIGSFRhhhlll    175      0       0      91        0.0%
BITBIGSFR_1        100      0       0      68        0.0%
BITBANK36          100      0       0      66        0.0%
BANK36             100      0       0      67        0.0%
BITBANK35          100      0       0      64        0.0%
BANK35             100      0       0      65        0.0%
BITBANK34          100      0       0      62        0.0%
BANK34             100      0       0      63        0.0%
BITBANK33          100      0       0      60        0.0%
BANK33             100      0       0      61        0.0%
BITBANK32          100      0       0      58        0.0%
BANK32             100      0       0      59        0.0%
BITBANK31          100      0       0      56        0.0%
BANK31             100      0       0      57        0.0%
BITBANK30          100      0       0      54        0.0%
BANK30             100      0       0      55        0.0%
BITBANK29          100      0       0      52        0.0%
BANK29             100      0       0      53        0.0%
BITBANK28          100      0       0      50        0.0%
BANK28             100      0       0      51        0.0%
BITBANK27          100      0       0      48        0.0%
BANK27             100      0       0      49        0.0%
BITBANK26          100      0       0      46        0.0%
BANK26             100      0       0      47        0.0%
BITBANK25          100      0       0      44        0.0%
BANK25             100      0       0      45        0.0%
BITBANK24          100      0       0      42        0.0%
BANK24             100      0       0      43        0.0%
BITBANK23          100      0       0      40        0.0%
BANK23             100      0       0      41        0.0%
BITBANK22          100      0       0      38        0.0%
BANK22             100      0       0      39        0.0%
BITBANK21          100      0       0      36        0.0%
BANK21             100      0       0      37        0.0%
BITBANK20          100      0       0      34        0.0%
BANK20             100      0       0      35        0.0%
BITBANK19          100      0       0      32        0.0%
BANK19             100      0       0      33        0.0%
BITBANK18          100      0       0      30        0.0%
BANK18             100      0       0      31        0.0%
BITBANK17          100      0       0      28        0.0%
BANK17             100      0       0      29        0.0%
BITBANK16          100      0       0      26        0.0%
BANK16             100      0       0      27        0.0%
BITBANK15          100      0       0      24        0.0%
BANK15             100      0       0      25        0.0%
BITBANK14          100      0       0      22        0.0%
BANK14             100      0       0      23        0.0%
BITBANK13          100      0       0      20        0.0%
BANK13             100      0       0      21        0.0%
BITBANK12          100      0       0      18        0.0%
BANK12             100      0       0      19        0.0%
BITBANK11          100      0       0      16        0.0%
BANK11             100      0       0      17        0.0%
BITBANK10          100      0       0      14        0.0%
BANK10             100      0       0      15        0.0%
BITBANK9           100      0       0      12        0.0%
BANK9              100      0       0      13        0.0%
BITBANK8           100      0       0      10        0.0%
BANK8              100      0       0      11        0.0%
BITBANK7           100      0       0       8        0.0%
BANK7              100      0       0       9        0.0%
BITBANK6           100      0       0       6        0.0%
BANK6              100      0      50       7       31.2%
BITBIGSFRhhhlll     BD      0       0      84        0.0%
BITBANK5            A0      0       0       4        0.0%
BANK5               A0     61      99       5       95.6%
BITBIGSFRhhhllh     74      0       0      76        0.0%
BITBIGSFRhhhlll     64      0       0      85        0.0%
BITBIGSFRll         60      0       0      96        0.0%
BITCOMRAM           5F      0       0       0        0.0%
COMRAM              5F     5B      5D       1       97.9%
BITBIGSFRhhhlll     48      0       0      90        0.0%
BITBIGSFRlhh        43      0       0      94        0.0%
BITBIGSFRhhhhhh     29      0       0      70        0.0%
BITBIGSFRhhhlll     17      0       0      88        0.0%
BITBIGSFRhhhlll     13      0       0      89        0.0%
BITBIGSFRhhhllh      F      0       0      75        0.0%
BITBIGSFRhhhllh      B      0       0      74        0.0%
BITBIGSFRhhhlll      5      0       0      82        0.0%
BITBIGSFRhhhlll      3      0       0      81        0.0%
BITBIGSFRhhhllh      3      0       0      77        0.0%
BITBIGSFRhhhlll      3      0       0      80        0.0%
BITBIGSFRhhhlll      3      0       0      79        0.0%
BITBIGSFRhhhllh      3      0       0      78        0.0%
BITBIGSFRhhhhhl      2      0       0      71        0.0%
BITBIGSFRhhhhlh      2      0       0      72        0.0%
BITBIGSFRhhhhll      2      0       0      73        0.0%
BITBIGSFRhhhlll      1      0       0      83        0.0%
BITBIGSFRhhhlll      1      0       0      86        0.0%
BITBIGSFRhhhlll      1      0       0      87        0.0%
BITBIGSFRlhl         1      0       0      95        0.0%
BITBIGSFRhhlh        1      0       0      92        0.0%
BITBIGSFRhl          1      0       0      93        0.0%
BIGSFR_1             0      0       0     200        0.0%
BIGSFR               0      0       0     200        0.0%
BITSFR_6             0      0       0     200        0.0%
SFR_6                0      0       0     200        0.0%
BITSFR_5             0      0       0     200        0.0%
SFR_5                0      0       0     200        0.0%
BITSFR_4             0      0       0     200        0.0%
SFR_4                0      0       0     200        0.0%
BITSFR_3             0      0       0     200        0.0%
SFR_3                0      0       0     200        0.0%
BITSFR_2             0      0       0     200        0.0%
SFR_2                0      0       0     200        0.0%
BITSFR_1             0      0       0     200        0.0%
SFR_1                0      0       0     200        0.0%
BITSFR               0      0       0     200        0.0%
SFR                  0      0       0     200        0.0%
STACK                0      0       0       2        0.0%
NULL                 0      0       0       0        0.0%
ABS                  0      0     146      97        0.0%
DATA                 0      0     146       3        0.0%
CODE                 0      0       0       0        0.0%


Microchip Technology PIC18 Macro Assembler V2.40 build 20220703182018 
Symbol Table                                                                                   Fri May 05 19:08:31 2023

                                ___fldiv@aexp 0535                                  ___fldiv@bexp 0534  
                                ___fldiv@sign 052D                                            l51 5E10  
                                          l45 5E2E                                            l48 5E4A  
                         ___wmul@multiplicand 0505                                           l152 553A  
                                         l218 5828                                           l244 5E4E  
                                         l253 5EA2                                           l350 594A  
                                         l271 5E8A                                           l511 5C30  
                                         l247 5E60                                           l504 5E98  
                                         l265 5E7C                                           l362 5CD4  
                                         l442 5EA8                                           l602 43FA  
                                         l268 5E6E                                           l365 5CF4  
                                         l623 5DC6                                           l640 5736  
                                         l632 5D3E                                           l626 5D22  
                                         l570 5A34                                           l635 5D4C  
                                         l571 5A3C                                           l652 517E  
                                         l580 42D4                                           l645 577E  
                                         l629 5D30                                           l565 5A04  
                                         l662 5DEC                                           l478 5D76  
                                         l590 4374                                           l582 4300  
                                         l639 57AC                                           l648 57B4  
                                         l584 430E                                           l921 55E4  
                                         l586 433A                                           l578 42C6  
                                         l659 58EE                                           l932 5388  
                                         l596 43B6                                           l588 4348  
                                         l927 5342                                           l776 4DB2  
                                         l936 5BC8                                           l789 4F16  
                                         l959 5284                                           _abs 5B52  
                                         _pad 55E6                                           tosl 0004FD  
                                         wreg 0004E8                                  ___flmul@aexp 052A  
                                ___flmul@bexp 052F                                  ___flmul@sign 0529  
                                ___flmul@temp 0534                                  ___flmul@prod 0530  
                                ___fltol@exp1 050C                                          ?_abs 0515  
                                        l1207 3938                                          l1320 4C2A  
                                        l1216 3A08                                          l1232 5A82  
                                        l1217 39F6                                          l1331 4BC2  
                                        l1244 42B2                                          l1324 4B66  
                                        l1404 4864                                          l1420 2834  
                                        l1340 5D9E                                          l1317 4ACE  
                                        l1246 4112                                          l1190 381E  
                                        l1255 4158                                          l1191 380C  
                                        l1415 30BE                                          l1280 3F18  
                                        l1192 37D2                                          l1257 41D0  
                                        l1249 40D6                                          l1258 41BE  
                                        l1418 29EE                                          l1514 599E  
                                        l1283 3DAA                                          l1532 5B90  
                                        l1380 566C                                          l1276 3BB4  
                                        l1524 5486                                          l1293 3EDA  
                                        l1285 3E22                                          l1382 568E  
                                        l1390 4654                                          l1286 3E10  
                                        l1391 469A                                          l1199 3AEE  
                                        l1623 5B0C                                          l1448 2E36  
                                        l1529 5B88                                          l1609 5724  
                                        l1617 5B50                                          l1377 562A  
                                        l1554 506C                                          l1563 4A76  
                                        l1388 464C                                          l1492 362E  
                                        l1573 5D20                                          l1581 5AC8  
                                        l1557 5074                                          l1566 49BA  
                                        l1591 588E                                          l6001 5CF6  
                                        l6011 5ABE                                          l1588 587E  
                                        l6013 5AC2                                          l6005 5A84  
                                        l6021 45E4                                          l5301 373C  
                                        l1597 59EE                                          l6101 26CC  
                                        l6007 5A88                                          l5231 5E5C  
                                        l6031 4640                                          l6023 45F4  
                                        l5311 3750                                          l5303 3740  
                                        l6111 2716                                          l6103 26F2  
                                        l6009 5A9C                                          l5233 5E9C  
                                        l5241 56BE                                          l6041 468E  
                                        l6033 465C                                          l6025 4614  
                                        l6017 45B0                                          l5401 39A2  
                                        l5321 3764                                          l5313 3754  
                                        l5305 3744                                          l6201 2BB8  
                                        l6121 277E                                          l6113 272E  
                                        l6105 2704                                          l5243 56DC  
                                        l5235 5690                                          l6051 4734  
                                        l6043 4696                                          l6035 466C  
                                        l6027 4624                                          l6019 45D0  
                                        l5411 39CA                                          l5403 39A6  
                                        l5331 379E                                          l5323 3768  
                                        l5315 3758                                          l5307 3748  
                                        l5251 363C                                          l6211 2C76  
                                        l6203 2BEC                                          l6131 27BA  
                                        l6123 2790                                          l6115 2738  
                                        l6107 2708                                          l4701 5EA4  
                                        l5501 4D62                                          l5229 5E4E  
                                        l5245 5712                                          l5237 56A2  
                                        l6061 47DC                                          l6053 473A  
                                        l6045 46A2                                          l6037 4672  
                                        l6029 4626                                          l5421 3A24  
                                        l5413 39D8                                          l5405 39B6  
                                        l5341 37F0                                          l5333 37BA  
                                        l5325 376C                                          l5317 375C  
                                        l5309 374C                                          l5261 367C  
                                        l5253 364A                                          l6301 3070  
                                        l6221 2D4A                                          l6213 2C86  
                                        l6205 2C1E                                          l6133 27C4  
                                        l6125 2794                                          l6109 270E  
                                        ?_pad 0515                                          l4711 54AC  
                                        l4703 5DEE                                          l4551 5E62  
                                        l6311 4F18                                          l5503 4D72  
                                        l5511 4DB8                                          l5239 56B4  
                                        l6071 4834                                          l6063 47F6  
                                        l6055 4740                                          l6047 46AC  
                                        l6039 4682                                          l5431 3A8E  
                                        l5423 3A32                                          l5415 39EE  
                                        l5407 39B8                                          l5351 383C  
                                        l5343 37FE                                          l5335 37CA  
                                        l5319 3760                                          l5327 3770  
                                        l5271 36AE                                          l5263 367E  
                                        l5255 364C                                          l6303 3080  
                                        l6231 2D80                                          l6223 2D5E  
                                        l6215 2CBA                                          l6207 2C34  
                                        l6151 28EE                                          l6143 2844  
                                        l6127 279A                                          l6119 2758  
                                        l4721 5518                                          l4713 54AE  
                                        l4705 5488                                          l4553 5E7E  
                                        l6321 4F88                                          l6313 4F2C  
                                        l5505 4D92                                          l5521 4E18  
                                        l5513 4DC6                                          l6073 4844  
                                        l6065 4810                                          l6049 46B2  
                                        l6057 47A4                                          l5441 3AC8  
                                        l5433 3AAE                                          l5425 3A6C  
                                        l5361 387C                                          l5409 39C6  
                                        l5345 3800                                          l5337 37E0  
                                        l5329 3774                                          l5281 36D6  
                                        l5273 36B0                                          l5257 365C  
                                        l5265 3686                                          l5249 3630  
                                        l6305 3096                                          l6241 2E48  
                                        l6233 2D88                                          l6217 2D10  
                                        l6225 2D62                                          l6209 2C66  
                                        l6153 292C                                          l6145 284A  
                                        l6129 27A2                                          l6137 27E4  
                                        l6081 264C                                          l6401 337E  
                                        l5611 409A                                          l5603 4050  
                                        l4811 4AF4                                          l4803 4A7A  
                                        l4731 5526                                          l4723 551A  
                                        l4715 54B0                                          l4707 54A0  
                                        l4555 5E8C                                          l6323 4F90  
                                        l5531 4E8E                                          l5523 4E36  
                                        l5515 4DE6                                          l5451 5B0E  
                                        l6059 47BE                                          l6067 481E  
                                        l5443 3ACE                                          l5435 3AB2  
                                        l5419 3A18                                          l5427 3A6E  
                                        l5371 38A6                                          l5363 3888  
                                        l5355 3850                                          l5347 380A  
                                        l5339 37EC                                          l5291 3710  
                                        l5283 36E6                                          l5275 36B6  
                                        l5267 3696                                          l5259 366C  
                                        l6307 309E                                          l6251 2E78  
                                        l6243 2E56                                          l6235 2D94  
                                        l6227 2D72                                          l6219 2D16  
                                        l6171 2A1A                                          l6155 2940  
                                        l6163 29BC                                          l6147 287E  
                                        l6139 27FE                                          l6091 2694  
                                        l6083 265A                                          l6411 3446  
                                        l6403 339E                                          l4901 5CD0  
                                        l5461 5DE4                                          l5621 40E0  
                                        l5613 40A2                                          l5605 406A  
                                        l4821 4B4E                                          l4805 4A8A  
                                        l4733 5528                                          l4725 5520  
                                        l4717 5514                                          l4709 54A2  
                                        l4741 5D4E                                          l4549 5E70  
                                        l6333 500A                                          l6325 4F98  
                                        l6317 4F30                                          l5541 4EF6  
                                        l5533 4EAE                                          l5525 4E3E  
                                        l5517 4DEA                                          l5509 4DB4  
                                        l5453 5B1A                                          l6069 482E  
                                        l5701 3B58                                          l5445 3ADC  
                                        l5437 3AC0                                          l5429 3A7E  
                                        l5381 3918                                          l5365 388C  
                                        l5357 3860                                          l5349 382C  
                                        l5373 38AC                                          l5293 3722  
                                        l5285 36F6                                          l5277 36C4  
                                        l5269 369C                                          l6261 2EAA  
                                        l6253 2E88                                          l6245 2E66  
                                        l6237 2E0C                                          l6229 2D7A  
                                        l6181 2A5E                                          l6173 2A22  
                                        l6165 29F6                                          l6157 2974  
                                        l6149 28BC                                          l6093 26A4  
                                        l6085 265E                                          l6077 2636  
                                        l6413 3456                                          l6405 33BE  
                                        l6501 5974                                          l4903 5CD2  
                                        l5631 4138                                          l5623 40FE  
                                        l5615 40B2                                          l5607 407A  
                                        l5551 3F36                                          l4831 4BB2  
                                        l4823 4B50                                          l4815 4B08  
                                        l4807 4A98                                          l6511 507A  
                                        l4735 552E                                          l4727 5522  
                                        l4719 5516                                          l4743 5D5C  
                                        l4751 57B6                                          l6335 503E  
                                        l6327 4FD0                                          l6319 4F50  
                                        l5471 4C5E                                          l5535 4EC0  
                                        l5527 4E52                                          l5519 4DF8  
                                        l5455 5B2C                                          l5711 3B8E  
                                        l5703 3B5E                                          l5447 3ADE  
                                        l5439 3AC6                                          l5391 3972  
                                        l5375 38D2                                          l5383 3928  
                                        l5367 389A                                          l5359 386E  
                                        l5295 3730                                          l5287 36F8  
                                        l5279 36C6                                          l6271 2F52  
                                        l6263 2EBC                                          l6255 2E8C  
                                        l6247 2E6A                                          l6239 2E2C  
                                        l6191 2AA4                                          l6183 2A70  
                                        l6175 2A26                                          l6167 2A06  
                                        l6159 297C                                          l6095 26B4  
                                        l6087 2682                                          l6079 263C  
                                        l6415 346C                                          l6423 3484  
                                        l6407 3416                                          l6351 3108  
                                        l6343 30C0                                          l6503 5994  
                                        l4905 5CE2                                          l5641 4176  
                                        l5633 413E                                          l5625 4100  
                                        l5617 40C6                                          l5609 408A  
                                        l5553 3F46                                          l5561 3F70  
                                        l5545 3F1A                                          l4841 4C0A  
                                        l4833 4BD0                                          l4825 4B5C  
                                        l4817 4B10                                          l4809 4ADE  
                                        l6521 50AE                                          l6513 507E  
                                        l4737 5E30                                          l4729 5524  
                                        l4745 5D5E                                          l4753 57F4  
                                        l4921 5C14                                          l6337 5050  
                                        l5481 4CA0                                          l5473 4C62  
                                        l5465 4C2C                                          l5529 4E60  
                                        l5537 4EC6                                          l5457 5B30  
                                        l5801 3EEE                                          l5713 3B9E  
                                        l5705 3B6C                                          l5393 397C  
                                        l5385 394E                                          l5377 3906  
                                        l5369 389C                                          l5297 3734  
                                        l5289 3700                                          l6281 2FA0  
                                        l6273 2F5A                                          l6265 2EC0  
                                        l6257 2E92                                          l6249 2E70  
                                        l6193 2B08                                          l6177 2A38  
                                        l6185 2A78                                          l6169 2A12  
                                        l6097 26C0                                          l6089 268C  
                                        l6433 3544                                          l6417 3474  
                                        l6425 34B8                                          l6361 3134  
                                        l6353 3114                                          l6345 30E8  
                                        l5459 5DC8                                          l4771 5DC4  
                                        l5651 41E0                                          l5643 417A  
                                        l5635 4148                                          l5627 4110  
                                        l5619 40D4                                          l5571 3F9C  
                                        l5563 3F80                                          l5555 3F56  
                                        l5547 3F26                                          l4843 4C18  
                                        l4835 4BD2                                          l4827 4B98  
                                        l4819 4B1C                                          l6523 50BA  
                                        l6515 508A                                          l6507 5076  
                                        l4739 58F0                                          l4747 5D60  
                                        l4755 5804                                          l4931 59F0  
                                        l5491 4CFA                                          l5483 4CBE  
                                        l5475 4C70                                          l5467 4C30  
                                        l5539 4ED6                                          l5803 3EFC  
                                        l5731 3C20                                          l5723 3BE8  
                                        l5715 3BA4                                          l5707 3B6E  
                                        l5395 398A                                          l5387 395E  
                                        l5379 3908                                          l5299 3738  
                                        l6283 2FB0                                          l6267 2EC6  
                                        l6259 2E98                                          l6275 2F5E  
                                        l6195 2B60                                          l6187 2A80  
                                        l6179 2A46                                          l6099 26C8  
                                        l6443 35C0                                          l6435 356E  
                                        l6427 34DC                                          l6419 347C  
                                        l6371 31EA                                          l6355 3116  
                                        l6363 316C                                          l6347 30F6  
                                        l4781 5744                                          l4773 5D22  
                                        l4765 5DA0                                          l5661 4242  
                                        l5653 41EC                                          l5645 4188  
                                        l5637 4156                                          l5629 4122  
                                        l5573 3FAC                                          l5581 3FD6  
                                        l5565 3F86                                          l5557 3F66  
                                        l5549 3F34                                          l4845 4C1A  
                                        l4837 4BD6                                          l4829 4BA4  
                                        l6525 511C                                          l6517 5096  
                                        l6509 5076                                          l4749 5D70  
                                        l4757 5814                                          l4861 5E16  
                                        l4941 5A1A                                          l4933 59F8  
                                        l5493 4D28                                          l5485 4CC6  
                                        l5477 4C90                                          l5469 4C3E  
                                        l5821 556A                                          l5805 3EFE  
                                        l5741 3C6A                                          l5733 3C38  
                                        l5725 3BF4                                          l5717 3BC4  
                                        l5709 3B7E                                          l5397 398C  
                                        l5813 5A3E                                          l5901 5254  
                                        l6293 3018                                          l6285 2FE0  
                                        l6277 2F7C                                          l6269 2F1E  
                                        l6197 2B94                                          l6189 2A90  
                                        l6437 358E                                          l6429 3510  
                                        l6445 35F0                                          l6381 3262  
                                        l6373 31F8                                          l6365 317E  
                                        l6357 3128                                          l6349 3104  
                                        l6541 42B4                                          l4791 5790  
                                        l4783 574A                                          l4775 5726  
                                        l4767 5DA4                                          l5671 42A0  
                                        l5663 4258                                          l5655 41FA  
                                        l5647 41B6                                          l5639 4168  
                                        l5591 4018                                          l5583 3FE6  
                                        l5575 3FBC                                          l5567 3F8C  
                                        l5559 3F68                                          l4839 4BFA  
                                        l6527 517E                                          l6519 50A2  
                                        l4759 5824                                          l4871 5E2A  
                                        l4863 5E1A                                          l4943 5A26  
                                        l4935 59FA                                          l4927 5C28  
                                        l4919 5C00                                          l5495 4D48  
                                        l5487 4CDA                                          l5479 4C94  
                                        l5911 55F4                                          l5831 55E2  
                                        l5823 557A                                          l5807 3F04  
                                        l5751 3CC0                                          l5743 3C7A  
                                        l5735 3C44                                          l5727 3BFE  
                                        l5719 3BD4                                          l5399 399A  
                                        l5815 5A4E                                          l5903 5264  
                                        l6295 302E                                          l6287 2FEE  
                                        l6279 2F98                                          l6199 2B9A  
                                        l6391 3304                                          l6383 328A  
                                        l6375 3218                                          l6367 31A6  
                                        l6535 5D78                                          l6543 42B8  
                                        l4785 5758                                          l4769 5DBC  
                                        l5673 42A6                                          l5665 4272  
                                        l5657 4224                                          l5585 3FFC  
                                        l5577 3FCC                                          l5569 3F9A  
                                        l4865 5E1E                                          l4937 5A02  
                                        l5497 4D4A                                          l5489 4CE8  
                                        l5921 564A                                          l5913 5608  
                                        l5825 55A8                                          l5841 52F2  
                                        l5809 3F08                                          l5761 3D64  
                                        l5753 3CDC                                          l5745 3C86  
                                        l5737 3C50                                          l5729 3C14  
                                        l5905 5274                                          l6297 3034  
                                        l6289 3006                                          l6393 3324  
                                        l6385 3294                                          l6369 31DC  
                                        l6449 3602                                          l6537 5D82  
                                        l6561 4366                                          l6553 4312  
                                        l6491 58B8                                          l4787 5774  
                                        l5675 42A8                                          l5667 428E  
                                        l5659 4228                                          l5587 400C  
                                        l5595 402C                                          l5579 3FCE  
                                        l4867 5E22                                          l4859 5E12  
                                        l4939 5A16                                          l5499 4D5C  
                                        l5923 564E                                          l5915 5616  
                                        l5827 55B8                                          l5819 553C  
                                        l5851 5380                                          l5843 5302  
                                        l5835 5286                                          l5771 3DBA  
                                        l5763 3D72                                          l5755 3CE8  
                                        l5747 3C96                                          l5739 3C5E  
                                        l5691 3B1C                                          l5683 3AF0  
                                        l5931 538A                                          l6299 3052  
                                        l6387 32A2                                          l6379 3226  
                                        l6571 43C4                                          l6555 432C  
                                        l6547 42D8                                          l6493 58CE  
                                        l4789 578C                                          l5669 4292  
                                        l5597 403C                                          l5589 4014  
                                        l4869 5E26                                          l5925 567A  
                                        l5917 5622                                          l5909 55E6  
                                        l5829 55DC                                          l5853 5386  
                                        l5845 5310                                          l5837 52B4  
                                        l5773 3DC8                                          l5765 3D90  
                                        l5757 3D04                                          l5749 3CB0  
                                        l5693 3B2C                                          l5685 3AFC  
                                        l5861 5BB8                                          l5933 53AA  
                                        l6397 3332                                          l6389 32CA  
                                        l6581 444C                                          l6573 43EC  
                                        l6565 4382                                          l6549 42F2  
                                        l6487 5890                                          l5599 403C  
                                        l5927 5B52                                          l5919 5636  
                                        l5847 5322                                          l5839 52C4  
                                        l5783 3E32                                          l5791 3E7A  
                                        l5775 3DCC                                          l5767 3D9A  
                                        l5759 3D2E                                          l5695 3B3C  
                                        l5687 3B0A                                          l5871 51AA  
                                        l5935 53E8                                          l5943 5428  
                                        l6399 336E                                          l6591 44E8  
                                        l6583 4468                                          l6567 43A8  
                                        l6559 434C                                          l4897 5CC8  
                                        l6489 589C                                          l5929 5B6C  
                                        l5849 5330                                          l5793 3E94  
                                        l5785 3E3E                                          l5777 3DDA  
                                        l5769 3DA8                                          l5697 3B42  
                                        l5689 3B0C                                          l5857 5B92  
                                        l5881 51F8                                          l5873 51D4  
                                        l5865 5180                                          l5945 543A  
                                        l5937 5410                                          l5961 4866  
                                        l5953 5ACA                                          l6497 594C  
                                        l6593 44FC                                          l6585 4484  
                                        l6577 4408                                          l4899 5CCC  
                                        l5795 3EA8                                          l5787 3E4C  
                                        l5779 3E08                                          l5699 3B52  
                                        l5859 5BA8                                          l5891 5224  
                                        l5875 51D6                                          l5867 5196  
                                        l5939 541C                                          l5963 4886  
                                        l5955 5ADA                                          l6499 5958  
                                        l6595 4504                                          l6587 44D0  
                                        l6579 442E                                          l5797 3EC2  
                                        l5789 3E76                                          l5877 51E6  
                                        l5949 547E                                          l5981 4A2E  
                                        l5973 496E                                          l5965 48DC  
                                        l5957 582A                                          l6781 315E  
                                        l6597 4518                                          l6589 44DC  
                                        l5799 3EDE                                          l5887 5210  
                                        l5879 51EA                                          l5983 4A56  
                                        l5975 49AA                                          l5967 48F0  
                                        l5959 5848                                          l5991 59B4  
                                        l6783 349A                                          l6599 458E  
                                        l5897 5238                                          l5889 521A  
                                        l5985 4A66                                          l5969 48FE  
                                        l5977 49DE                                          l5993 59C0  
                                        l6785 3558                                          l5899 5244  
                                        l5979 4A1A                                          l5995 59C4  
                                        l6787 35E2                                          l6789 4FBA  
                                        l5997 59D0                                          l5989 59A0  
                                        l5999 59D4                                          STR_1 2601  
                                        STR_2 262C                                          STR_5 2630  
                                        _LATA 0004BE                                          _LATB 0004BF  
                                        _LATC 0004C0                                          _LATD 0004C1  
                                        _LATE 0004C2                                          _LATF 0004C3  
                                        u5010 5CE2                                          u5011 5CDE  
                                        u5030 5C14                                          u5031 5C10  
                                        u6000 4188                                          u5040 5A12  
                                        u6001 4184                                          u5041 5A0E  
                                        u6010 41B6                                          u5050 5A34  
                                        u6011 41B2                                          u5051 5A30  
                                        u6020 41CC                                          u5300 56DC  
                                        u6100 3B2C                                          u6021 41C8  
                                        u5301 56D8                                          u6101 3B28  
                                        u6030 41E0                                          u5310 5712  
                                        u6110 3B6C                                          u6031 41DC  
                                        u5311 570E                                          u6111 3B68  
                                        u6040 41FA                                          u6200 3E08  
                                        u6120 3B7E                                          u5400 3730  
                                        u5320 364A                                          u7000 2A46  
                                        u6041 41F6                                          u6201 3E04  
                                        u6121 3B7A                                          u5401 372C  
                                        u5321 3646                                          u7001 2A42  
                                        u6050 4242                                          u6210 3E1E  
                                        u6130 3B8E                                          u5410 379E  
                                        u5330 365C                                          u7010 2A70  
                                        u6051 423E                                          u6211 3E1A  
                                        u6131 3B8A                                          u5411 379A  
                                        u5331 3658                                          u7011 2A6C  
                                        u6060 4272                                          u6300 52B4  
                                        u6220 3E32                                          u6140 3BC4  
                                        u5500 387C                                          u5420 37B6  
                                        u5340 366C                                          u7100 2E56  
                                        u7020 2BB8                                          _PMD0 000060  
                                        u6061 426E                                          u6301 52B0  
                                        u6221 3E2E                                          u6141 3BC0  
                                        u5501 3878                                          u5421 37B0  
                                        u5341 3668                                          u7101 2E52  
                                        u7021 2BB4                                          _PMD1 000061  
                                        u6070 42A0                                          u5270 5E5C  
                                        u6310 52F2                                          u6230 3E4C  
                                        u6150 3BD4                                          u5510 389A  
                                        u5430 37B8                                          u5350 36AE  
                                        u7110 2EAA                                          u7030 2C1E  
                                        u6071 429C                                          u5271 5E58  
                                        u6311 52EE                                          u6231 3E48  
                                        u6151 3BD0                                          u5511 3896  
                                        u5351 36AA                                          u7111 2EA6  
                                        u7031 2C1A                                          _PMD3 000063  
                                        u4800 578C                                          u7200 4F50  
                                        u5280 56A2                                          u6320 5310  
                                        u6240 3E94                                          u6160 3D4E  
                                        u6080 3B0A                                          u5600 39D8  
                                        u5520 38D2                                          u5440 37E0  
                                        u5360 36C4                                          u6400 5234  
                                        u7120 2F7C                                          u7040 2C66  
                                        _PMD4 000064                                          u4801 5788  
                                        u7201 4F4C                                          u5281 569E  
                                        u6321 530C                                          u6241 3E90  
                                        u6081 3B06                                          u5601 39D4  
                                        u5521 38CE                                          u5441 37DC  
                                        u5361 36C0                                          u6401 5230  
                                        u7121 2F78                                          u7041 2C62  
                                        _PMD5 000065                                          u4810 57AC  
                                        u7210 4F84                                          u5290 56B4  
                                        u6330 5330                                          u6250 3EC2  
                                        u6170 3DA8                                          u6090 3B1C  
                                        u5610 39EE                                          u5530 3918  
                                        u5450 37FE                                          u5370 36D6  
                                        u6410 5254                                          u7130 2F98  
                                        u7050 2C76                                          _PMD6 000066  
                                        u4811 57A8                                          u7211 4F80  
                                        u5291 56B0                                          u6331 532C  
                                        u6251 3EBE                                          u6171 3DA4  
                                        u6091 3B18                                          u5611 39EA  
                                        u5531 3914                                          u5451 37FA  
                                        u5371 36D2                                          u6411 5250  
                                        u7131 2F94                                          u7051 2C72  
                                        _PMD7 000067                                          u4900 4BD0  
                                        u7220 503E                                          u6340 5380  
                                        u6260 3EFC                                          u6180 3DC8  
                                        u5700 3ADC                                          u5620 3A04  
                                        u5540 394E                                          u5460 381E  
                                        u5380 36E6                                          u6420 5264  
                                        u6500 5410                                          u7140 3000  
                                        u7060 2D10                                          u7300 32CA  
                                        _PMD8 000068                                          u4901 4BCC  
                                        u7221 503A                                          u6341 537C  
                                        u6261 3EF8                                          u6181 3DC4  
                                        u6165 3D44                                          u5701 3AD8  
                                        u5621 3A00                                          u5541 394A  
                                        u5461 381A                                          u5381 36E2  
                                        u6421 5260                                          u6501 540C  
                                        u7141 2FFA                                          u7061 2D0C  
                                        u7301 32C6                                          u4750 5D30  
                                        u4910 4C0A                                          u4830 4A8A  
                                        u7230 5050                                          u5710 5B50  
                                        u6430 55F4                                          u6270 556A  
                                        u6190 3DDA                                          u6350 5BA8  
                                        u5630 3A18                                          u5550 395E  
                                        u5470 382C                                          u5390 3722  
                                        u6510 543A                                          u7150 3002  
                                        u7070 2D5E                                          u7310 336E  
                                        u4751 5D2C                                          u4911 4C06  
                                        u4831 4A86                                          u7231 504C  
                                        u5711 5B4C                                          u6431 55F0  
                                        u6271 5566                                          u6191 3DD6  
                                        u6351 5BA4                                          u5631 3A14  
                                        u5551 395A                                          u5471 3828  
                                        u5391 371E                                          u6511 5436  
                                        u7071 2D5A                                          u7311 336A  
                                        u4760 5D3E                                          u4920 4C18  
                                        u4840 4A98                                          u5720 4C3E  
                                        u5800 4DF8                                          u6440 5616  
                                        u6280 55A8                                          u5640 3A32  
                                        u5560 398A                                          u5480 383C  
                                        u6360 5196                                          u7160 3014  
                                        u7080 2E0C                                          u7320 339E  
                                        u7240 30E8                                          u7400 430E  
                                        u4761 5D3A                                          u4921 4C14  
                                        u4841 4A94                                          u5721 4C3A  
                                        u5801 4DF4                                          u6441 5612  
                                        u6281 55A4                                          u5641 3A2E  
                                        u5561 3986                                          u5481 3838  
                                        u6361 5192                                          u7161 3010  
                                        u7081 2E08                                          u7321 339A  
                                        u7241 30E4                                          u7401 430A  
                                        u4770 5D4C                                          u4850 4AF4  
                                        u5730 4C70                                          u5810 4E36  
                                        u6450 566C                                          u6290 55DC  
                                        u5650 3A6C                                          u5570 399A  
                                        u5490 386E                                          u6370 51CA  
                                        u6530 5474                                          u6610 496A  
                                        u7170 3052                                          u7090 2E48  
                                        u7330 33BE                                          u7250 317E  
                                        u7410 433A                                          u4771 5D48  
                                        u4851 4AF0                                          u5731 4C6C  
                                        u5811 4E32                                          u6451 5668  
                                        u6291 55D8                                          u5651 3A68  
                                        u5571 3996                                          u5491 386A  
                                        u6531 546E                                          u6611 4966  
                                        u7171 304E                                          u7091 2E44  
                                        u7331 33BA                                          u7251 317A  
                                        u7411 4336                                          u4780 5744  
                                        u5900 3FBC                                          u4860 4B4A  
                                        u6700 5A9C                                          u5820 4E60  
                                        u6460 567A                                          u5660 3A7E  
                                        u5580 39B6                                          u6380 51F8  
                                        u6540 5476                                          u6620 498E  
                                        u7180 3070                                          u7340 34D8  
                                        u7260 31A6                                          u7500 4408  
                                        u7420 4348                                          u4781 5740  
                                        u5901 3FB8                                          u4861 4B46  
                                        u6701 5A98                                          u5741 4C9A  
                                        u5821 4E5C                                          u6461 5676  
                                        u5661 3A7A                                          u5581 39B2  
                                        u6381 51F4                                          u6525 544C  
                                        u6605 4912                                          u7181 306C  
                                        u7341 34D4                                          u7261 31A2  
                                        u7501 4404                                          u7421 4344  
                                        u7350 58CE                                          u4790 5758  
                                        u5910 3FFC                                          u4870 4B94  
                                        u6710 5ABE                                          u5750 4CBE  
                                        u5830 4E8E                                          u6470 5B6C  
                                        u5670 3A8E                                          u5590 39C6  
                                        u6390 520C                                          u6630 49AA  
                                        u6606 491C                                          u6550 5B0C  
                                        u7190 3080                                          u7270 31EA  
                                        u7510 4418                                          u7430 4374  
                                        u7351 58CA                                          u4791 5754  
                                        u5911 3FF8                                          u4871 4B90  
                                        u6711 5ABA                                          u5751 4CBA  
                                        u5831 4E8A                                          u6471 5B68  
                                        u5671 3A8A                                          u5591 39C2  
                                        u6391 5208                                          u6375 51C0  
                                        u6631 49A6                                          u6607 492C  
                                        u6551 5B08                                          u7191 307C  
                                        u7271 31E6                                          u7511 4412  
                                        u7431 4370                                          u5920 403C  
                                        u4880 4BB2                                          u5760 4CE8  
                                        u5840 4ED6                                          u6800 47DC  
                                        u6720 45E0                                          u5680 3AAE  
                                        u6480 53CA                                          u6640 49FE  
                                        u6560 5848                                          u7280 3262  
                                        u7360 5994                                          u7520 4442  
                                        u7440 4382                                          u5921 4038  
                                        u4881 4BAE                                          u5761 4CE4  
                                        u5841 4ED2                                          u6801 47D8  
                                        u6721 45DA                                          u5681 3AAA  
                                        u6625 4984                                          u6561 5844  
                                        u7281 325E                                          u7361 5990  
                                        u7521 4438                                          u7441 437E  
                                        u5930 40B2                                          u5850 3F34  
                                        u4890 4BC2                                          u5770 4D28  
                                        u6810 47F6                                          u6730 45E2  
                                        u5690 3AC0                                          u6490 53E8  
                                        u6650 4A1A                                          u6570 48AE  
                                        u7290 328A                                          u7530 445E  
                                        u7450 4392                                          u7370 42C6  
                                        u5931 40AE                                          u5851 3F30  
                                        u4891 4BBE                                          u5771 4D24  
                                        u6811 47F2                                          u5691 3ABC  
                                        u6491 53E4                                          u6651 4A16  
                                        u7291 3286                                          u7531 4456  
                                        u7451 438C                                          u7371 42C2  
                                        u5940 40D4                                          u5860 3F46  
                                        u5780 4D72                                          u6820 4810  
                                        u6740 45F4                                          u6660 4A56  
                                        u6580 48DC                                          u6900 277E  
                                        u7540 447A                                          u7516 441A  
                                        u7460 43B6                                          u7380 42D4  
                                        u5941 40D0                                          u5861 3F42  
                                        u5781 4D6E                                          u6821 480C  
                                        u6741 45F0                                          u6485 53C0  
                                        u6661 4A52                                          u6645 49F4  
                                        u6581 48D8                                          u6901 277A  
                                        u7541 4472                                          u7461 43B2  
                                        u7381 42D0                                          u5950 40FE  
                                        u5870 3F56                                          u5790 4DC6  
                                        u6830 481E                                          u6750 4624  
                                        u6590 48FE                                          u6670 59EE  
                                        u6910 2790                                          u7550 44FC  
                                        u7470 43C4                                          u7390 4300  
                                        u7607 5DC0                                          u5951 40FA  
                                        u5871 3F52                                          u5791 4DC2  
                                        u6831 481A                                          u6751 4620  
                                        u6591 48FA                                          u6575 48A4  
                                        u6671 59EA                                          u6911 278C  
                                        u7551 44F8                                          u7471 43C0  
                                        u7391 42FC                                          u5960 4122  
                                        u5880 3F9A                                          u6680 5D1A  
                                        u6840 482E                                          u6760 4640  
                                        u6920 2830                                          u7528 4446  
                                        u7480 43D4                                          u7456 4394  
                                        u7617 5746                                          u5961 411E  
                                        u5881 3F96                                          u6681 5D14  
                                        u6841 482A                                          u6761 463C  
                                        u6921 282C                                          u7481 43CE  
                                        u5970 4138                                          u5890 3FAC  
                                        u6690 5D1C                                          u6770 466C  
                                        u6930 28BC                                          u6850 265A  
                                        u7538 4462                                          u7490 43FA  
                                        u5971 4134                                          u5891 3FA8  
                                        u6771 4668                                          u6931 28B8  
                                        u6851 2656                                          u7491 43F6  
                                        u5980 4156                                          u6780 4682  
                                        u6940 28EE                                          u6860 26A4  
                                        u7548 447E                                          u5981 4152  
                                        u6781 467E                                          u6941 28EA  
                                        u6861 26A0                                          u5990 4176  
                                        u6790 47BE                                          u6950 292C  
                                        u6870 26B4                                          u7486 43D6  
                                        u5991 4172                                          u6791 47BA  
                                        u6951 2928                                          u6871 26B0  
                                        u7567 459A                                          u6960 29B8  
                                        u6880 26F2                                          u7577 59FC  
                                        u6961 29B4                                          u6881 26EE  
                                        u6970 29EE                                          u6890 2704  
                                        u7587 5A1C                                          u6971 29EA  
                                        u6891 2700                                          u6980 2A06  
                                        u7597 5DAE                                          u6981 2A02  
                                        u6990 2A38                                          u6991 2A34  
                                        _WPUA 000401                                          _WPUB 000409  
                                        _WPUC 000411                                          _WPUD 000419  
                                        _WPUE 000421                                          _WPUF 000429  
                                        abs@a 0515                                          _dbuf 0600  
                                        _flag 05E1                                          _labs 582A  
                                        _leda 05DD                                          _ledb 05DB  
                                        _ledc 05D9                                          _atoi 4F18  
                                        _cont 05E3                                          _main 42B4  
                                        _dtoa 45B0                                          _hume 05E5  
                                        _prec 05CF                                          _temp 05E9  
                                        pad@i 051C                                          pad@p 0519  
                                        fsr1h 0004E2                                          fsr2h 0004DA  
                                        indf2 0004DF                                          fsr1l 0004E1  
                                        pad@w 051E                                          fsr2l 0004D9  
                               ___fpclassifyf 538A                                          prodh 0004F4  
                                        prodl 0004F3                                          start 001A  
                             ___fldiv@new_exp 052E                                  ___param_bank 000000  
                                       ??_abs 0517                                         ??_pad 051B  
                     __end_of_TMR0_Initialize 5D78                ??_TMR0_DefaultInterruptHandler 0501  
                            ??_DHT11_Response 0503                 __end_of_OSCILLATOR_Initialize 5E4C  
                               ___fltol@sign1 050B                               __end_of___aodiv 4DB4  
                                       ?_labs 0503                                         _ADACT 0003F9  
                                       _ADCAP 0003F0                                         ?_atoi 0509  
                             __end_of___fladd 3AF0                                         ?_main 0501  
                                       ?_dtoa 0520                                         _ADCLK 0003FA  
                             __end_of___aomod 4F18                                         _ADCNT 0003E6  
                                       _ADPCH 0003EC                               __end_of___fldiv 42B4  
                                       _ADREF 0003F8                               __end_of___flneg 5BCA  
                                       _ADRPT 0003E7                               __end_of___flmul 3F1A  
                             __end_of___flsub 5A84                               __end_of___fltol 5286  
                                       _U1P1H 0002A6                                         _U1P2H 0002A8  
                                       _U1P3H 0002AA                                         _U1P1L 0002A5  
                                       _U1P2L 0002A7                                         _U1P3L 0002A9  
                                       _U1UIR 0002B1                                         _U1RXB 0002A1  
                                       _U1TXB 0002A3                                         i2l501 5C94  
                                       i2l507 5EAA                                         i2l449 5C5A  
                                       i2l497 5BFE                                         _OSCEN 0000B3  
                                vfpfcnvrt@fmt 0555                                         _TMR0H 000319  
                                       _TMR0L 000318                                         _TRISA 0004C6  
                                       _TRISB 0004C7                                         _TRISC 0004C8  
                                       _TRISD 0004C9                                         _TRISE 0004CA  
                                       _TRISF 0004CB                               __end_of_get_DHT 5C32  
                   ?_TMR0_SetInterruptHandler 0503                              __end_of_TMR0_ISR 5C00  
                                       _flags 055C                                         _m_der 05D7  
                                       _m_izq 05D5                                         _fputc 5690  
                                       _fputs 5B0E                               __end_of_isdigit 5D22  
                                       labs@a 0503                                         atoi@n 0510  
                                       pad@fp 0515                                         atoi@s 0509  
                                       _width 05CD                                         _putch 5E9A  
                                       dtoa@d 0522                                         dtoa@i 0541  
                                       dtoa@n 0538                                         dtoa@p 0534  
                                       dtoa@s 0540                                         dtoa@w 0536  
                             __end_of_isspace 5ACA                                         pclath 0004FA  
                                       pclatu 0004FB                                         tablat 0004F5  
                                       status 0004D8                                ?___fpclassifyf 0503  
                        __end_of_getDistancia 5A3E              _UART1_DefaultFramingErrorHandler 000000  
                           ??_DHT11_Read_Data 053A                             ??_DHT11_Join_Data 050D  
                           ??_DHT11_Read_Byte 0505                               __initialization 5C96  
                                __end_of_labs 5890                                  __end_of_atoi 5076  
                                __end_of_main 45B0                                  __end_of_dtoa 4866  
                 ?_INTERRUPT_InterruptManager 0501                                  ?_UART1_Write 0501  
                                      ??_labs 0507                                        ??_atoi 050B  
                                      ??_main 05BF                                        ??_dtoa 052A  
                               __activetblptr 000003                           DHT11_Read_Data@info 053A  
                            _UART1_Initialize 57B6                                        _ADACCH 0003E4  
                                      _ADACCL 0003E3                                        _ADACCU 0003E5  
                                      _ADACQH 0003EF                                        _ADACQL 0003EE  
                                      _ADCON0 0003F3                                        _ADCON1 0003F4  
                                      _ADCON2 0003F5                                        _ADCON3 0003F6  
                                      _ADERRH 0003DE                                        _ADERRL 0003DD  
                                      ?_fputc 0505                                        _ACTCON 0000AC  
                                      _ADLTHH 0003DA                                        _ADLTHL 0003D9  
                                      ?_fputs 050E                                        _ADRESH 0003EB  
                                      _ADRESL 0003EA                                        _ADPREH 0003F2  
                                      _ADPREL 0003F1                                        _ADSTAT 0003F7  
                                      _ADUTHH 0003DC                                        _ADUTHL 0003DB  
                                      _ANSELA 000400                                        ?_putch 0501  
                                      _ANSELB 000408                                        _ANSELC 000410  
                                      _ANSELD 000418                                        _ANSELE 000420  
                                      _ANSELF 000428                                        _T0CON0 00031A  
                                      _T0CON1 00031B                                        _RB1I2C 000289  
                                      _RB2I2C 000288                                        _U1CON0 0002AB  
                                      _U1CON1 0002AC                                        _U1CON2 0002AD  
                                      _RC3I2C 000287                                        _RC4I2C 000286  
                                      _U1BRGH 0002AF                                        _U1FIFO 0002B0  
                                      _U1BRGL 0002AE                                        _ODCONA 000402  
                                      _ODCONB 00040A                                        _ODCONC 000412  
                                      _RF0PPS 000229                                        _ODCOND 00041A  
                                      _ODCONE 000422                                        _ODCONF 00042A  
                                      _INLVLA 000404                                        _INLVLB 00040C  
                                      _INLVLC 000414                                        _INLVLD 00041C  
                                      _INLVLE 000424                                        _INLVLF 00042C  
                                      i2l4911 5BCC                                        i2l4761 5C64  
                                      i2l4913 5BD0                                        i2l4763 5C7A  
                                      i2l4915 5BD6                                        i2l4917 5BEE  
                                      i2l4909 5BCA                                        i2l4983 5C3A  
                                      i2l4985 5C48                                        i2l4987 5C56  
                                      _OSCFRQ 0000B1                                 vfpfcnvrt@done 058C  
                       _UART1_SetErrorHandler 5E7E                              __end_of___xxtofl 4C2C  
                         DHT11_Read_Byte@data 0509                                  vfprintf@cfmt 059F  
                                      ___flge 5286                                        ___fleq 553C  
                                   ??___aodiv 0513                                     ??___fladd 050B  
                                   ??___aomod 0513                                        ___wmul 5DC8  
                                   ??___fldiv 0525                                     ??___flneg 0507  
                                   ??___flmul 0525                                     ??___flsub 053E  
                                   ??___fltol 0507                                        _efgtoa 2636  
                                      _floorf 4866                                        _memcpy 59A0  
                            ?_TMR0_Initialize 0501                                        _m_stop 05D3  
                                      _ok_dht 05DF                                        clear_0 5C9C  
                                      clear_1 5CA8                                     ??_get_DHT 0505  
                                      isa$std 000001                                        _printf 5D78  
                                      pad@buf 0517                                        dtoa@fp 0520  
                                      _strcpy 5ACA                               _ADCC_Initialize 58F0  
                                      fputc@c 0505                                _PMD_Initialize 5DEE  
                                      fputs@c 0512                                        fputs@i 0513  
                                      fputs@s 050E                                     ??_isdigit 0505  
                             ___fpclassifyf@e 050B                               ___fpclassifyf@u 050D  
                             ___fpclassifyf@x 0503                                  __mediumconst 0000  
                                   ??_isspace 0505                                        tblptrh 0004F7  
                                      tblptrl 0004F6                                        tblptru 0004F8  
                       __end_of_TMR0_CallBack 5C96                              __end_of_vfprintf 59A0  
                   ?_ADCC_GetSingleConversion 0503      TMR0_SetInterruptHandler@InterruptHandler 0503  
        __end_of_UART1_SetOverrunErrorHandler 5E70                  _UART1_SetOverrunErrorHandler 5E62  
                   _UART1_DefaultErrorHandler 000000                                    ___flge@ff1 0536  
                                  ___flge@ff2 053A                               ??___fpclassifyf 0507  
                                ___xxtofl@arg 0519                                  ___xxtofl@exp 0518  
                           _SYSTEM_Initialize 5E12                                  ___xxtofl@val 050F  
                                  ___fleq@ff1 0503                                    ___fleq@ff2 0507  
                                  __accesstop 0560                       __end_of__initialization 5CC0  
                                  ___flneg@f1 0503                            ?_SYSTEM_Initialize 0501  
                               ___rparam_used 000001                                    ___fltol@f1 0503  
                              __pcstackCOMRAM 0501                           ??_SYSTEM_Initialize 0506  
                                   ?_TMR0_ISR 0501                                 __end_of_fputc 5726  
                               __end_of_fputs 5B52                                 __end_of_putch 5EA4  
                      __end_of_PMD_Initialize 5E12                     _UART1_FramingErrorHandler 05F6  
                                     ??_fputc 0509                     __end_of_SYSTEM_Initialize 5E30  
                                     ??_fputs 0512                                       ??_putch 0504  
                                  __pbssBANK5 05C1                                    __pbssBANK6 0600  
               ?_UART1_SetOverrunErrorHandler 0503                        ?_UART1_SetErrorHandler 0503  
                                     IVTBASEH 00045E                                       IVTBASEL 00045D  
                                     IVTBASEU 00045F                                       ?___flge 0536  
                                     ?___fleq 0503              __end_of_TMR0_SetInterruptHandler 5E9A  
                                     ?___wmul 0503                                    ??_TMR0_ISR 0501  
                     __end_of_ADCC_Initialize 594C                                       ?_efgtoa 054A  
                                     _ADFLTRH 0003E2                                       ?_floorf 0536  
                                     _ADFLTRL 0003E1                                       ?_memcpy 0503  
                                     _ADPREVH 0003E9                                       _ADPREVL 0003E8  
                                     _ADSTPTH 0003E0                                       _ADSTPTL 0003DF  
                                     ?_printf 05A1                               ?_PMD_Initialize 0501  
                                     ?_strcpy 0503                                       _U1ERRIE 0002B3  
                                     _U1ERRIR 0002B2                                  _getDistancia 59F0  
                                     _U1RXPPS 000272                                     ?___xxtofl 050F  
                                     _OSCCON1 0000AD                                       _OSCCON3 0000AF  
                                     _OSCTUNE 0000B0                                       _SLRCONA 000403  
                                     _SLRCONB 00040B                                       _SLRCONC 000413  
                                     _SLRCOND 00041B                                       _SLRCONE 000423  
                                     _SLRCONF 00042B                               _DHT11_Read_Data 5076  
                             _DHT11_Join_Data 5890                               _DHT11_Read_Byte 5726  
                               ??_DHT11_Start 0503                                       __Hparam 0000  
                                     __Lparam 0000                      __end_of_UART1_Initialize 582A  
                                     ___aodiv 4C2C                                       ___fladd 3630  
                                     ___aomod 4DB4                                       ___fldiv 3F1A  
                                     ___flneg 5B92                                       ___flmul 3AF0  
                                     ___flsub 5A3E                                       ___fltol 5180  
                                   ?_vfprintf 0599                                  __psmallconst 2600  
                                     __pcinit 5C96                                       _get_DHT 5C00  
                                     __ramtop 2600                                       __ptext0 42B4  
                                     __ptext1 5D78                                       __ptext2 594C  
                                     __ptext3 30C0                                       __ptext4 2636  
                                     __ptext5 5ACA                                       __ptext6 59A0  
                                     __ptext7 582A                                       __ptext8 4866  
                                     __ptext9 538A                         _OSCILLATOR_Initialize 5E30  
                                     _isdigit 5CF6                                    ??___xxtofl 0513  
                    ??_PIN_MANAGER_Initialize 0503                                       _isspace 5A84  
                                     efgtoa@c 0550                                       efgtoa@d 056B  
                                     efgtoa@e 056F                                       efgtoa@f 054C  
                                     efgtoa@g 0582                                       efgtoa@h 0577  
                                     efgtoa@i 057F                                       efgtoa@l 057B  
                                     efgtoa@m 056D                                       efgtoa@n 0586  
                                     efgtoa@p 0562                                       efgtoa@t 0564  
                                     efgtoa@u 0588                                       efgtoa@w 0575  
                                     atoi@neg 050E                          end_of_initialization 5CC0  
                                     floorf@e 0544                                       floorf@m 0540  
                                     floorf@u 0546                                       floorf@x 0536  
                                     memcpy@d 050A                                       memcpy@n 0507  
                                     memcpy@s 050C                                       fputc@fp 0507  
                                     fputs@fp 0510                ??_UART1_SetOverrunErrorHandler 0506  
                           __end_of_vfpfcnvrt 3630                                    efgtoa@mode 0569  
                                  efgtoa@sign 0581                           __end_of_DHT11_Start 5DC8  
                                     postdec2 0004DD                                       postinc0 0004EE  
                                     postinc1 0004E6                                       postinc2 0004DE  
                            vfpfcnvrt@convarg 058E                          getDistancia@contador 0505  
                            ?_ADCC_Initialize 0501                                    ??_vfprintf 055C  
            __end_of_ADCC_GetSingleConversion 5CF6                             UART1_Write@txData 0503  
                                     strcpy@d 0509                                       strcpy@s 0507  
                    _TMR0_SetInterruptHandler 5E8C                                     _PORTAbits 0004CE  
                                   _PORTBbits 0004CF                                     _PORTCbits 0004D0  
                                   _PORTDbits 0004D1                                     _PORTEbits 0004D2  
                                   _PORTFbits 0004D3                       __end_of_DHT11_Read_Data 5180  
                     __end_of_DHT11_Join_Data 58F0                       __end_of_DHT11_Read_Byte 57B6  
                                 ___fladd@grs 0512                                 ___xxtofl@sign 0517  
                                   _TRISEbits 0004CA                                   ___fldiv@grs 0530  
                                 ___fldiv@rem 0529                                   ___flmul@grs 052B  
                __end_of_INTERRUPT_Initialize 5EAA                                __end_of___flge 538A  
                              __end_of___fleq 55E6                                   vfpfcnvrt@ap 0557  
                                 vfpfcnvrt@cp 0597                                   vfpfcnvrt@fp 0553  
                              __end_of___wmul 5DEE                                __end_of_efgtoa 30C0  
                              __end_of_floorf 4A78                                __end_of_memcpy 59F0  
                      ?_OSCILLATOR_Initialize 0501                                    floorf@F526 05C1  
                              __end_of_printf 5DA0                                __end_of_strcpy 5B0E  
                         start_initialization 5C96                                   __end_of_abs 5B92  
                                 __end_of_pad 5690                       ??_UART1_SetErrorHandler 0506  
                                 putch@txData 0504                                    ivt0x8_base 0008  
                          DHT11_Read_Data@hum 0538                            DHT11_Read_Data@tem 0536  
                       __end_of___fpclassifyf 5488                                   _DHT11_Start 5DA0  
                          DHT11_Join_Data@pow 050D                                   vfprintf@fmt 059B  
                                    ??___flge 053E                                      ??___fleq 050B  
                            ??_PMD_Initialize 0503                                      ??___wmul 0507  
                                    ??_efgtoa 0551                                      ??_floorf 053A  
                                    ??_memcpy 0509                                      ??_printf 055C  
                                    ??_strcpy 0507                                     ___fladd@a 0507  
                                   ___fladd@b 0503                              ?_DHT11_Read_Data 0536  
                            ?_DHT11_Join_Data 0509                              ?_DHT11_Read_Byte 0503  
                    _ADCC_GetSingleConversion 5CC6                                     ___fldiv@a 0521  
                                   ___fldiv@b 051D                                     ___flmul@a 0521  
                                   ___flmul@b 051D                                   __pbssCOMRAM 055C  
                                   ___flsub@a 053A                                     ___flsub@b 0536  
                          _UART1_ErrorHandler 05F0                                 __pcstackBANK5 0560  
                            ___aodiv@dividend 0503                              DHT11_Join_Data@h 0509  
                            DHT11_Join_Data@l 050B                              DHT11_Read_Byte@i 0507  
                       _TMR0_InterruptHandler 05ED                                     __pnvBANK5 05ED  
                                 _efgtoa$1834 0566                        _PIN_MANAGER_Initialize 5488  
                                   _dtoa$1803 0532                             ?_UART1_Initialize 0501  
        __end_of_UART1_SetFramingErrorHandler 5E7E                  _UART1_SetFramingErrorHandler 5E70  
             ADCC_GetSingleConversion@channel 0507                                      ?___aodiv 0503  
                                    ?___fladd 0503                                      ?___aomod 0503  
                                    ?___fldiv 051D                              ___aodiv@quotient 0515  
                                    ?___flneg 0503                                      ?___flmul 051D  
                                    ?___flsub 0536                                      ?___fltol 0503  
                          ??_UART1_Initialize 0506                              _uart1RxLastError 055D  
                               ??_UART1_Write 0503                                      ?_get_DHT 0503  
                ??_INTERRUPT_InterruptManager 0501                                     _distancia 05D1  
                                 __smallconst 2600              _UART1_DefaultOverrunErrorHandler 000000  
                                    ?_isdigit 0503                                      ?_isspace 0503  
                              _DHT11_Response 5D22                                 _TMR0_CallBack 5C64  
                                 _U1ERRIRbits 0002B2                          _INTERRUPT_Initialize 5EA4  
                           ??_TMR0_Initialize 0506                                ___wmul@product 0507  
       UART1_SetErrorHandler@interruptHandler 0503                                      _LATDbits 0004C1  
                                    _LATEbits 0004C2                                      _PIE3bits 0004A1  
                  ??_TMR0_SetInterruptHandler 0506                                      i2u502_40 5BEE  
                                    i2u502_41 5BEA                                      i2u506_40 5C48  
                                    i2u506_41 5C44                                      i2u507_40 5C56  
                                    i2u507_41 5C52                                      _PIR3bits 0004B1  
                                    _PIR4bits 0004B2                                      i2u473_40 5C7A  
                                    i2u473_41 5C76                                      i2u474_48 5C80  
                                    i2u474_49 5C94                                      _TMR0_ISR 5BCA  
               ?_UART1_SetFramingErrorHandler 0503                                     _vfpfcnvrt 30C0  
                                  _ADCON0bits 0003F3                                    _ADCON1bits 0003F4  
                                  _ADCON2bits 0003F5                                    _ADCON3bits 0003F6  
                           ___wmul@multiplier 0503                        __end_of_DHT11_Response 5D4E  
                         __end_of_UART1_Write 5E62                                  _isspace$1914 0507  
                              ?_TMR0_CallBack 0501                                    vfpfcnvrt@c 0596  
                                 _INTCON0bits 0004D6                         ?_INTERRUPT_Initialize 0501  
                                  _ADSTATbits 0003F7                                      __Hrparam 0000  
                                   memcpy@tmp 0509                                    vfprintf@ap 059D  
                                    __Lrparam 0000                                    vfprintf@fp 0599  
                     ??_OSCILLATOR_Initialize 0503                                    ?_vfpfcnvrt 0553  
                             ___aodiv@divisor 050B                                      _adc_conv 05C9  
                             ___aodiv@counter 0513                            ___fpclassifyf@F465 05C5  
                                    ___xxtofl 4A78                                    _T0CON0bits 00031A  
                             ?_DHT11_Response 0501                                      __pivt0x8 0008  
                                    __ptext10 5180                                      __ptext11 5A3E  
                                    __ptext20 5690                                      __ptext12 3630  
                                    __ptext21 5E9A                                      __ptext13 5B92  
                                    __ptext30 59F0                                      __ptext22 5E4C  
                                    __ptext14 3AF0                                      __ptext31 5E12  
                                    __ptext23 5B52                                      __ptext15 5286  
                                    __ptext40 5E30                                      __ptext32 57B6  
                                    __ptext24 4DB4                                      __ptext16 553C  
                                    __ptext41 5EA4                                      __ptext33 5E62  
                                    __ptext25 4C2C                                      __ptext17 45B0  
                                    __ptext50 5DC8                                      __ptext42 58F0  
                                    __ptext34 5E70                                      __ptext26 4F18  
                                    __ptext18 55E6                                      __ptext51 5CC6  
                                    __ptext43 5076                                      __ptext35 5E7E  
                                    __ptext27 5A84                                      __ptext19 5B0E  
                                    __ptext52 5C32                                      __ptext44 4A78  
                                    __ptext36 5D4E                                      __ptext28 5CF6  
                                    __ptext53 5BCA                                      __ptext45 3F1A  
                                    __ptext37 5E8C                                      __ptext29 5C00  
                                    __ptext54 5C64                                      __ptext46 5DA0  
                                    __ptext38 5DEE                                      __ptext55 5EAA  
                                    __ptext47 5D22                                      __ptext39 5488  
                                    __ptext56 0000                                      __ptext48 5726  
                                    __ptext49 5890                                    _U1CON0bits 0002AB  
               __end_of_UART1_SetErrorHandler 5E8C                                    strcpy@dest 0503  
                                ?_DHT11_Start 0501          __end_of_TMR0_DefaultInterruptHandler 5EAC  
                _TMR0_DefaultInterruptHandler 5EAA                                      efgtoa@fp 054A  
                                    efgtoa@ne 0560                                      efgtoa@pp 0568  
                                    efgtoa@ou 0571                     _UART1_OverrunErrorHandler 05F3  
UART1_SetOverrunErrorHandler@interruptHandler 0503                                      isa$xinst 000000  
                  ??_ADCC_GetSingleConversion 0505                                      _vfprintf 594C  
          __end_of_INTERRUPT_InterruptManager 5C64                    _INTERRUPT_InterruptManager 5C32  
                                   printf@fmt 05A1                                   _UART1_Write 5E4C  
                            ___aomod@dividend 0503                                 ?_getDistancia 0503  
              ??_UART1_SetFramingErrorHandler 0506                               ??_TMR0_CallBack 0501  
                                    memcpy@d1 0503                                      memcpy@s1 0505  
                                    isdigit@c 0503                        ??_INTERRUPT_Initialize 0503  
                                    intlevel2 0000                                      isspace@c 0503  
                     ?_PIN_MANAGER_Initialize 0501                                     strcpy@src 0505  
             fp__TMR0_DefaultInterruptHandler 0000                 ?_TMR0_DefaultInterruptHandler 0501  
                                 efgtoa@nmode 056A                                      printf@ap 05BD  
UART1_SetFramingErrorHandler@interruptHandler 0503                               ___aomod@divisor 050B  
                                 ??_vfpfcnvrt 0559                               ___aomod@counter 0513  
                              ??_getDistancia 0505                               _TMR0_Initialize 5D4E  
                               ___fladd@signs 050F                                  ___aodiv@sign 0514  
              __end_of_PIN_MANAGER_Initialize 553C                             ??_ADCC_Initialize 0503  
                                ___fladd@aexp 0510                                  ___fladd@bexp 0511  
                                ___aomod@sign 0514  
