

Microchip MPLAB XC8 Assembler V2.40 build 20220703182018 
                                                                                               Sun Jun 18 23:29:39 2023

Microchip MPLAB XC8 C Compiler v2.40 (Free license) build 20220703182018 Og1 
     1                           	processor	18F57Q43
     2                           	fnconf	rparam,??,?,0
     3                           	pagewidth 120
     4                           	opt	flic
     5                           	psect	nvCOMRAM,global,class=COMRAM,space=1,delta=1,lowdata,noexec
     6                           	psect	smallconst,global,reloc=2,class=SMALLCONST,delta=1,noexec
     7                           	psect	cinit,global,reloc=2,class=CODE,delta=1
     8                           	psect	bssCOMRAM,global,class=COMRAM,space=1,delta=1,lowdata,noexec
     9                           	psect	bssBANK5,global,class=BANK5,space=1,delta=1,lowdata,noexec
    10                           	psect	cstackCOMRAM,global,class=COMRAM,space=1,delta=1,lowdata,noexec
    11                           	psect	text0,global,reloc=2,class=CODE,delta=1
    12                           	psect	text1,global,reloc=2,class=CODE,delta=1,group=2
    13                           	psect	text2,global,reloc=2,class=CODE,delta=1
    14                           	psect	text3,global,reloc=2,class=CODE,delta=1
    15                           	psect	text4,global,reloc=2,class=CODE,delta=1
    16                           	psect	text5,global,reloc=2,class=CODE,delta=1
    17                           	psect	text6,global,reloc=2,class=CODE,delta=1
    18                           	psect	text7,global,reloc=2,class=CODE,delta=1
    19                           	psect	text8,global,reloc=2,class=CODE,delta=1
    20                           	psect	text9,global,reloc=2,class=CODE,delta=1
    21                           	psect	text10,global,reloc=2,class=CODE,delta=1
    22                           	psect	text11,global,reloc=2,class=CODE,delta=1
    23                           	psect	text12,global,reloc=2,class=CODE,delta=1
    24                           	psect	text13,global,reloc=2,class=CODE,delta=1
    25                           	psect	text14,global,reloc=2,class=CODE,delta=1
    26                           	psect	text15,global,reloc=2,class=CODE,delta=1
    27                           	psect	text16,global,reloc=2,class=CODE,delta=1
    28                           	psect	text17,global,reloc=2,class=CODE,delta=1
    29                           	psect	text18,global,reloc=2,class=CODE,delta=1
    30                           	psect	text19,global,reloc=2,class=CODE,delta=1
    31                           	psect	ivt0x8,global,reloc=2,class=CODE,delta=1,noexec,keep,optim=
    32                           	psect	intsave_regs,global,class=BIGRAM,space=1,delta=1,noexec
    33                           	psect	text20,global,reloc=2,class=CODE,delta=1
    34                           	psect	rparam,global,class=COMRAM,space=1,delta=1,noexec
    35                           	psect	idloc,global,abs,ovrld,class=IDLOC,space=5,delta=1,noexec
    36                           	psect	config,global,abs,ovrld,class=CONFIG,space=4,delta=1,noexec
    37   000000                     
    38                           ; Version 2.40
    39                           ; Generated 08/12/2021 GMT
    40                           ; 
    41                           ; Copyright © 2021, Microchip Technology Inc. and its subsidiaries ("Microchip")
    42                           ; All rights reserved.
    43                           ; 
    44                           ; This software is developed by Microchip Technology Inc. and its subsidiaries ("Microch
      +                          ip").
    45                           ; 
    46                           ; Redistribution and use in source and binary forms, with or without modification, are
    47                           ; permitted provided that the following conditions are met:
    48                           ; 
    49                           ;     1. Redistributions of source code must retain the above copyright notice, this lis
      +                          t of
    50                           ;        conditions and the following disclaimer.
    51                           ; 
    52                           ;     2. Redistributions in binary form must reproduce the above copyright notice, this 
      +                          list
    53                           ;        of conditions and the following disclaimer in the documentation and/or other
    54                           ;        materials provided with the distribution. Publication is not required when
    55                           ;        this file is used in an embedded application.
    56                           ; 
    57                           ;     3. Microchip's name may not be used to endorse or promote products derived from th
      +                          is
    58                           ;        software without specific prior written permission.
    59                           ; 
    60                           ; THIS SOFTWARE IS PROVIDED BY MICROCHIP "AS IS" AND ANY EXPRESS OR IMPLIED WARRANTIES,
    61                           ; INCLUDING, BUT NOT LIMITED TO, THE IMPLIED WARRANTIES OF MERCHANTABILITY AND FITNESS F
      +                          OR
    62                           ; PURPOSE ARE DISCLAIMED.  IN NO EVENT SHALL MICROCHIP BE LIABLE FOR ANY DIRECT, INDIREC
      +                          T,
    63                           ; INCIDENTAL, SPECIAL, EXEMPLARY, OR CONSEQUENTIAL DAMAGES (INCLUDING BUT NOT LIMITED TO
    64                           ; PROCUREMENT OF SUBSTITUTE GOODS OR SERVICES; LOSS OF USE, DATA OR PROFITS; OR BUSINESS
    65                           ; INTERRUPTION) HOWSOEVER CAUSED AND ON ANY THEORY OF LIABILITY, WHETHER IN CONTRACT, ST
      +                          RICT
    66                           ; LIABILITY, OR TORT (INCLUDING NEGLIGENCE OR OTHERWISE) ARISING IN ANY WAY OUT OF THE U
      +                          SE OF
    67                           ; THIS SOFTWARE, EVEN IF ADVISED OF THE POSSIBILITY OF SUCH DAMAGE.
    68                           ; 
    69                           ; 
    70                           ; Code-generator required, PIC18F57Q43 Definitions
    71                           ; 
    72                           ; SFR Addresses
    73   000000                     _OSCTUNE	set	176
    74   000000                     _OSCFRQ	set	177
    75   000000                     _OSCEN	set	179
    76   000000                     _TRISD	set	1225
    77   000000                     _TRISC	set	1224
    78   000000                     _TRISB	set	1223
    79   000000                     _LATC	set	1216
    80   000000                     _LATB	set	1215
    81                           
    82                           	psect	nvCOMRAM
    83   000543                     __pnvCOMRAM:
    84                           	callstack 0
    85   000543                     _UART1_ErrorHandler:
    86                           	callstack 0
    87   000543                     	ds	3
    88   000546                     _UART1_OverrunErrorHandler:
    89                           	callstack 0
    90   000546                     	ds	3
    91   000549                     _UART1_FramingErrorHandler:
    92                           	callstack 0
    93   000549                     	ds	3
    94   00054C                     _UART1_TxInterruptHandler:
    95                           	callstack 0
    96   00054C                     	ds	3
    97   00054F                     _UART1_RxInterruptHandler:
    98                           	callstack 0
    99   00054F                     	ds	3
   100   000552                     _uart1TxBufferRemaining:
   101                           	callstack 0
   102   000552                     	ds	1
   103   000000                     _U1ERRIRbits	set	690
   104   000000                     _LATBbits	set	1215
   105   000000                     _PMD0	set	96
   106   000000                     _ACTCON	set	172
   107   000000                     _OSCCON1	set	173
   108   000000                     _RF0PPS	set	553
   109   000000                     _RC4I2C	set	646
   110   000000                     _RC3I2C	set	647
   111   000000                     _RB2I2C	set	648
   112   000000                     _RB1I2C	set	649
   113   000000                     _ANSELA	set	1024
   114   000000                     _ANSELB	set	1032
   115   000000                     _ANSELC	set	1040
   116   000000                     _ANSELD	set	1048
   117   000000                     _LATA	set	1214
   118   000000                     _LATD	set	1217
   119   000000                     _LATE	set	1218
   120   000000                     _TRISA	set	1222
   121   000000                     _TRISE	set	1226
   122   000000                     _LATF	set	1219
   123   000000                     _INTCON0bits	set	1238
   124   000000                     _TRISF	set	1227
   125   000000                     _INLVLD	set	1052
   126   000000                     _SLRCOND	set	1051
   127   000000                     _ODCOND	set	1050
   128   000000                     _WPUD	set	1049
   129   000000                     _ANSELE	set	1056
   130   000000                     _INLVLC	set	1044
   131   000000                     _SLRCONC	set	1043
   132   000000                     _ODCONC	set	1042
   133   000000                     _WPUC	set	1041
   134   000000                     _INLVLB	set	1036
   135   000000                     _SLRCONB	set	1035
   136   000000                     _ODCONB	set	1034
   137   000000                     _WPUB	set	1033
   138   000000                     _INLVLE	set	1060
   139   000000                     _SLRCONE	set	1059
   140   000000                     _ODCONE	set	1058
   141   000000                     _WPUE	set	1057
   142   000000                     _ANSELF	set	1064
   143   000000                     _PIE4bits	set	1186
   144   000000                     _INLVLF	set	1068
   145   000000                     _SLRCONF	set	1067
   146   000000                     _ODCONF	set	1066
   147   000000                     _WPUF	set	1065
   148   000000                     _INLVLA	set	1028
   149   000000                     _SLRCONA	set	1027
   150   000000                     _ODCONA	set	1026
   151   000000                     _WPUA	set	1025
   152   000000                     _U1RXB	set	673
   153   000000                     _U1TXB	set	675
   154   000000                     _U1P1L	set	677
   155   000000                     _U1RXPPS	set	626
   156   000000                     _PIR4bits	set	1202
   157   000000                     _U1ERRIE	set	691
   158   000000                     _U1ERRIR	set	690
   159   000000                     _U1UIR	set	689
   160   000000                     _U1FIFO	set	688
   161   000000                     _U1BRGH	set	687
   162   000000                     _U1BRGL	set	686
   163   000000                     _U1CON2	set	685
   164   000000                     _U1CON1	set	684
   165   000000                     _U1CON0	set	683
   166   000000                     _U1P3H	set	682
   167   000000                     _U1P3L	set	681
   168   000000                     _U1P2H	set	680
   169   000000                     _U1P2L	set	679
   170   000000                     _U1P1H	set	678
   171   000000                     _OSCCON3	set	175
   172   000000                     _PMD3	set	99
   173   000000                     _PMD1	set	97
   174   000000                     _PMD8	set	104
   175   000000                     _PMD7	set	103
   176   000000                     _PMD6	set	102
   177   000000                     _PMD5	set	101
   178   000000                     _PMD4	set	100
   179                           
   180                           	psect	smallconst
   181   002600                     __psmallconst:
   182                           	callstack 0
   183   002600  00                 	db	0
   184   002601  49                 	db	73	;'I'
   185   002602  4E                 	db	78	;'N'
   186   002603  46                 	db	70	;'F'
   187   002604  49                 	db	73	;'I'
   188   002605  4E                 	db	78	;'N'
   189   002606  49                 	db	73	;'I'
   190   002607  54                 	db	84	;'T'
   191   002608  59                 	db	89	;'Y'
   192   002609  00                 	db	0
   193   00260A                     STR_3:
   194   00260A  69                 	db	105	;'i'
   195   00260B  6E                 	db	110	;'n'
   196   00260C  66                 	db	102	;'f'
   197   00260D  69                 	db	105	;'i'
   198   00260E  6E                 	db	110	;'n'
   199   00260F  69                 	db	105	;'i'
   200   002610  74                 	db	116	;'t'
   201   002611  79                 	db	121	;'y'
   202   002612  00                 	db	0
   203   002613  4E                 	db	78	;'N'
   204   002614  41                 	db	65	;'A'
   205   002615  4E                 	db	78	;'N'
   206   002616  00                 	db	0
   207   002617                     STR_5:
   208   002617  69                 	db	105	;'i'
   209   002618  6E                 	db	110	;'n'
   210   002619  66                 	db	102	;'f'
   211   00261A  00                 	db	0
   212   00261B                     STR_8:
   213   00261B  6E                 	db	110	;'n'
   214   00261C  61                 	db	97	;'a'
   215   00261D  6E                 	db	110	;'n'
   216   00261E  00                 	db	0
   217   00261F                     STR_1:
   218   00261F  23                 	db	35
   219   002620  00                 	db	0
   220   002621  00                 	db	0	; dummy byte at the end
   221   000000                     
   222                           ; #config settings
   223                           
   224                           	psect	cinit
   225   002AF4                     __pcinit:
   226                           	callstack 0
   227   002AF4                     start_initialization:
   228                           	callstack 0
   229   002AF4                     __initialization:
   230                           	callstack 0
   231                           
   232                           ; Clear objects allocated to BANK5 (16 bytes)
   233   002AF4  EE01  F160         	lfsr	0,__pbssBANK5
   234   002AF8  0E10               	movlw	16
   235   002AFA                     clear_0:
   236   002AFA  6AEE               	clrf	postinc0,c
   237   002AFC  06E8               	decf	wreg,f,c
   238   002AFE  E1FD               	bnz	clear_0
   239                           
   240                           ; Clear objects allocated to COMRAM (34 bytes)
   241   002B00  EE01  F101         	lfsr	0,__pbssCOMRAM
   242   002B04  0E22               	movlw	34
   243   002B06                     clear_1:
   244   002B06  6AEE               	clrf	postinc0,c
   245   002B08  06E8               	decf	wreg,f,c
   246   002B0A  E1FD               	bnz	clear_1
   247                           
   248                           ;
   249                           ; Setup IVTBASE
   250                           ;
   251   002B0C  0104               	movlb	4
   252   002B0E  0E08               	movlw	(ivt0x8_base shr 0)& (0+255)
   253   002B10  6F5D               	movwf	93,b
   254   002B12  0E00               	movlw	(ivt0x8_base shr (0+8))& (0+255)
   255   002B14  6F5E               	movwf	94,b
   256   002B16  0E00               	movlw	(ivt0x8_base shr (0+16))& (0+255)
   257   002B18  6F5F               	movwf	95,b
   258   002B1A                     end_of_initialization:
   259                           	callstack 0
   260   002B1A                     __end_of__initialization:
   261                           	callstack 0
   262   002B1A  0100               	movlb	0
   263   002B1C  EF11  F013         	goto	_main	;jump to C main() function
   264                           
   265                           	psect	bssCOMRAM
   266   000501                     __pbssCOMRAM:
   267                           	callstack 0
   268   000501                     _uart1RxStatusBuffer:
   269                           	callstack 0
   270   000501                     	ds	8
   271   000509                     _uart1RxBuffer:
   272                           	callstack 0
   273   000509                     	ds	8
   274   000511                     _uart1TxBuffer:
   275                           	callstack 0
   276   000511                     	ds	8
   277   000519                     	ds	2
   278   00051B                     _index:
   279                           	callstack 0
   280   00051B                     	ds	2
   281   00051D                     _uart1RxLastError:
   282                           	callstack 0
   283   00051D                     	ds	1
   284   00051E                     _uart1RxCount:
   285                           	callstack 0
   286   00051E                     	ds	1
   287   00051F                     _uart1RxTail:
   288                           	callstack 0
   289   00051F                     	ds	1
   290   000520                     _uart1RxHead:
   291                           	callstack 0
   292   000520                     	ds	1
   293   000521                     _uart1TxTail:
   294                           	callstack 0
   295   000521                     	ds	1
   296   000522                     _uart1TxHead:
   297                           	callstack 0
   298   000522                     	ds	1
   299                           
   300                           	psect	bssBANK5
   301   000560                     __pbssBANK5:
   302                           	callstack 0
   303   000560                     _frame:
   304                           	callstack 0
   305   000560                     	ds	16
   306                           
   307                           	psect	cstackCOMRAM
   308   000523                     __pcstackCOMRAM:
   309                           	callstack 0
   310   000523                     ??_INTERRUPT_InterruptManager:
   311   000523                     
   312                           ; 1 bytes @ 0x0
   313   000523                     	ds	2
   314   000525                     strcpy@dest:
   315                           	callstack 0
   316   000525                     UART1_SetFramingErrorHandler@interruptHandler:
   317                           	callstack 0
   318   000525                     UART1_SetOverrunErrorHandler@interruptHandler:
   319                           	callstack 0
   320   000525                     UART1_SetErrorHandler@interruptHandler:
   321                           	callstack 0
   322   000525                     UART1_SetRxInterruptHandler@InterruptHandler:
   323                           	callstack 0
   324   000525                     UART1_SetTxInterruptHandler@InterruptHandler:
   325                           	callstack 0
   326                           
   327                           ; 3 bytes @ 0x2
   328   000525                     	ds	2
   329   000527                     strcpy@src:
   330                           	callstack 0
   331                           
   332                           ; 2 bytes @ 0x4
   333   000527                     	ds	1
   334   000528                     
   335                           ; 1 bytes @ 0x5
   336   000528                     	ds	1
   337   000529                     strcpy@s:
   338                           	callstack 0
   339                           
   340                           ; 2 bytes @ 0x6
   341   000529                     	ds	2
   342   00052B                     strcpy@d:
   343                           	callstack 0
   344                           
   345                           ; 2 bytes @ 0x8
   346   00052B                     	ds	2
   347   00052D                     ??_main:
   348                           
   349                           ; 1 bytes @ 0xA
   350   00052D                     	ds	2
   351   00052F                     main@string:
   352                           	callstack 0
   353                           
   354                           ; 16 bytes @ 0xC
   355   00052F                     	ds	16
   356   00053F                     main@i:
   357                           	callstack 0
   358                           
   359                           ; 2 bytes @ 0x1C
   360   00053F                     	ds	2
   361   000541                     main@i_485:
   362                           	callstack 0
   363                           
   364                           ; 2 bytes @ 0x1E
   365   000541                     	ds	2
   366                           
   367 ;;
   368 ;;Main: autosize = 0, tempsize = 2, incstack = 0, save=0
   369 ;;
   370 ;; *************** function _main *****************
   371 ;; Defined at:
   372 ;;		line 19 in file "main.c"
   373 ;; Parameters:    Size  Location     Type
   374 ;;		None
   375 ;; Auto vars:     Size  Location     Type
   376 ;;  i               2   30[COMRAM] int 
   377 ;;  i               2   28[COMRAM] int 
   378 ;;  string         16   12[COMRAM] unsigned char [16]
   379 ;; Return value:  Size  Location     Type
   380 ;;                  1    wreg      void 
   381 ;; Registers used:
   382 ;;		wreg, fsr1l, fsr1h, fsr2l, fsr2h, status,2, status,0, cstack
   383 ;; Tracked objects:
   384 ;;		On entry : 0/0
   385 ;;		On exit  : 0/0
   386 ;;		Unchanged: 0/0
   387 ;; Data sizes:     COMRAM   BANK5   BANK6   BANK7   BANK8   BANK9  BANK10  BANK11  BANK12  BANK13  BANK14  BANK15  BANK1
      +6  BANK17  BANK18  BANK19  BANK20  BANK21  BANK22  BANK23  BANK24  BANK25  BANK26  BANK27  BANK28  BANK29  BANK30  BANK3
      +1  BANK32  BANK33  BANK34  BANK35  BANK36
   388 ;;      Params:         0       0       0       0       0       0       0       0       0       0       0       0       
      +0       0       0       0       0       0       0       0       0       0       0       0       0       0       0       
      +0       0       0       0       0       0
   389 ;;      Locals:        20       0       0       0       0       0       0       0       0       0       0       0       
      +0       0       0       0       0       0       0       0       0       0       0       0       0       0       0       
      +0       0       0       0       0       0
   390 ;;      Temps:          2       0       0       0       0       0       0       0       0       0       0       0       
      +0       0       0       0       0       0       0       0       0       0       0       0       0       0       0       
      +0       0       0       0       0       0
   391 ;;      Totals:        22       0       0       0       0       0       0       0       0       0       0       0       
      +0       0       0       0       0       0       0       0       0       0       0       0       0       0       0       
      +0       0       0       0       0       0
   392 ;;Total ram usage:       22 bytes
   393 ;; Hardware stack levels required when called: 7
   394 ;; This function calls:
   395 ;;		_SYSTEM_Initialize
   396 ;;		_strcpy
   397 ;; This function is called by:
   398 ;;		Startup code after reset
   399 ;; This function uses a non-reentrant model
   400 ;;
   401                           
   402                           	psect	text0
   403   002622                     __ptext0:
   404                           	callstack 0
   405   002622                     _main:
   406                           	callstack 120
   407   002622                     
   408                           ;main.c: 21:     SYSTEM_Initialize();
   409   002622  ECB0  F015         	call	_SYSTEM_Initialize	;wreg free
   410   002626                     
   411                           ;main.c: 22:     char string[16];;main.c: 28:     (INTCON0bits.GIE = 1);
   412   002626  8ED6               	bsf	214,7,c	;volatile
   413   002628                     l1828:
   414                           
   415                           ;main.c: 31:     {;main.c: 32:           strcpy(string, frame);
   416   002628  0E2F               	movlw	low main@string
   417   00262A  6E25               	movwf	strcpy@dest^(0+1280),c
   418   00262C  0E05               	movlw	high main@string
   419   00262E  6E26               	movwf	(strcpy@dest+1)^(0+1280),c
   420   002630  0E60               	movlw	low _frame
   421   002632  6E27               	movwf	strcpy@src^(0+1280),c
   422   002634  0E05               	movlw	high _frame
   423   002636  6E28               	movwf	(strcpy@src+1)^(0+1280),c
   424   002638  EC3E  F015         	call	_strcpy	;wreg free
   425   00263C                     
   426                           ;main.c: 34:           if(string=='led1#'){
   427   00263C  0E2F               	movlw	low main@string
   428   00263E  6E2D               	movwf	??_main^(0+1280),c
   429   002640  0E05               	movlw	high main@string
   430   002642  6E2E               	movwf	(??_main+1)^(0+1280),c
   431   002644  0E23               	movlw	35
   432   002646  182D               	xorwf	??_main^(0+1280),w,c
   433   002648  E107               	bnz	u581
   434   00264A  0E31               	movlw	49
   435   00264C  182E               	xorwf	(??_main+1)^(0+1280),w,c
   436   00264E  A4D8               	btfss	status,2,c
   437   002650  EF2C  F013         	goto	u581
   438   002654  EF2E  F013         	goto	u580
   439   002658                     u581:
   440   002658  EF3E  F013         	goto	l369
   441   00265C                     u580:
   442   00265C  B0BF               	btfsc	191,0,c	;volatile
   443   00265E  EF33  F013         	goto	u591
   444   002662  EF36  F013         	goto	u590
   445   002666                     u591:
   446   002666  0E01               	movlw	1
   447   002668  EF37  F013         	goto	u596
   448   00266C                     u590:
   449   00266C  0E00               	movlw	0
   450   00266E                     u596:
   451   00266E  0AFF               	xorlw	255
   452   002670  6E2D               	movwf	??_main^(0+1280),c
   453   002672  50BF               	movf	191,w,c	;volatile
   454   002674  182D               	xorwf	??_main^(0+1280),w,c
   455   002676  0BFE               	andlw	-2
   456   002678  182D               	xorwf	??_main^(0+1280),w,c
   457   00267A  6EBF               	movwf	191,c	;volatile
   458   00267C                     l369:
   459                           
   460                           ;main.c: 37:           if(string=='led2#'){
   461   00267C  0E2F               	movlw	low main@string
   462   00267E  6E2D               	movwf	??_main^(0+1280),c
   463   002680  0E05               	movlw	high main@string
   464   002682  6E2E               	movwf	(??_main+1)^(0+1280),c
   465   002684  0E23               	movlw	35
   466   002686  182D               	xorwf	??_main^(0+1280),w,c
   467   002688  E107               	bnz	u601
   468   00268A  0E32               	movlw	50
   469   00268C  182E               	xorwf	(??_main+1)^(0+1280),w,c
   470   00268E  A4D8               	btfss	status,2,c
   471   002690  EF4C  F013         	goto	u601
   472   002694  EF4E  F013         	goto	u600
   473   002698                     u601:
   474   002698  EF5F  F013         	goto	l372
   475   00269C                     u600:
   476   00269C  B2BF               	btfsc	191,1,c	;volatile
   477   00269E  EF53  F013         	goto	u611
   478   0026A2  EF56  F013         	goto	u610
   479   0026A6                     u611:
   480   0026A6  0E01               	movlw	1
   481   0026A8  EF57  F013         	goto	u616
   482   0026AC                     u610:
   483   0026AC  0E00               	movlw	0
   484   0026AE                     u616:
   485   0026AE  0AFF               	xorlw	255
   486   0026B0  6E2D               	movwf	??_main^(0+1280),c
   487   0026B2  462D               	rlncf	??_main^(0+1280),f,c
   488   0026B4  50BF               	movf	191,w,c	;volatile
   489   0026B6  182D               	xorwf	??_main^(0+1280),w,c
   490   0026B8  0BFD               	andlw	-3
   491   0026BA  182D               	xorwf	??_main^(0+1280),w,c
   492   0026BC  6EBF               	movwf	191,c	;volatile
   493   0026BE                     l372:
   494                           
   495                           ;main.c: 40:           if(string=='led3#'){
   496   0026BE  0E2F               	movlw	low main@string
   497   0026C0  6E2D               	movwf	??_main^(0+1280),c
   498   0026C2  0E05               	movlw	high main@string
   499   0026C4  6E2E               	movwf	(??_main+1)^(0+1280),c
   500   0026C6  0E23               	movlw	35
   501   0026C8  182D               	xorwf	??_main^(0+1280),w,c
   502   0026CA  E107               	bnz	u621
   503   0026CC  0E33               	movlw	51
   504   0026CE  182E               	xorwf	(??_main+1)^(0+1280),w,c
   505   0026D0  A4D8               	btfss	status,2,c
   506   0026D2  EF6D  F013         	goto	u621
   507   0026D6  EF6F  F013         	goto	u620
   508   0026DA                     u621:
   509   0026DA  EF81  F013         	goto	l1838
   510   0026DE                     u620:
   511   0026DE  B4BF               	btfsc	191,2,c	;volatile
   512   0026E0  EF74  F013         	goto	u631
   513   0026E4  EF77  F013         	goto	u630
   514   0026E8                     u631:
   515   0026E8  0E01               	movlw	1
   516   0026EA  EF78  F013         	goto	u636
   517   0026EE                     u630:
   518   0026EE  0E00               	movlw	0
   519   0026F0                     u636:
   520   0026F0  0AFF               	xorlw	255
   521   0026F2  6E2D               	movwf	??_main^(0+1280),c
   522   0026F4  462D               	rlncf	??_main^(0+1280),f,c
   523   0026F6  462D               	rlncf	??_main^(0+1280),f,c
   524   0026F8  50BF               	movf	191,w,c	;volatile
   525   0026FA  182D               	xorwf	??_main^(0+1280),w,c
   526   0026FC  0BFB               	andlw	-5
   527   0026FE  182D               	xorwf	??_main^(0+1280),w,c
   528   002700  6EBF               	movwf	191,c	;volatile
   529   002702                     l1838:
   530                           
   531                           ;main.c: 44:            for(int i=0;frame[i] != '\0';i++){
   532   002702  0E00               	movlw	0
   533   002704  6E40               	movwf	(main@i+1)^(0+1280),c
   534   002706  0E00               	movlw	0
   535   002708  6E3F               	movwf	main@i^(0+1280),c
   536   00270A  EFBC  F013         	goto	l1852
   537   00270E                     l1840:
   538                           
   539                           ;main.c: 45:             if(frame[i]=='#'){
   540   00270E  0E60               	movlw	low _frame
   541   002710  243F               	addwf	main@i^(0+1280),w,c
   542   002712  6ED9               	movwf	fsr2l,c
   543   002714  0E05               	movlw	high _frame
   544   002716  2040               	addwfc	(main@i+1)^(0+1280),w,c
   545   002718  6EDA               	movwf	fsr2h,c
   546   00271A  0E23               	movlw	35
   547   00271C  18DE               	xorwf	postinc2,w,c
   548   00271E  A4D8               	btfss	status,2,c
   549   002720  EF94  F013         	goto	u641
   550   002724  EF96  F013         	goto	u640
   551   002728                     u641:
   552   002728  EFBA  F013         	goto	l1850
   553   00272C                     u640:
   554   00272C                     
   555                           ;main.c: 46:             index=0;
   556   00272C  0E00               	movlw	0
   557   00272E  6E1C               	movwf	(_index+1)^(0+1280),c
   558   002730  0E00               	movlw	0
   559   002732  6E1B               	movwf	_index^(0+1280),c
   560                           
   561                           ;main.c: 47:             for(int i=0;frame[i]!='\0';i++){
   562   002734  0E00               	movlw	0
   563   002736  6E42               	movwf	(main@i_485+1)^(0+1280),c
   564   002738  0E00               	movlw	0
   565   00273A  6E41               	movwf	main@i_485^(0+1280),c
   566   00273C  EFAA  F013         	goto	l1848
   567   002740                     l1844:
   568                           
   569                           ;main.c: 48:                 frame[i]=0;
   570   002740  0E60               	movlw	low _frame
   571   002742  2441               	addwf	main@i_485^(0+1280),w,c
   572   002744  6ED9               	movwf	fsr2l,c
   573   002746  0E05               	movlw	high _frame
   574   002748  2042               	addwfc	(main@i_485+1)^(0+1280),w,c
   575   00274A  6EDA               	movwf	fsr2h,c
   576   00274C  0E00               	movlw	0
   577   00274E  6EDF               	movwf	indf2,c
   578   002750                     
   579                           ;main.c: 49:             }
   580   002750  4A41               	infsnz	main@i_485^(0+1280),f,c
   581   002752  2A42               	incf	(main@i_485+1)^(0+1280),f,c
   582   002754                     l1848:
   583   002754  0E60               	movlw	low _frame
   584   002756  2441               	addwf	main@i_485^(0+1280),w,c
   585   002758  6ED9               	movwf	fsr2l,c
   586   00275A  0E05               	movlw	high _frame
   587   00275C  2042               	addwfc	(main@i_485+1)^(0+1280),w,c
   588   00275E  6EDA               	movwf	fsr2h,c
   589   002760  50DF               	movf	indf2,w,c
   590   002762  A4D8               	btfss	status,2,c
   591   002764  EFB6  F013         	goto	u651
   592   002768  EFB8  F013         	goto	u650
   593   00276C                     u651:
   594   00276C  EFA0  F013         	goto	l1844
   595   002770                     u650:
   596   002770  EF14  F013         	goto	l1828
   597   002774                     l1850:
   598                           
   599                           ;main.c: 53:     }
   600   002774  4A3F               	infsnz	main@i^(0+1280),f,c
   601   002776  2A40               	incf	(main@i+1)^(0+1280),f,c
   602   002778                     l1852:
   603   002778  0E60               	movlw	low _frame
   604   00277A  243F               	addwf	main@i^(0+1280),w,c
   605   00277C  6ED9               	movwf	fsr2l,c
   606   00277E  0E05               	movlw	high _frame
   607   002780  2040               	addwfc	(main@i+1)^(0+1280),w,c
   608   002782  6EDA               	movwf	fsr2h,c
   609   002784  50DF               	movf	indf2,w,c
   610   002786  A4D8               	btfss	status,2,c
   611   002788  EFC8  F013         	goto	u661
   612   00278C  EFCA  F013         	goto	u660
   613   002790                     u661:
   614   002790  EF87  F013         	goto	l1840
   615   002794                     u660:
   616   002794  EF14  F013         	goto	l1828
   617   002798  EF0D  F000         	goto	start
   618   00279C                     __end_of_main:
   619                           	callstack 0
   620                           
   621 ;; *************** function _strcpy *****************
   622 ;; Defined at:
   623 ;;		line 3 in file "C:\Program Files\Microchip\xc8\v2.40\pic\sources\c99\common\strcpy.c"
   624 ;; Parameters:    Size  Location     Type
   625 ;;  dest            2    2[COMRAM] PTR unsigned char 
   626 ;;		 -> main@string(16), 
   627 ;;  src             2    4[COMRAM] PTR const unsigned char 
   628 ;;		 -> frame(16), 
   629 ;; Auto vars:     Size  Location     Type
   630 ;;  d               2    8[COMRAM] PTR unsigned char 
   631 ;;		 -> main@string(16), 
   632 ;;  s               2    6[COMRAM] PTR const unsigned char 
   633 ;;		 -> frame(16), 
   634 ;; Return value:  Size  Location     Type
   635 ;;                  2    2[COMRAM] PTR unsigned char 
   636 ;; Registers used:
   637 ;;		wreg, fsr1l, fsr1h, fsr2l, fsr2h, status,2, status,0
   638 ;; Tracked objects:
   639 ;;		On entry : 0/0
   640 ;;		On exit  : 0/0
   641 ;;		Unchanged: 0/0
   642 ;; Data sizes:     COMRAM   BANK5   BANK6   BANK7   BANK8   BANK9  BANK10  BANK11  BANK12  BANK13  BANK14  BANK15  BANK1
      +6  BANK17  BANK18  BANK19  BANK20  BANK21  BANK22  BANK23  BANK24  BANK25  BANK26  BANK27  BANK28  BANK29  BANK30  BANK3
      +1  BANK32  BANK33  BANK34  BANK35  BANK36
   643 ;;      Params:         4       0       0       0       0       0       0       0       0       0       0       0       
      +0       0       0       0       0       0       0       0       0       0       0       0       0       0       0       
      +0       0       0       0       0       0
   644 ;;      Locals:         4       0       0       0       0       0       0       0       0       0       0       0       
      +0       0       0       0       0       0       0       0       0       0       0       0       0       0       0       
      +0       0       0       0       0       0
   645 ;;      Temps:          0       0       0       0       0       0       0       0       0       0       0       0       
      +0       0       0       0       0       0       0       0       0       0       0       0       0       0       0       
      +0       0       0       0       0       0
   646 ;;      Totals:         8       0       0       0       0       0       0       0       0       0       0       0       
      +0       0       0       0       0       0       0       0       0       0       0       0       0       0       0       
      +0       0       0       0       0       0
   647 ;;Total ram usage:        8 bytes
   648 ;; Hardware stack levels used: 1
   649 ;; Hardware stack levels required when called: 4
   650 ;; This function calls:
   651 ;;		Nothing
   652 ;; This function is called by:
   653 ;;		_main
   654 ;; This function uses a non-reentrant model
   655 ;;
   656                           
   657                           	psect	text1
   658   002A7C                     __ptext1:
   659                           	callstack 0
   660   002A7C                     _strcpy:
   661                           	callstack 122
   662   002A7C  C527  F529         	movff	strcpy@src,strcpy@s
   663   002A80  C528  F52A         	movff	strcpy@src+1,strcpy@s+1
   664   002A84  C525  F52B         	movff	strcpy@dest,strcpy@d
   665   002A88  C526  F52C         	movff	strcpy@dest+1,strcpy@d+1
   666   002A8C                     l1812:
   667   002A8C  C529  F4D9         	movff	strcpy@s,fsr2l
   668   002A90  C52A  F4DA         	movff	strcpy@s+1,fsr2h
   669   002A94  4A29               	infsnz	strcpy@s^(0+1280),f,c
   670   002A96  2A2A               	incf	(strcpy@s+1)^(0+1280),f,c
   671   002A98  C52B  F4E1         	movff	strcpy@d,fsr1l
   672   002A9C  C52C  F4E2         	movff	strcpy@d+1,fsr1h
   673   002AA0  4A2B               	infsnz	strcpy@d^(0+1280),f,c
   674   002AA2  2A2C               	incf	(strcpy@d+1)^(0+1280),f,c
   675   002AA4  C4DF F4E7          	movff	indf2,indf1
   676   002AA8  50E7               	movf	indf1,w,c
   677   002AAA  A4D8               	btfss	status,2,c
   678   002AAC  EF5A  F015         	goto	u511
   679   002AB0  EF5C  F015         	goto	u510
   680   002AB4                     u511:
   681   002AB4  EF46  F015         	goto	l1812
   682   002AB8                     u510:
   683   002AB8  0012               	return		;funcret
   684   002ABA                     __end_of_strcpy:
   685                           	callstack 0
   686                           
   687 ;; *************** function _SYSTEM_Initialize *****************
   688 ;; Defined at:
   689 ;;		line 50 in file "mcc_generated_files/mcc.c"
   690 ;; Parameters:    Size  Location     Type
   691 ;;		None
   692 ;; Auto vars:     Size  Location     Type
   693 ;;		None
   694 ;; Return value:  Size  Location     Type
   695 ;;                  1    wreg      void 
   696 ;; Registers used:
   697 ;;		wreg, status,2, status,0, cstack
   698 ;; Tracked objects:
   699 ;;		On entry : 0/0
   700 ;;		On exit  : 0/0
   701 ;;		Unchanged: 0/0
   702 ;; Data sizes:     COMRAM   BANK5   BANK6   BANK7   BANK8   BANK9  BANK10  BANK11  BANK12  BANK13  BANK14  BANK15  BANK1
      +6  BANK17  BANK18  BANK19  BANK20  BANK21  BANK22  BANK23  BANK24  BANK25  BANK26  BANK27  BANK28  BANK29  BANK30  BANK3
      +1  BANK32  BANK33  BANK34  BANK35  BANK36
   703 ;;      Params:         0       0       0       0       0       0       0       0       0       0       0       0       
      +0       0       0       0       0       0       0       0       0       0       0       0       0       0       0       
      +0       0       0       0       0       0
   704 ;;      Locals:         0       0       0       0       0       0       0       0       0       0       0       0       
      +0       0       0       0       0       0       0       0       0       0       0       0       0       0       0       
      +0       0       0       0       0       0
   705 ;;      Temps:          0       0       0       0       0       0       0       0       0       0       0       0       
      +0       0       0       0       0       0       0       0       0       0       0       0       0       0       0       
      +0       0       0       0       0       0
   706 ;;      Totals:         0       0       0       0       0       0       0       0       0       0       0       0       
      +0       0       0       0       0       0       0       0       0       0       0       0       0       0       0       
      +0       0       0       0       0       0
   707 ;;Total ram usage:        0 bytes
   708 ;; Hardware stack levels used: 1
   709 ;; Hardware stack levels required when called: 6
   710 ;; This function calls:
   711 ;;		_INTERRUPT_Initialize
   712 ;;		_OSCILLATOR_Initialize
   713 ;;		_PIN_MANAGER_Initialize
   714 ;;		_PMD_Initialize
   715 ;;		_UART1_Initialize
   716 ;; This function is called by:
   717 ;;		_main
   718 ;; This function uses a non-reentrant model
   719 ;;
   720                           
   721                           	psect	text2
   722   002B60                     __ptext2:
   723                           	callstack 0
   724   002B60                     _SYSTEM_Initialize:
   725                           	callstack 120
   726   002B60                     
   727                           ;mcc_generated_files/mcc.c: 52:     INTERRUPT_Initialize();
   728   002B60  ECE1  F015         	call	_INTERRUPT_Initialize	;wreg free
   729   002B64                     
   730                           ;mcc_generated_files/mcc.c: 53:     PMD_Initialize();
   731   002B64  EC90  F015         	call	_PMD_Initialize	;wreg free
   732   002B68                     
   733                           ;mcc_generated_files/mcc.c: 54:     PIN_MANAGER_Initialize();
   734   002B68  EC87  F014         	call	_PIN_MANAGER_Initialize	;wreg free
   735   002B6C                     
   736                           ;mcc_generated_files/mcc.c: 55:     OSCILLATOR_Initialize();
   737   002B6C  ECA2  F015         	call	_OSCILLATOR_Initialize	;wreg free
   738   002B70                     
   739                           ;mcc_generated_files/mcc.c: 56:     UART1_Initialize();
   740   002B70  EC2E  F014         	call	_UART1_Initialize	;wreg free
   741   002B74  0012               	return		;funcret
   742   002B76                     __end_of_SYSTEM_Initialize:
   743                           	callstack 0
   744                           
   745 ;; *************** function _UART1_Initialize *****************
   746 ;; Defined at:
   747 ;;		line 89 in file "mcc_generated_files/uart1.c"
   748 ;; Parameters:    Size  Location     Type
   749 ;;		None
   750 ;; Auto vars:     Size  Location     Type
   751 ;;		None
   752 ;; Return value:  Size  Location     Type
   753 ;;                  1    wreg      void 
   754 ;; Registers used:
   755 ;;		wreg, status,2, status,0, cstack
   756 ;; Tracked objects:
   757 ;;		On entry : 0/0
   758 ;;		On exit  : 0/0
   759 ;;		Unchanged: 0/0
   760 ;; Data sizes:     COMRAM   BANK5   BANK6   BANK7   BANK8   BANK9  BANK10  BANK11  BANK12  BANK13  BANK14  BANK15  BANK1
      +6  BANK17  BANK18  BANK19  BANK20  BANK21  BANK22  BANK23  BANK24  BANK25  BANK26  BANK27  BANK28  BANK29  BANK30  BANK3
      +1  BANK32  BANK33  BANK34  BANK35  BANK36
   761 ;;      Params:         0       0       0       0       0       0       0       0       0       0       0       0       
      +0       0       0       0       0       0       0       0       0       0       0       0       0       0       0       
      +0       0       0       0       0       0
   762 ;;      Locals:         0       0       0       0       0       0       0       0       0       0       0       0       
      +0       0       0       0       0       0       0       0       0       0       0       0       0       0       0       
      +0       0       0       0       0       0
   763 ;;      Temps:          0       0       0       0       0       0       0       0       0       0       0       0       
      +0       0       0       0       0       0       0       0       0       0       0       0       0       0       0       
      +0       0       0       0       0       0
   764 ;;      Totals:         0       0       0       0       0       0       0       0       0       0       0       0       
      +0       0       0       0       0       0       0       0       0       0       0       0       0       0       0       
      +0       0       0       0       0       0
   765 ;;Total ram usage:        0 bytes
   766 ;; Hardware stack levels used: 1
   767 ;; Hardware stack levels required when called: 5
   768 ;; This function calls:
   769 ;;		_UART1_SetErrorHandler
   770 ;;		_UART1_SetFramingErrorHandler
   771 ;;		_UART1_SetOverrunErrorHandler
   772 ;;		_UART1_SetRxInterruptHandler
   773 ;;		_UART1_SetTxInterruptHandler
   774 ;; This function is called by:
   775 ;;		_SYSTEM_Initialize
   776 ;; This function uses a non-reentrant model
   777 ;;
   778                           
   779                           	psect	text3
   780   00285C                     __ptext3:
   781                           	callstack 0
   782   00285C                     _UART1_Initialize:
   783                           	callstack 120
   784   00285C                     
   785                           ;mcc_generated_files/uart1.c: 92:     PIE4bits.U1RXIE = 0;
   786   00285C  90A2               	bcf	162,0,c	;volatile
   787   00285E                     
   788                           ;mcc_generated_files/uart1.c: 93:     UART1_SetRxInterruptHandler(UART1_Receive_ISR);
   789   00285E  0E9C               	movlw	low _UART1_Receive_ISR
   790   002860  6E25               	movwf	UART1_SetRxInterruptHandler@InterruptHandler^(0+1280),c
   791   002862  0E27               	movlw	high _UART1_Receive_ISR
   792   002864  6E26               	movwf	(UART1_SetRxInterruptHandler@InterruptHandler+1)^(0+1280),c
   793   002866  0E00               	movlw	low (_UART1_Receive_ISR shr (0+16))
   794   002868  6E27               	movwf	(UART1_SetRxInterruptHandler@InterruptHandler+2)^(0+1280),c
   795   00286A  ECC2  F015         	call	_UART1_SetRxInterruptHandler	;wreg free
   796   00286E                     
   797                           ;mcc_generated_files/uart1.c: 94:     PIE4bits.U1TXIE = 0;
   798   00286E  92A2               	bcf	162,1,c	;volatile
   799                           
   800                           ;mcc_generated_files/uart1.c: 95:     UART1_SetTxInterruptHandler(UART1_Transmit_ISR);
   801   002870  0E3A               	movlw	low _UART1_Transmit_ISR
   802   002872  6E25               	movwf	UART1_SetTxInterruptHandler@InterruptHandler^(0+1280),c
   803   002874  0E2A               	movlw	high _UART1_Transmit_ISR
   804   002876  6E26               	movwf	(UART1_SetTxInterruptHandler@InterruptHandler+1)^(0+1280),c
   805   002878  0E00               	movlw	low (_UART1_Transmit_ISR shr (0+16))
   806   00287A  6E27               	movwf	(UART1_SetTxInterruptHandler@InterruptHandler+2)^(0+1280),c
   807   00287C  ECBB  F015         	call	_UART1_SetTxInterruptHandler	;wreg free
   808   002880                     
   809                           ;mcc_generated_files/uart1.c: 100:     U1P1L = 0x00;
   810   002880  0E00               	movlw	0
   811   002882  0102               	movlb	2	; () banked
   812   002884  6FA5               	movwf	165,b	;volatile
   813   002886                     
   814                           ; BSR set to: 2
   815                           ;mcc_generated_files/uart1.c: 103:     U1P1H = 0x00;
   816   002886  0E00               	movlw	0
   817   002888  6FA6               	movwf	166,b	;volatile
   818   00288A                     
   819                           ; BSR set to: 2
   820                           ;mcc_generated_files/uart1.c: 106:     U1P2L = 0x00;
   821   00288A  0E00               	movlw	0
   822   00288C  6FA7               	movwf	167,b	;volatile
   823   00288E                     
   824                           ; BSR set to: 2
   825                           ;mcc_generated_files/uart1.c: 109:     U1P2H = 0x00;
   826   00288E  0E00               	movlw	0
   827   002890  6FA8               	movwf	168,b	;volatile
   828   002892                     
   829                           ; BSR set to: 2
   830                           ;mcc_generated_files/uart1.c: 112:     U1P3L = 0x00;
   831   002892  0E00               	movlw	0
   832   002894  6FA9               	movwf	169,b	;volatile
   833   002896                     
   834                           ; BSR set to: 2
   835                           ;mcc_generated_files/uart1.c: 115:     U1P3H = 0x00;
   836   002896  0E00               	movlw	0
   837   002898  6FAA               	movwf	170,b	;volatile
   838   00289A                     
   839                           ; BSR set to: 2
   840                           ;mcc_generated_files/uart1.c: 118:     U1CON0 = 0xB0;
   841   00289A  0EB0               	movlw	176
   842   00289C  6FAB               	movwf	171,b	;volatile
   843   00289E                     
   844                           ; BSR set to: 2
   845                           ;mcc_generated_files/uart1.c: 121:     U1CON1 = 0x80;
   846   00289E  0E80               	movlw	128
   847   0028A0  6FAC               	movwf	172,b	;volatile
   848   0028A2                     
   849                           ; BSR set to: 2
   850                           ;mcc_generated_files/uart1.c: 124:     U1CON2 = 0x00;
   851   0028A2  0E00               	movlw	0
   852   0028A4  6FAD               	movwf	173,b	;volatile
   853   0028A6                     
   854                           ; BSR set to: 2
   855                           ;mcc_generated_files/uart1.c: 127:     U1BRGL = 0x82;
   856   0028A6  0E82               	movlw	130
   857   0028A8  6FAE               	movwf	174,b	;volatile
   858   0028AA                     
   859                           ; BSR set to: 2
   860                           ;mcc_generated_files/uart1.c: 130:     U1BRGH = 0x06;
   861   0028AA  0E06               	movlw	6
   862   0028AC  6FAF               	movwf	175,b	;volatile
   863   0028AE                     
   864                           ; BSR set to: 2
   865                           ;mcc_generated_files/uart1.c: 133:     U1FIFO = 0x00;
   866   0028AE  0E00               	movlw	0
   867   0028B0  6FB0               	movwf	176,b	;volatile
   868   0028B2                     
   869                           ; BSR set to: 2
   870                           ;mcc_generated_files/uart1.c: 136:     U1UIR = 0x00;
   871   0028B2  0E00               	movlw	0
   872   0028B4  6FB1               	movwf	177,b	;volatile
   873   0028B6                     
   874                           ; BSR set to: 2
   875                           ;mcc_generated_files/uart1.c: 139:     U1ERRIR = 0x00;
   876   0028B6  0E00               	movlw	0
   877   0028B8  6FB2               	movwf	178,b	;volatile
   878   0028BA                     
   879                           ; BSR set to: 2
   880                           ;mcc_generated_files/uart1.c: 142:     U1ERRIE = 0x00;
   881   0028BA  0E00               	movlw	0
   882   0028BC  6FB3               	movwf	179,b	;volatile
   883   0028BE                     
   884                           ; BSR set to: 2
   885                           ;mcc_generated_files/uart1.c: 145:     UART1_SetFramingErrorHandler(UART1_DefaultFraming
      +                          ErrorHandler);
   886   0028BE  0EC8               	movlw	low _UART1_DefaultFramingErrorHandler
   887   0028C0  6E25               	movwf	UART1_SetFramingErrorHandler@interruptHandler^(0+1280),c
   888   0028C2  0E2B               	movlw	high _UART1_DefaultFramingErrorHandler
   889   0028C4  6E26               	movwf	(UART1_SetFramingErrorHandler@interruptHandler+1)^(0+1280),c
   890   0028C6  0E00               	movlw	low (_UART1_DefaultFramingErrorHandler shr (0+16))
   891   0028C8  6E27               	movwf	(UART1_SetFramingErrorHandler@interruptHandler+2)^(0+1280),c
   892   0028CA  ECD0  F015         	call	_UART1_SetFramingErrorHandler	;wreg free
   893   0028CE                     
   894                           ;mcc_generated_files/uart1.c: 146:     UART1_SetOverrunErrorHandler(UART1_DefaultOverrun
      +                          ErrorHandler);
   895   0028CE  0EC6               	movlw	low _UART1_DefaultOverrunErrorHandler
   896   0028D0  6E25               	movwf	UART1_SetOverrunErrorHandler@interruptHandler^(0+1280),c
   897   0028D2  0E2B               	movlw	high _UART1_DefaultOverrunErrorHandler
   898   0028D4  6E26               	movwf	(UART1_SetOverrunErrorHandler@interruptHandler+1)^(0+1280),c
   899   0028D6  0E00               	movlw	low (_UART1_DefaultOverrunErrorHandler shr (0+16))
   900   0028D8  6E27               	movwf	(UART1_SetOverrunErrorHandler@interruptHandler+2)^(0+1280),c
   901   0028DA  ECC9  F015         	call	_UART1_SetOverrunErrorHandler	;wreg free
   902   0028DE                     
   903                           ;mcc_generated_files/uart1.c: 147:     UART1_SetErrorHandler(UART1_DefaultErrorHandler);
   904   0028DE  0EBC               	movlw	low _UART1_DefaultErrorHandler
   905   0028E0  6E25               	movwf	UART1_SetErrorHandler@interruptHandler^(0+1280),c
   906   0028E2  0E2B               	movlw	high _UART1_DefaultErrorHandler
   907   0028E4  6E26               	movwf	(UART1_SetErrorHandler@interruptHandler+1)^(0+1280),c
   908   0028E6  0E00               	movlw	low (_UART1_DefaultErrorHandler shr (0+16))
   909   0028E8  6E27               	movwf	(UART1_SetErrorHandler@interruptHandler+2)^(0+1280),c
   910   0028EA  ECD7  F015         	call	_UART1_SetErrorHandler	;wreg free
   911                           
   912                           ;mcc_generated_files/uart1.c: 149:     uart1RxLastError.status = 0;
   913   0028EE  0E00               	movlw	0
   914   0028F0  6E1D               	movwf	_uart1RxLastError^(0+1280),c	;volatile
   915                           
   916                           ;mcc_generated_files/uart1.c: 152:     uart1TxHead = 0;
   917   0028F2  0E00               	movlw	0
   918   0028F4  6E22               	movwf	_uart1TxHead^(0+1280),c	;volatile
   919                           
   920                           ;mcc_generated_files/uart1.c: 153:     uart1TxTail = 0;
   921   0028F6  0E00               	movlw	0
   922   0028F8  6E21               	movwf	_uart1TxTail^(0+1280),c	;volatile
   923                           
   924                           ;mcc_generated_files/uart1.c: 154:     uart1TxBufferRemaining = sizeof(uart1TxBuffer);
   925   0028FA  0E08               	movlw	8
   926   0028FC  6E52               	movwf	_uart1TxBufferRemaining^(0+1280),c	;volatile
   927                           
   928                           ;mcc_generated_files/uart1.c: 155:     uart1RxHead = 0;
   929   0028FE  0E00               	movlw	0
   930   002900  6E20               	movwf	_uart1RxHead^(0+1280),c	;volatile
   931                           
   932                           ;mcc_generated_files/uart1.c: 156:     uart1RxTail = 0;
   933   002902  0E00               	movlw	0
   934   002904  6E1F               	movwf	_uart1RxTail^(0+1280),c	;volatile
   935                           
   936                           ;mcc_generated_files/uart1.c: 157:     uart1RxCount = 0;
   937   002906  0E00               	movlw	0
   938   002908  6E1E               	movwf	_uart1RxCount^(0+1280),c	;volatile
   939   00290A                     
   940                           ;mcc_generated_files/uart1.c: 160:     PIE4bits.U1RXIE = 1;
   941   00290A  80A2               	bsf	162,0,c	;volatile
   942   00290C  0012               	return		;funcret
   943   00290E                     __end_of_UART1_Initialize:
   944                           	callstack 0
   945                           
   946 ;; *************** function _UART1_SetTxInterruptHandler *****************
   947 ;; Defined at:
   948 ;;		line 327 in file "mcc_generated_files/uart1.c"
   949 ;; Parameters:    Size  Location     Type
   950 ;;  InterruptHan    3    2[COMRAM] PTR FTN()void 
   951 ;;		 -> UART1_Transmit_ISR(1), 
   952 ;; Auto vars:     Size  Location     Type
   953 ;;		None
   954 ;; Return value:  Size  Location     Type
   955 ;;                  1    wreg      void 
   956 ;; Registers used:
   957 ;;		wreg, status,2, status,0
   958 ;; Tracked objects:
   959 ;;		On entry : 0/0
   960 ;;		On exit  : 0/0
   961 ;;		Unchanged: 0/0
   962 ;; Data sizes:     COMRAM   BANK5   BANK6   BANK7   BANK8   BANK9  BANK10  BANK11  BANK12  BANK13  BANK14  BANK15  BANK1
      +6  BANK17  BANK18  BANK19  BANK20  BANK21  BANK22  BANK23  BANK24  BANK25  BANK26  BANK27  BANK28  BANK29  BANK30  BANK3
      +1  BANK32  BANK33  BANK34  BANK35  BANK36
   963 ;;      Params:         3       0       0       0       0       0       0       0       0       0       0       0       
      +0       0       0       0       0       0       0       0       0       0       0       0       0       0       0       
      +0       0       0       0       0       0
   964 ;;      Locals:         0       0       0       0       0       0       0       0       0       0       0       0       
      +0       0       0       0       0       0       0       0       0       0       0       0       0       0       0       
      +0       0       0       0       0       0
   965 ;;      Temps:          0       0       0       0       0       0       0       0       0       0       0       0       
      +0       0       0       0       0       0       0       0       0       0       0       0       0       0       0       
      +0       0       0       0       0       0
   966 ;;      Totals:         3       0       0       0       0       0       0       0       0       0       0       0       
      +0       0       0       0       0       0       0       0       0       0       0       0       0       0       0       
      +0       0       0       0       0       0
   967 ;;Total ram usage:        3 bytes
   968 ;; Hardware stack levels used: 1
   969 ;; Hardware stack levels required when called: 4
   970 ;; This function calls:
   971 ;;		Nothing
   972 ;; This function is called by:
   973 ;;		_UART1_Initialize
   974 ;; This function uses a non-reentrant model
   975 ;;
   976                           
   977                           	psect	text4
   978   002B76                     __ptext4:
   979                           	callstack 0
   980   002B76                     _UART1_SetTxInterruptHandler:
   981                           	callstack 120
   982   002B76                     
   983                           ;mcc_generated_files/uart1.c: 328:     UART1_TxInterruptHandler = InterruptHandler;
   984   002B76  C525  F54C         	movff	UART1_SetTxInterruptHandler@InterruptHandler,_UART1_TxInterruptHandler
   985   002B7A  C526  F54D         	movff	UART1_SetTxInterruptHandler@InterruptHandler+1,_UART1_TxInterruptHandler+1
   986   002B7E  C527  F54E         	movff	UART1_SetTxInterruptHandler@InterruptHandler+2,_UART1_TxInterruptHandler+2
   987   002B82  0012               	return		;funcret
   988   002B84                     __end_of_UART1_SetTxInterruptHandler:
   989                           	callstack 0
   990                           
   991 ;; *************** function _UART1_SetRxInterruptHandler *****************
   992 ;; Defined at:
   993 ;;		line 323 in file "mcc_generated_files/uart1.c"
   994 ;; Parameters:    Size  Location     Type
   995 ;;  InterruptHan    3    2[COMRAM] PTR FTN()void 
   996 ;;		 -> UART1_Receive_ISR(1), 
   997 ;; Auto vars:     Size  Location     Type
   998 ;;		None
   999 ;; Return value:  Size  Location     Type
  1000 ;;                  1    wreg      void 
  1001 ;; Registers used:
  1002 ;;		wreg, status,2, status,0
  1003 ;; Tracked objects:
  1004 ;;		On entry : 0/0
  1005 ;;		On exit  : 0/0
  1006 ;;		Unchanged: 0/0
  1007 ;; Data sizes:     COMRAM   BANK5   BANK6   BANK7   BANK8   BANK9  BANK10  BANK11  BANK12  BANK13  BANK14  BANK15  BANK1
      +6  BANK17  BANK18  BANK19  BANK20  BANK21  BANK22  BANK23  BANK24  BANK25  BANK26  BANK27  BANK28  BANK29  BANK30  BANK3
      +1  BANK32  BANK33  BANK34  BANK35  BANK36
  1008 ;;      Params:         3       0       0       0       0       0       0       0       0       0       0       0       
      +0       0       0       0       0       0       0       0       0       0       0       0       0       0       0       
      +0       0       0       0       0       0
  1009 ;;      Locals:         0       0       0       0       0       0       0       0       0       0       0       0       
      +0       0       0       0       0       0       0       0       0       0       0       0       0       0       0       
      +0       0       0       0       0       0
  1010 ;;      Temps:          0       0       0       0       0       0       0       0       0       0       0       0       
      +0       0       0       0       0       0       0       0       0       0       0       0       0       0       0       
      +0       0       0       0       0       0
  1011 ;;      Totals:         3       0       0       0       0       0       0       0       0       0       0       0       
      +0       0       0       0       0       0       0       0       0       0       0       0       0       0       0       
      +0       0       0       0       0       0
  1012 ;;Total ram usage:        3 bytes
  1013 ;; Hardware stack levels used: 1
  1014 ;; Hardware stack levels required when called: 4
  1015 ;; This function calls:
  1016 ;;		Nothing
  1017 ;; This function is called by:
  1018 ;;		_UART1_Initialize
  1019 ;; This function uses a non-reentrant model
  1020 ;;
  1021                           
  1022                           	psect	text5
  1023   002B84                     __ptext5:
  1024                           	callstack 0
  1025   002B84                     _UART1_SetRxInterruptHandler:
  1026                           	callstack 120
  1027   002B84                     
  1028                           ;mcc_generated_files/uart1.c: 324:     UART1_RxInterruptHandler = InterruptHandler;
  1029   002B84  C525  F54F         	movff	UART1_SetRxInterruptHandler@InterruptHandler,_UART1_RxInterruptHandler
  1030   002B88  C526  F550         	movff	UART1_SetRxInterruptHandler@InterruptHandler+1,_UART1_RxInterruptHandler+1
  1031   002B8C  C527  F551         	movff	UART1_SetRxInterruptHandler@InterruptHandler+2,_UART1_RxInterruptHandler+2
  1032   002B90  0012               	return		;funcret
  1033   002B92                     __end_of_UART1_SetRxInterruptHandler:
  1034                           	callstack 0
  1035                           
  1036 ;; *************** function _UART1_SetOverrunErrorHandler *****************
  1037 ;; Defined at:
  1038 ;;		line 313 in file "mcc_generated_files/uart1.c"
  1039 ;; Parameters:    Size  Location     Type
  1040 ;;  interruptHan    3    2[COMRAM] PTR FTN()void 
  1041 ;;		 -> UART1_DefaultOverrunErrorHandler(1), 
  1042 ;; Auto vars:     Size  Location     Type
  1043 ;;		None
  1044 ;; Return value:  Size  Location     Type
  1045 ;;                  1    wreg      void 
  1046 ;; Registers used:
  1047 ;;		wreg, status,2, status,0
  1048 ;; Tracked objects:
  1049 ;;		On entry : 0/0
  1050 ;;		On exit  : 0/0
  1051 ;;		Unchanged: 0/0
  1052 ;; Data sizes:     COMRAM   BANK5   BANK6   BANK7   BANK8   BANK9  BANK10  BANK11  BANK12  BANK13  BANK14  BANK15  BANK1
      +6  BANK17  BANK18  BANK19  BANK20  BANK21  BANK22  BANK23  BANK24  BANK25  BANK26  BANK27  BANK28  BANK29  BANK30  BANK3
      +1  BANK32  BANK33  BANK34  BANK35  BANK36
  1053 ;;      Params:         3       0       0       0       0       0       0       0       0       0       0       0       
      +0       0       0       0       0       0       0       0       0       0       0       0       0       0       0       
      +0       0       0       0       0       0
  1054 ;;      Locals:         0       0       0       0       0       0       0       0       0       0       0       0       
      +0       0       0       0       0       0       0       0       0       0       0       0       0       0       0       
      +0       0       0       0       0       0
  1055 ;;      Temps:          0       0       0       0       0       0       0       0       0       0       0       0       
      +0       0       0       0       0       0       0       0       0       0       0       0       0       0       0       
      +0       0       0       0       0       0
  1056 ;;      Totals:         3       0       0       0       0       0       0       0       0       0       0       0       
      +0       0       0       0       0       0       0       0       0       0       0       0       0       0       0       
      +0       0       0       0       0       0
  1057 ;;Total ram usage:        3 bytes
  1058 ;; Hardware stack levels used: 1
  1059 ;; Hardware stack levels required when called: 4
  1060 ;; This function calls:
  1061 ;;		Nothing
  1062 ;; This function is called by:
  1063 ;;		_UART1_Initialize
  1064 ;; This function uses a non-reentrant model
  1065 ;;
  1066                           
  1067                           	psect	text6
  1068   002B92                     __ptext6:
  1069                           	callstack 0
  1070   002B92                     _UART1_SetOverrunErrorHandler:
  1071                           	callstack 120
  1072   002B92                     
  1073                           ;mcc_generated_files/uart1.c: 314:     UART1_OverrunErrorHandler = interruptHandler;
  1074   002B92  C525  F546         	movff	UART1_SetOverrunErrorHandler@interruptHandler,_UART1_OverrunErrorHandler
  1075   002B96  C526  F547         	movff	UART1_SetOverrunErrorHandler@interruptHandler+1,_UART1_OverrunErrorHandler+1
  1076   002B9A  C527  F548         	movff	UART1_SetOverrunErrorHandler@interruptHandler+2,_UART1_OverrunErrorHandler+2
  1077   002B9E  0012               	return		;funcret
  1078   002BA0                     __end_of_UART1_SetOverrunErrorHandler:
  1079                           	callstack 0
  1080                           
  1081 ;; *************** function _UART1_SetFramingErrorHandler *****************
  1082 ;; Defined at:
  1083 ;;		line 309 in file "mcc_generated_files/uart1.c"
  1084 ;; Parameters:    Size  Location     Type
  1085 ;;  interruptHan    3    2[COMRAM] PTR FTN()void 
  1086 ;;		 -> UART1_DefaultFramingErrorHandler(1), 
  1087 ;; Auto vars:     Size  Location     Type
  1088 ;;		None
  1089 ;; Return value:  Size  Location     Type
  1090 ;;                  1    wreg      void 
  1091 ;; Registers used:
  1092 ;;		wreg, status,2, status,0
  1093 ;; Tracked objects:
  1094 ;;		On entry : 0/0
  1095 ;;		On exit  : 0/0
  1096 ;;		Unchanged: 0/0
  1097 ;; Data sizes:     COMRAM   BANK5   BANK6   BANK7   BANK8   BANK9  BANK10  BANK11  BANK12  BANK13  BANK14  BANK15  BANK1
      +6  BANK17  BANK18  BANK19  BANK20  BANK21  BANK22  BANK23  BANK24  BANK25  BANK26  BANK27  BANK28  BANK29  BANK30  BANK3
      +1  BANK32  BANK33  BANK34  BANK35  BANK36
  1098 ;;      Params:         3       0       0       0       0       0       0       0       0       0       0       0       
      +0       0       0       0       0       0       0       0       0       0       0       0       0       0       0       
      +0       0       0       0       0       0
  1099 ;;      Locals:         0       0       0       0       0       0       0       0       0       0       0       0       
      +0       0       0       0       0       0       0       0       0       0       0       0       0       0       0       
      +0       0       0       0       0       0
  1100 ;;      Temps:          0       0       0       0       0       0       0       0       0       0       0       0       
      +0       0       0       0       0       0       0       0       0       0       0       0       0       0       0       
      +0       0       0       0       0       0
  1101 ;;      Totals:         3       0       0       0       0       0       0       0       0       0       0       0       
      +0       0       0       0       0       0       0       0       0       0       0       0       0       0       0       
      +0       0       0       0       0       0
  1102 ;;Total ram usage:        3 bytes
  1103 ;; Hardware stack levels used: 1
  1104 ;; Hardware stack levels required when called: 4
  1105 ;; This function calls:
  1106 ;;		Nothing
  1107 ;; This function is called by:
  1108 ;;		_UART1_Initialize
  1109 ;; This function uses a non-reentrant model
  1110 ;;
  1111                           
  1112                           	psect	text7
  1113   002BA0                     __ptext7:
  1114                           	callstack 0
  1115   002BA0                     _UART1_SetFramingErrorHandler:
  1116                           	callstack 120
  1117   002BA0                     
  1118                           ;mcc_generated_files/uart1.c: 310:     UART1_FramingErrorHandler = interruptHandler;
  1119   002BA0  C525  F549         	movff	UART1_SetFramingErrorHandler@interruptHandler,_UART1_FramingErrorHandler
  1120   002BA4  C526  F54A         	movff	UART1_SetFramingErrorHandler@interruptHandler+1,_UART1_FramingErrorHandler+1
  1121   002BA8  C527  F54B         	movff	UART1_SetFramingErrorHandler@interruptHandler+2,_UART1_FramingErrorHandler+2
  1122   002BAC  0012               	return		;funcret
  1123   002BAE                     __end_of_UART1_SetFramingErrorHandler:
  1124                           	callstack 0
  1125                           
  1126 ;; *************** function _UART1_SetErrorHandler *****************
  1127 ;; Defined at:
  1128 ;;		line 317 in file "mcc_generated_files/uart1.c"
  1129 ;; Parameters:    Size  Location     Type
  1130 ;;  interruptHan    3    2[COMRAM] PTR FTN()void 
  1131 ;;		 -> UART1_DefaultErrorHandler(1), 
  1132 ;; Auto vars:     Size  Location     Type
  1133 ;;		None
  1134 ;; Return value:  Size  Location     Type
  1135 ;;                  1    wreg      void 
  1136 ;; Registers used:
  1137 ;;		wreg, status,2, status,0
  1138 ;; Tracked objects:
  1139 ;;		On entry : 0/0
  1140 ;;		On exit  : 0/0
  1141 ;;		Unchanged: 0/0
  1142 ;; Data sizes:     COMRAM   BANK5   BANK6   BANK7   BANK8   BANK9  BANK10  BANK11  BANK12  BANK13  BANK14  BANK15  BANK1
      +6  BANK17  BANK18  BANK19  BANK20  BANK21  BANK22  BANK23  BANK24  BANK25  BANK26  BANK27  BANK28  BANK29  BANK30  BANK3
      +1  BANK32  BANK33  BANK34  BANK35  BANK36
  1143 ;;      Params:         3       0       0       0       0       0       0       0       0       0       0       0       
      +0       0       0       0       0       0       0       0       0       0       0       0       0       0       0       
      +0       0       0       0       0       0
  1144 ;;      Locals:         0       0       0       0       0       0       0       0       0       0       0       0       
      +0       0       0       0       0       0       0       0       0       0       0       0       0       0       0       
      +0       0       0       0       0       0
  1145 ;;      Temps:          0       0       0       0       0       0       0       0       0       0       0       0       
      +0       0       0       0       0       0       0       0       0       0       0       0       0       0       0       
      +0       0       0       0       0       0
  1146 ;;      Totals:         3       0       0       0       0       0       0       0       0       0       0       0       
      +0       0       0       0       0       0       0       0       0       0       0       0       0       0       0       
      +0       0       0       0       0       0
  1147 ;;Total ram usage:        3 bytes
  1148 ;; Hardware stack levels used: 1
  1149 ;; Hardware stack levels required when called: 4
  1150 ;; This function calls:
  1151 ;;		Nothing
  1152 ;; This function is called by:
  1153 ;;		_UART1_Initialize
  1154 ;; This function uses a non-reentrant model
  1155 ;;
  1156                           
  1157                           	psect	text8
  1158   002BAE                     __ptext8:
  1159                           	callstack 0
  1160   002BAE                     _UART1_SetErrorHandler:
  1161                           	callstack 120
  1162   002BAE                     
  1163                           ;mcc_generated_files/uart1.c: 318:     UART1_ErrorHandler = interruptHandler;
  1164   002BAE  C525  F543         	movff	UART1_SetErrorHandler@interruptHandler,_UART1_ErrorHandler
  1165   002BB2  C526  F544         	movff	UART1_SetErrorHandler@interruptHandler+1,_UART1_ErrorHandler+1
  1166   002BB6  C527  F545         	movff	UART1_SetErrorHandler@interruptHandler+2,_UART1_ErrorHandler+2
  1167   002BBA  0012               	return		;funcret
  1168   002BBC                     __end_of_UART1_SetErrorHandler:
  1169                           	callstack 0
  1170                           
  1171 ;; *************** function _PMD_Initialize *****************
  1172 ;; Defined at:
  1173 ;;		line 75 in file "mcc_generated_files/mcc.c"
  1174 ;; Parameters:    Size  Location     Type
  1175 ;;		None
  1176 ;; Auto vars:     Size  Location     Type
  1177 ;;		None
  1178 ;; Return value:  Size  Location     Type
  1179 ;;                  1    wreg      void 
  1180 ;; Registers used:
  1181 ;;		wreg, status,2
  1182 ;; Tracked objects:
  1183 ;;		On entry : 0/0
  1184 ;;		On exit  : 0/0
  1185 ;;		Unchanged: 0/0
  1186 ;; Data sizes:     COMRAM   BANK5   BANK6   BANK7   BANK8   BANK9  BANK10  BANK11  BANK12  BANK13  BANK14  BANK15  BANK1
      +6  BANK17  BANK18  BANK19  BANK20  BANK21  BANK22  BANK23  BANK24  BANK25  BANK26  BANK27  BANK28  BANK29  BANK30  BANK3
      +1  BANK32  BANK33  BANK34  BANK35  BANK36
  1187 ;;      Params:         0       0       0       0       0       0       0       0       0       0       0       0       
      +0       0       0       0       0       0       0       0       0       0       0       0       0       0       0       
      +0       0       0       0       0       0
  1188 ;;      Locals:         0       0       0       0       0       0       0       0       0       0       0       0       
      +0       0       0       0       0       0       0       0       0       0       0       0       0       0       0       
      +0       0       0       0       0       0
  1189 ;;      Temps:          0       0       0       0       0       0       0       0       0       0       0       0       
      +0       0       0       0       0       0       0       0       0       0       0       0       0       0       0       
      +0       0       0       0       0       0
  1190 ;;      Totals:         0       0       0       0       0       0       0       0       0       0       0       0       
      +0       0       0       0       0       0       0       0       0       0       0       0       0       0       0       
      +0       0       0       0       0       0
  1191 ;;Total ram usage:        0 bytes
  1192 ;; Hardware stack levels used: 1
  1193 ;; Hardware stack levels required when called: 4
  1194 ;; This function calls:
  1195 ;;		Nothing
  1196 ;; This function is called by:
  1197 ;;		_SYSTEM_Initialize
  1198 ;; This function uses a non-reentrant model
  1199 ;;
  1200                           
  1201                           	psect	text9
  1202   002B20                     __ptext9:
  1203                           	callstack 0
  1204   002B20                     _PMD_Initialize:
  1205                           	callstack 121
  1206   002B20                     
  1207                           ;mcc_generated_files/mcc.c: 78:     PMD0 = 0x00;
  1208   002B20  0E00               	movlw	0
  1209   002B22  0100               	movlb	0	; () banked
  1210   002B24  6F60               	movwf	96,b	;volatile
  1211                           
  1212                           ;mcc_generated_files/mcc.c: 80:     PMD1 = 0x00;
  1213   002B26  0E00               	movlw	0
  1214   002B28  6F61               	movwf	97,b	;volatile
  1215                           
  1216                           ;mcc_generated_files/mcc.c: 82:     PMD3 = 0x00;
  1217   002B2A  0E00               	movlw	0
  1218   002B2C  6F63               	movwf	99,b	;volatile
  1219                           
  1220                           ;mcc_generated_files/mcc.c: 84:     PMD4 = 0x00;
  1221   002B2E  0E00               	movlw	0
  1222   002B30  6F64               	movwf	100,b	;volatile
  1223                           
  1224                           ;mcc_generated_files/mcc.c: 86:     PMD5 = 0x00;
  1225   002B32  0E00               	movlw	0
  1226   002B34  6F65               	movwf	101,b	;volatile
  1227                           
  1228                           ;mcc_generated_files/mcc.c: 88:     PMD6 = 0x00;
  1229   002B36  0E00               	movlw	0
  1230   002B38  6F66               	movwf	102,b	;volatile
  1231                           
  1232                           ;mcc_generated_files/mcc.c: 90:     PMD7 = 0x00;
  1233   002B3A  0E00               	movlw	0
  1234   002B3C  6F67               	movwf	103,b	;volatile
  1235                           
  1236                           ;mcc_generated_files/mcc.c: 92:     PMD8 = 0x00;
  1237   002B3E  0E00               	movlw	0
  1238   002B40  6F68               	movwf	104,b	;volatile
  1239   002B42                     
  1240                           ; BSR set to: 0
  1241   002B42  0012               	return		;funcret
  1242   002B44                     __end_of_PMD_Initialize:
  1243                           	callstack 0
  1244                           
  1245 ;; *************** function _PIN_MANAGER_Initialize *****************
  1246 ;; Defined at:
  1247 ;;		line 55 in file "mcc_generated_files/pin_manager.c"
  1248 ;; Parameters:    Size  Location     Type
  1249 ;;		None
  1250 ;; Auto vars:     Size  Location     Type
  1251 ;;		None
  1252 ;; Return value:  Size  Location     Type
  1253 ;;                  1    wreg      void 
  1254 ;; Registers used:
  1255 ;;		wreg, status,2
  1256 ;; Tracked objects:
  1257 ;;		On entry : 0/0
  1258 ;;		On exit  : 0/0
  1259 ;;		Unchanged: 0/0
  1260 ;; Data sizes:     COMRAM   BANK5   BANK6   BANK7   BANK8   BANK9  BANK10  BANK11  BANK12  BANK13  BANK14  BANK15  BANK1
      +6  BANK17  BANK18  BANK19  BANK20  BANK21  BANK22  BANK23  BANK24  BANK25  BANK26  BANK27  BANK28  BANK29  BANK30  BANK3
      +1  BANK32  BANK33  BANK34  BANK35  BANK36
  1261 ;;      Params:         0       0       0       0       0       0       0       0       0       0       0       0       
      +0       0       0       0       0       0       0       0       0       0       0       0       0       0       0       
      +0       0       0       0       0       0
  1262 ;;      Locals:         0       0       0       0       0       0       0       0       0       0       0       0       
      +0       0       0       0       0       0       0       0       0       0       0       0       0       0       0       
      +0       0       0       0       0       0
  1263 ;;      Temps:          0       0       0       0       0       0       0       0       0       0       0       0       
      +0       0       0       0       0       0       0       0       0       0       0       0       0       0       0       
      +0       0       0       0       0       0
  1264 ;;      Totals:         0       0       0       0       0       0       0       0       0       0       0       0       
      +0       0       0       0       0       0       0       0       0       0       0       0       0       0       0       
      +0       0       0       0       0       0
  1265 ;;Total ram usage:        0 bytes
  1266 ;; Hardware stack levels used: 1
  1267 ;; Hardware stack levels required when called: 4
  1268 ;; This function calls:
  1269 ;;		Nothing
  1270 ;; This function is called by:
  1271 ;;		_SYSTEM_Initialize
  1272 ;; This function uses a non-reentrant model
  1273 ;;
  1274                           
  1275                           	psect	text10
  1276   00290E                     __ptext10:
  1277                           	callstack 0
  1278   00290E                     _PIN_MANAGER_Initialize:
  1279                           	callstack 121
  1280   00290E                     
  1281                           ;mcc_generated_files/pin_manager.c: 60:     LATE = 0x00;
  1282   00290E  0E00               	movlw	0
  1283   002910  6EC2               	movwf	194,c	;volatile
  1284                           
  1285                           ;mcc_generated_files/pin_manager.c: 61:     LATD = 0x00;
  1286   002912  0E00               	movlw	0
  1287   002914  6EC1               	movwf	193,c	;volatile
  1288                           
  1289                           ;mcc_generated_files/pin_manager.c: 62:     LATA = 0x00;
  1290   002916  0E00               	movlw	0
  1291   002918  6EBE               	movwf	190,c	;volatile
  1292                           
  1293                           ;mcc_generated_files/pin_manager.c: 63:     LATF = 0x00;
  1294   00291A  0E00               	movlw	0
  1295   00291C  6EC3               	movwf	195,c	;volatile
  1296                           
  1297                           ;mcc_generated_files/pin_manager.c: 64:     LATB = 0x00;
  1298   00291E  0E00               	movlw	0
  1299   002920  6EBF               	movwf	191,c	;volatile
  1300                           
  1301                           ;mcc_generated_files/pin_manager.c: 65:     LATC = 0x00;
  1302   002922  0E00               	movlw	0
  1303   002924  6EC0               	movwf	192,c	;volatile
  1304                           
  1305                           ;mcc_generated_files/pin_manager.c: 70:     TRISE = 0x07;
  1306   002926  0E07               	movlw	7
  1307   002928  6ECA               	movwf	202,c	;volatile
  1308                           
  1309                           ;mcc_generated_files/pin_manager.c: 71:     TRISF = 0xFE;
  1310   00292A  0EFE               	movlw	254
  1311   00292C  6ECB               	movwf	203,c	;volatile
  1312   00292E                     
  1313                           ;mcc_generated_files/pin_manager.c: 72:     TRISA = 0xFF;
  1314   00292E  68C6               	setf	198,c	;volatile
  1315                           
  1316                           ;mcc_generated_files/pin_manager.c: 73:     TRISB = 0xF8;
  1317   002930  0EF8               	movlw	248
  1318   002932  6EC7               	movwf	199,c	;volatile
  1319   002934                     
  1320                           ;mcc_generated_files/pin_manager.c: 74:     TRISC = 0xFF;
  1321   002934  68C8               	setf	200,c	;volatile
  1322   002936                     
  1323                           ;mcc_generated_files/pin_manager.c: 75:     TRISD = 0xFF;
  1324   002936  68C9               	setf	201,c	;volatile
  1325   002938                     
  1326                           ;mcc_generated_files/pin_manager.c: 80:     ANSELD = 0xFF;
  1327   002938  0104               	movlb	4	; () banked
  1328   00293A  6918               	setf	24,b	;volatile
  1329   00293C                     
  1330                           ; BSR set to: 4
  1331                           ;mcc_generated_files/pin_manager.c: 81:     ANSELC = 0xFF;
  1332   00293C  6910               	setf	16,b	;volatile
  1333                           
  1334                           ;mcc_generated_files/pin_manager.c: 82:     ANSELB = 0xF8;
  1335   00293E  0EF8               	movlw	248
  1336   002940  6F08               	movwf	8,b	;volatile
  1337                           
  1338                           ;mcc_generated_files/pin_manager.c: 83:     ANSELE = 0x07;
  1339   002942  0E07               	movlw	7
  1340   002944  6F20               	movwf	32,b	;volatile
  1341                           
  1342                           ;mcc_generated_files/pin_manager.c: 84:     ANSELF = 0xFD;
  1343   002946  0EFD               	movlw	253
  1344   002948  6F28               	movwf	40,b	;volatile
  1345   00294A                     
  1346                           ; BSR set to: 4
  1347                           ;mcc_generated_files/pin_manager.c: 85:     ANSELA = 0xFF;
  1348   00294A  6900               	setf	0,b	;volatile
  1349                           
  1350                           ;mcc_generated_files/pin_manager.c: 90:     WPUD = 0x00;
  1351   00294C  0E00               	movlw	0
  1352   00294E  6F19               	movwf	25,b	;volatile
  1353                           
  1354                           ;mcc_generated_files/pin_manager.c: 91:     WPUF = 0x00;
  1355   002950  0E00               	movlw	0
  1356   002952  6F29               	movwf	41,b	;volatile
  1357                           
  1358                           ;mcc_generated_files/pin_manager.c: 92:     WPUE = 0x00;
  1359   002954  0E00               	movlw	0
  1360   002956  6F21               	movwf	33,b	;volatile
  1361                           
  1362                           ;mcc_generated_files/pin_manager.c: 93:     WPUB = 0x00;
  1363   002958  0E00               	movlw	0
  1364   00295A  6F09               	movwf	9,b	;volatile
  1365                           
  1366                           ;mcc_generated_files/pin_manager.c: 94:     WPUA = 0x00;
  1367   00295C  0E00               	movlw	0
  1368   00295E  6F01               	movwf	1,b	;volatile
  1369                           
  1370                           ;mcc_generated_files/pin_manager.c: 95:     WPUC = 0x00;
  1371   002960  0E00               	movlw	0
  1372   002962  6F11               	movwf	17,b	;volatile
  1373                           
  1374                           ;mcc_generated_files/pin_manager.c: 100:     RB1I2C = 0x00;
  1375   002964  0E00               	movlw	0
  1376   002966  0102               	movlb	2	; () banked
  1377   002968  6F89               	movwf	137,b	;volatile
  1378                           
  1379                           ;mcc_generated_files/pin_manager.c: 101:     RB2I2C = 0x00;
  1380   00296A  0E00               	movlw	0
  1381   00296C  6F88               	movwf	136,b	;volatile
  1382                           
  1383                           ;mcc_generated_files/pin_manager.c: 102:     RC3I2C = 0x00;
  1384   00296E  0E00               	movlw	0
  1385   002970  6F87               	movwf	135,b	;volatile
  1386                           
  1387                           ;mcc_generated_files/pin_manager.c: 103:     RC4I2C = 0x00;
  1388   002972  0E00               	movlw	0
  1389   002974  6F86               	movwf	134,b	;volatile
  1390                           
  1391                           ;mcc_generated_files/pin_manager.c: 108:     ODCONE = 0x00;
  1392   002976  0E00               	movlw	0
  1393   002978  0104               	movlb	4	; () banked
  1394   00297A  6F22               	movwf	34,b	;volatile
  1395                           
  1396                           ;mcc_generated_files/pin_manager.c: 109:     ODCONF = 0x00;
  1397   00297C  0E00               	movlw	0
  1398   00297E  6F2A               	movwf	42,b	;volatile
  1399                           
  1400                           ;mcc_generated_files/pin_manager.c: 110:     ODCONA = 0x00;
  1401   002980  0E00               	movlw	0
  1402   002982  6F02               	movwf	2,b	;volatile
  1403                           
  1404                           ;mcc_generated_files/pin_manager.c: 111:     ODCONB = 0x00;
  1405   002984  0E00               	movlw	0
  1406   002986  6F0A               	movwf	10,b	;volatile
  1407                           
  1408                           ;mcc_generated_files/pin_manager.c: 112:     ODCONC = 0x00;
  1409   002988  0E00               	movlw	0
  1410   00298A  6F12               	movwf	18,b	;volatile
  1411                           
  1412                           ;mcc_generated_files/pin_manager.c: 113:     ODCOND = 0x00;
  1413   00298C  0E00               	movlw	0
  1414   00298E  6F1A               	movwf	26,b	;volatile
  1415   002990                     
  1416                           ; BSR set to: 4
  1417                           ;mcc_generated_files/pin_manager.c: 118:     SLRCONA = 0xFF;
  1418   002990  6903               	setf	3,b	;volatile
  1419   002992                     
  1420                           ; BSR set to: 4
  1421                           ;mcc_generated_files/pin_manager.c: 119:     SLRCONB = 0xFF;
  1422   002992  690B               	setf	11,b	;volatile
  1423   002994                     
  1424                           ; BSR set to: 4
  1425                           ;mcc_generated_files/pin_manager.c: 120:     SLRCONC = 0xFF;
  1426   002994  6913               	setf	19,b	;volatile
  1427   002996                     
  1428                           ; BSR set to: 4
  1429                           ;mcc_generated_files/pin_manager.c: 121:     SLRCOND = 0xFF;
  1430   002996  691B               	setf	27,b	;volatile
  1431                           
  1432                           ;mcc_generated_files/pin_manager.c: 122:     SLRCONE = 0x07;
  1433   002998  0E07               	movlw	7
  1434   00299A  6F23               	movwf	35,b	;volatile
  1435   00299C                     
  1436                           ; BSR set to: 4
  1437                           ;mcc_generated_files/pin_manager.c: 123:     SLRCONF = 0xFF;
  1438   00299C  692B               	setf	43,b	;volatile
  1439   00299E                     
  1440                           ; BSR set to: 4
  1441                           ;mcc_generated_files/pin_manager.c: 128:     INLVLA = 0xFF;
  1442   00299E  6904               	setf	4,b	;volatile
  1443   0029A0                     
  1444                           ; BSR set to: 4
  1445                           ;mcc_generated_files/pin_manager.c: 129:     INLVLB = 0xFF;
  1446   0029A0  690C               	setf	12,b	;volatile
  1447   0029A2                     
  1448                           ; BSR set to: 4
  1449                           ;mcc_generated_files/pin_manager.c: 130:     INLVLC = 0xFF;
  1450   0029A2  6914               	setf	20,b	;volatile
  1451   0029A4                     
  1452                           ; BSR set to: 4
  1453                           ;mcc_generated_files/pin_manager.c: 131:     INLVLD = 0xFF;
  1454   0029A4  691C               	setf	28,b	;volatile
  1455                           
  1456                           ;mcc_generated_files/pin_manager.c: 132:     INLVLE = 0x0F;
  1457   0029A6  0E0F               	movlw	15
  1458   0029A8  6F24               	movwf	36,b	;volatile
  1459   0029AA                     
  1460                           ; BSR set to: 4
  1461                           ;mcc_generated_files/pin_manager.c: 133:     INLVLF = 0xFF;
  1462   0029AA  692C               	setf	44,b	;volatile
  1463                           
  1464                           ;mcc_generated_files/pin_manager.c: 142:     RF0PPS = 0x20;
  1465   0029AC  0E20               	movlw	32
  1466   0029AE  0102               	movlb	2	; () banked
  1467   0029B0  6F29               	movwf	41,b	;volatile
  1468                           
  1469                           ;mcc_generated_files/pin_manager.c: 143:     U1RXPPS = 0x29;
  1470   0029B2  0E29               	movlw	41
  1471   0029B4  6F72               	movwf	114,b	;volatile
  1472   0029B6                     
  1473                           ; BSR set to: 2
  1474   0029B6  0012               	return		;funcret
  1475   0029B8                     __end_of_PIN_MANAGER_Initialize:
  1476                           	callstack 0
  1477                           
  1478 ;; *************** function _OSCILLATOR_Initialize *****************
  1479 ;; Defined at:
  1480 ;;		line 59 in file "mcc_generated_files/mcc.c"
  1481 ;; Parameters:    Size  Location     Type
  1482 ;;		None
  1483 ;; Auto vars:     Size  Location     Type
  1484 ;;		None
  1485 ;; Return value:  Size  Location     Type
  1486 ;;                  1    wreg      void 
  1487 ;; Registers used:
  1488 ;;		wreg, status,2
  1489 ;; Tracked objects:
  1490 ;;		On entry : 0/0
  1491 ;;		On exit  : 0/0
  1492 ;;		Unchanged: 0/0
  1493 ;; Data sizes:     COMRAM   BANK5   BANK6   BANK7   BANK8   BANK9  BANK10  BANK11  BANK12  BANK13  BANK14  BANK15  BANK1
      +6  BANK17  BANK18  BANK19  BANK20  BANK21  BANK22  BANK23  BANK24  BANK25  BANK26  BANK27  BANK28  BANK29  BANK30  BANK3
      +1  BANK32  BANK33  BANK34  BANK35  BANK36
  1494 ;;      Params:         0       0       0       0       0       0       0       0       0       0       0       0       
      +0       0       0       0       0       0       0       0       0       0       0       0       0       0       0       
      +0       0       0       0       0       0
  1495 ;;      Locals:         0       0       0       0       0       0       0       0       0       0       0       0       
      +0       0       0       0       0       0       0       0       0       0       0       0       0       0       0       
      +0       0       0       0       0       0
  1496 ;;      Temps:          0       0       0       0       0       0       0       0       0       0       0       0       
      +0       0       0       0       0       0       0       0       0       0       0       0       0       0       0       
      +0       0       0       0       0       0
  1497 ;;      Totals:         0       0       0       0       0       0       0       0       0       0       0       0       
      +0       0       0       0       0       0       0       0       0       0       0       0       0       0       0       
      +0       0       0       0       0       0
  1498 ;;Total ram usage:        0 bytes
  1499 ;; Hardware stack levels used: 1
  1500 ;; Hardware stack levels required when called: 4
  1501 ;; This function calls:
  1502 ;;		Nothing
  1503 ;; This function is called by:
  1504 ;;		_SYSTEM_Initialize
  1505 ;; This function uses a non-reentrant model
  1506 ;;
  1507                           
  1508                           	psect	text11
  1509   002B44                     __ptext11:
  1510                           	callstack 0
  1511   002B44                     _OSCILLATOR_Initialize:
  1512                           	callstack 121
  1513   002B44                     
  1514                           ;mcc_generated_files/mcc.c: 62:     OSCCON1 = 0x60;
  1515   002B44  0E60               	movlw	96
  1516   002B46  0100               	movlb	0	; () banked
  1517   002B48  6FAD               	movwf	173,b	;volatile
  1518                           
  1519                           ;mcc_generated_files/mcc.c: 64:     OSCCON3 = 0x00;
  1520   002B4A  0E00               	movlw	0
  1521   002B4C  6FAF               	movwf	175,b	;volatile
  1522                           
  1523                           ;mcc_generated_files/mcc.c: 66:     OSCEN = 0x00;
  1524   002B4E  0E00               	movlw	0
  1525   002B50  6FB3               	movwf	179,b	;volatile
  1526                           
  1527                           ;mcc_generated_files/mcc.c: 68:     OSCFRQ = 0x08;
  1528   002B52  0E08               	movlw	8
  1529   002B54  6FB1               	movwf	177,b	;volatile
  1530                           
  1531                           ;mcc_generated_files/mcc.c: 70:     OSCTUNE = 0x00;
  1532   002B56  0E00               	movlw	0
  1533   002B58  6FB0               	movwf	176,b	;volatile
  1534                           
  1535                           ;mcc_generated_files/mcc.c: 72:     ACTCON = 0x00;
  1536   002B5A  0E00               	movlw	0
  1537   002B5C  6FAC               	movwf	172,b	;volatile
  1538   002B5E                     
  1539                           ; BSR set to: 0
  1540   002B5E  0012               	return		;funcret
  1541   002B60                     __end_of_OSCILLATOR_Initialize:
  1542                           	callstack 0
  1543                           
  1544 ;; *************** function _INTERRUPT_Initialize *****************
  1545 ;; Defined at:
  1546 ;;		line 52 in file "mcc_generated_files/interrupt_manager.c"
  1547 ;; Parameters:    Size  Location     Type
  1548 ;;		None
  1549 ;; Auto vars:     Size  Location     Type
  1550 ;;		None
  1551 ;; Return value:  Size  Location     Type
  1552 ;;                  1    wreg      void 
  1553 ;; Registers used:
  1554 ;;		None
  1555 ;; Tracked objects:
  1556 ;;		On entry : 0/0
  1557 ;;		On exit  : 0/0
  1558 ;;		Unchanged: 0/0
  1559 ;; Data sizes:     COMRAM   BANK5   BANK6   BANK7   BANK8   BANK9  BANK10  BANK11  BANK12  BANK13  BANK14  BANK15  BANK1
      +6  BANK17  BANK18  BANK19  BANK20  BANK21  BANK22  BANK23  BANK24  BANK25  BANK26  BANK27  BANK28  BANK29  BANK30  BANK3
      +1  BANK32  BANK33  BANK34  BANK35  BANK36
  1560 ;;      Params:         0       0       0       0       0       0       0       0       0       0       0       0       
      +0       0       0       0       0       0       0       0       0       0       0       0       0       0       0       
      +0       0       0       0       0       0
  1561 ;;      Locals:         0       0       0       0       0       0       0       0       0       0       0       0       
      +0       0       0       0       0       0       0       0       0       0       0       0       0       0       0       
      +0       0       0       0       0       0
  1562 ;;      Temps:          0       0       0       0       0       0       0       0       0       0       0       0       
      +0       0       0       0       0       0       0       0       0       0       0       0       0       0       0       
      +0       0       0       0       0       0
  1563 ;;      Totals:         0       0       0       0       0       0       0       0       0       0       0       0       
      +0       0       0       0       0       0       0       0       0       0       0       0       0       0       0       
      +0       0       0       0       0       0
  1564 ;;Total ram usage:        0 bytes
  1565 ;; Hardware stack levels used: 1
  1566 ;; Hardware stack levels required when called: 4
  1567 ;; This function calls:
  1568 ;;		Nothing
  1569 ;; This function is called by:
  1570 ;;		_SYSTEM_Initialize
  1571 ;; This function uses a non-reentrant model
  1572 ;;
  1573                           
  1574                           	psect	text12
  1575   002BC2                     __ptext12:
  1576                           	callstack 0
  1577   002BC2                     _INTERRUPT_Initialize:
  1578                           	callstack 121
  1579   002BC2                     
  1580                           ;mcc_generated_files/interrupt_manager.c: 55:     INTCON0bits.IPEN = 0;
  1581   002BC2  9AD6               	bcf	214,5,c	;volatile
  1582   002BC4  0012               	return		;funcret
  1583   002BC6                     __end_of_INTERRUPT_Initialize:
  1584                           	callstack 0
  1585                           
  1586 ;; *************** function _INTERRUPT_InterruptManager *****************
  1587 ;; Defined at:
  1588 ;;		line 58 in file "mcc_generated_files/interrupt_manager.c"
  1589 ;; Parameters:    Size  Location     Type
  1590 ;;		None
  1591 ;; Auto vars:     Size  Location     Type
  1592 ;;		None
  1593 ;; Return value:  Size  Location     Type
  1594 ;;                  1    wreg      void 
  1595 ;; Registers used:
  1596 ;;		wreg, fsr2l, fsr2h, status,2, status,0, pcl, pclath, pclatu, tosl, cstack
  1597 ;; Tracked objects:
  1598 ;;		On entry : 0/0
  1599 ;;		On exit  : 0/0
  1600 ;;		Unchanged: 0/0
  1601 ;; Data sizes:     COMRAM   BANK5   BANK6   BANK7   BANK8   BANK9  BANK10  BANK11  BANK12  BANK13  BANK14  BANK15  BANK1
      +6  BANK17  BANK18  BANK19  BANK20  BANK21  BANK22  BANK23  BANK24  BANK25  BANK26  BANK27  BANK28  BANK29  BANK30  BANK3
      +1  BANK32  BANK33  BANK34  BANK35  BANK36
  1602 ;;      Params:         0       0       0       0       0       0       0       0       0       0       0       0       
      +0       0       0       0       0       0       0       0       0       0       0       0       0       0       0       
      +0       0       0       0       0       0
  1603 ;;      Locals:         0       0       0       0       0       0       0       0       0       0       0       0       
      +0       0       0       0       0       0       0       0       0       0       0       0       0       0       0       
      +0       0       0       0       0       0
  1604 ;;      Temps:          2       0       0       0       0       0       0       0       0       0       0       0       
      +0       0       0       0       0       0       0       0       0       0       0       0       0       0       0       
      +0       0       0       0       0       0
  1605 ;;      Totals:         2       0       0       0       0       0       0       0       0       0       0       0       
      +0       0       0       0       0       0       0       0       0       0       0       0       0       0       0       
      +0       0       0       0       0       0
  1606 ;;Total ram usage:        2 bytes
  1607 ;; Hardware stack levels used: 1
  1608 ;; Hardware stack levels required when called: 3
  1609 ;; This function calls:
  1610 ;;		Absolute function
  1611 ;;		_UART1_Receive_ISR
  1612 ;;		_UART1_Transmit_ISR
  1613 ;; This function is called by:
  1614 ;;		Interrupt level 2
  1615 ;; This function uses a non-reentrant model
  1616 ;;
  1617                           
  1618                           	psect	text13
  1619   0029B8                     __ptext13:
  1620                           	callstack 0
  1621   0029B8                     _INTERRUPT_InterruptManager:
  1622                           	callstack 120
  1623                           
  1624                           ;incstack = 0
  1625   0029B8  C4FA F523          	movff	pclath,??_INTERRUPT_InterruptManager
  1626   0029BC  C4FB F524          	movff	pclatu,??_INTERRUPT_InterruptManager+1
  1627   0029C0                     
  1628                           ;mcc_generated_files/interrupt_manager.c: 61:     if(PIE4bits.U1TXIE == 1 && PIR4bits.U1
      +                          TXIF == 1)
  1629   0029C0  A2A2               	btfss	162,1,c	;volatile
  1630   0029C2  EFE5  F014         	goto	i2u52_41
  1631   0029C6  EFE7  F014         	goto	i2u52_40
  1632   0029CA                     i2u52_41:
  1633   0029CA  EFFD  F014         	goto	i2l120
  1634   0029CE                     i2u52_40:
  1635   0029CE  A2B2               	btfss	178,1,c	;volatile
  1636   0029D0  EFEC  F014         	goto	i2u53_41
  1637   0029D4  EFEE  F014         	goto	i2u53_40
  1638   0029D8                     i2u53_41:
  1639   0029D8  EFFD  F014         	goto	i2l120
  1640   0029DC                     i2u53_40:
  1641   0029DC                     
  1642                           ;mcc_generated_files/interrupt_manager.c: 62:     {;mcc_generated_files/interrupt_manage
      +                          r.c: 63:         UART1_TxInterruptHandler();
  1643   0029DC  D802               	call	i2u54_48
  1644   0029DE  EFFB  F014         	goto	i2u54_49
  1645   0029E2                     i2u54_48:
  1646   0029E2  0005               	push	
  1647   0029E4  6EFA               	movwf	pclath,c
  1648   0029E6  504C               	movf	_UART1_TxInterruptHandler^(0+1280),w,c
  1649   0029E8  6EFD               	movwf	tosl,c
  1650   0029EA  504D               	movf	(_UART1_TxInterruptHandler+1)^(0+1280),w,c
  1651   0029EC  6EFE               	movwf	tosh,c
  1652   0029EE  504E               	movf	(_UART1_TxInterruptHandler+2)^(0+1280),w,c
  1653   0029F0  6EFF               	movwf	tosu,c
  1654   0029F2  50FA               	movf	pclath,w,c
  1655   0029F4  0012               	return		;indir
  1656   0029F6                     i2u54_49:
  1657                           
  1658                           ;mcc_generated_files/interrupt_manager.c: 64:     }
  1659   0029F6  EF18  F015         	goto	i2l124
  1660   0029FA                     i2l120:
  1661   0029FA  A0A2               	btfss	162,0,c	;volatile
  1662   0029FC  EF02  F015         	goto	i2u55_41
  1663   002A00  EF04  F015         	goto	i2u55_40
  1664   002A04                     i2u55_41:
  1665   002A04  EF18  F015         	goto	i2l124
  1666   002A08                     i2u55_40:
  1667   002A08  A0B2               	btfss	178,0,c	;volatile
  1668   002A0A  EF09  F015         	goto	i2u56_41
  1669   002A0E  EF0B  F015         	goto	i2u56_40
  1670   002A12                     i2u56_41:
  1671   002A12  EF18  F015         	goto	i2l124
  1672   002A16                     i2u56_40:
  1673   002A16                     
  1674                           ;mcc_generated_files/interrupt_manager.c: 66:     {;mcc_generated_files/interrupt_manage
      +                          r.c: 67:         UART1_RxInterruptHandler();
  1675   002A16  D802               	call	i2u57_48
  1676   002A18  EF18  F015         	goto	i2u57_49
  1677   002A1C                     i2u57_48:
  1678   002A1C  0005               	push	
  1679   002A1E  6EFA               	movwf	pclath,c
  1680   002A20  504F               	movf	_UART1_RxInterruptHandler^(0+1280),w,c
  1681   002A22  6EFD               	movwf	tosl,c
  1682   002A24  5050               	movf	(_UART1_RxInterruptHandler+1)^(0+1280),w,c
  1683   002A26  6EFE               	movwf	tosh,c
  1684   002A28  5051               	movf	(_UART1_RxInterruptHandler+2)^(0+1280),w,c
  1685   002A2A  6EFF               	movwf	tosu,c
  1686   002A2C  50FA               	movf	pclath,w,c
  1687   002A2E  0012               	return		;indir
  1688   002A30                     i2u57_49:
  1689   002A30                     i2l124:
  1690   002A30  C524  F4FB         	movff	??_INTERRUPT_InterruptManager+1,pclatu
  1691   002A34  C523  F4FA         	movff	??_INTERRUPT_InterruptManager,pclath
  1692   002A38  0011               	retfie		f
  1693   002A3A                     __end_of_INTERRUPT_InterruptManager:
  1694                           	callstack 0
  1695                           
  1696 ;; *************** function _UART1_Transmit_ISR *****************
  1697 ;; Defined at:
  1698 ;;		line 241 in file "mcc_generated_files/uart1.c"
  1699 ;; Parameters:    Size  Location     Type
  1700 ;;		None
  1701 ;; Auto vars:     Size  Location     Type
  1702 ;;		None
  1703 ;; Return value:  Size  Location     Type
  1704 ;;                  1    wreg      void 
  1705 ;; Registers used:
  1706 ;;		wreg, fsr2l, fsr2h, status,2, status,0
  1707 ;; Tracked objects:
  1708 ;;		On entry : 0/0
  1709 ;;		On exit  : 0/0
  1710 ;;		Unchanged: 0/0
  1711 ;; Data sizes:     COMRAM   BANK5   BANK6   BANK7   BANK8   BANK9  BANK10  BANK11  BANK12  BANK13  BANK14  BANK15  BANK1
      +6  BANK17  BANK18  BANK19  BANK20  BANK21  BANK22  BANK23  BANK24  BANK25  BANK26  BANK27  BANK28  BANK29  BANK30  BANK3
      +1  BANK32  BANK33  BANK34  BANK35  BANK36
  1712 ;;      Params:         0       0       0       0       0       0       0       0       0       0       0       0       
      +0       0       0       0       0       0       0       0       0       0       0       0       0       0       0       
      +0       0       0       0       0       0
  1713 ;;      Locals:         0       0       0       0       0       0       0       0       0       0       0       0       
      +0       0       0       0       0       0       0       0       0       0       0       0       0       0       0       
      +0       0       0       0       0       0
  1714 ;;      Temps:          0       0       0       0       0       0       0       0       0       0       0       0       
      +0       0       0       0       0       0       0       0       0       0       0       0       0       0       0       
      +0       0       0       0       0       0
  1715 ;;      Totals:         0       0       0       0       0       0       0       0       0       0       0       0       
      +0       0       0       0       0       0       0       0       0       0       0       0       0       0       0       
      +0       0       0       0       0       0
  1716 ;;Total ram usage:        0 bytes
  1717 ;; Hardware stack levels used: 1
  1718 ;; This function calls:
  1719 ;;		Nothing
  1720 ;; This function is called by:
  1721 ;;		_UART1_Initialize
  1722 ;;		_INTERRUPT_InterruptManager
  1723 ;; This function uses a non-reentrant model
  1724 ;;
  1725                           
  1726                           	psect	text14
  1727   002A3A                     __ptext14:
  1728                           	callstack 0
  1729   002A3A                     _UART1_Transmit_ISR:
  1730                           	callstack 122
  1731   002A3A                     
  1732                           ;mcc_generated_files/uart1.c: 244:     if(sizeof(uart1TxBuffer) > uart1TxBufferRemaining
      +                          )
  1733   002A3A  0E08               	movlw	8
  1734   002A3C  6052               	cpfslt	_uart1TxBufferRemaining^(0+1280),c	;volatile
  1735   002A3E  EF23  F015         	goto	i2u7_41
  1736   002A42  EF25  F015         	goto	i2u7_40
  1737   002A46                     i2u7_41:
  1738   002A46  EF3C  F015         	goto	i2l258
  1739   002A4A                     i2u7_40:
  1740   002A4A                     
  1741                           ;mcc_generated_files/uart1.c: 245:     {;mcc_generated_files/uart1.c: 246:         U1TXB
      +                           = uart1TxBuffer[uart1TxTail++];
  1742   002A4A  0E11               	movlw	low _uart1TxBuffer
  1743   002A4C  2421               	addwf	_uart1TxTail^(0+1280),w,c	;volatile
  1744   002A4E  6ED9               	movwf	fsr2l,c
  1745   002A50  6ADA               	clrf	fsr2h,c
  1746   002A52  0E05               	movlw	high _uart1TxBuffer
  1747   002A54  22DA               	addwfc	fsr2h,f,c
  1748   002A56  50DF               	movf	indf2,w,c
  1749   002A58  0102               	movlb	2	; () banked
  1750   002A5A  6FA3               	movwf	163,b	;volatile
  1751   002A5C                     
  1752                           ; BSR set to: 2
  1753   002A5C  2A21               	incf	_uart1TxTail^(0+1280),f,c	;volatile
  1754   002A5E                     
  1755                           ; BSR set to: 2
  1756                           ;mcc_generated_files/uart1.c: 247:        if(sizeof(uart1TxBuffer) <= uart1TxTail)
  1757   002A5E  0E07               	movlw	7
  1758   002A60  6421               	cpfsgt	_uart1TxTail^(0+1280),c	;volatile
  1759   002A62  EF35  F015         	goto	i2u8_41
  1760   002A66  EF37  F015         	goto	i2u8_40
  1761   002A6A                     i2u8_41:
  1762   002A6A  EF39  F015         	goto	i2l1524
  1763   002A6E                     i2u8_40:
  1764   002A6E                     
  1765                           ; BSR set to: 2
  1766                           ;mcc_generated_files/uart1.c: 248:         {;mcc_generated_files/uart1.c: 249:          
      +                             uart1TxTail = 0;
  1767   002A6E  0E00               	movlw	0
  1768   002A70  6E21               	movwf	_uart1TxTail^(0+1280),c	;volatile
  1769   002A72                     i2l1524:
  1770                           
  1771                           ; BSR set to: 2
  1772                           ;mcc_generated_files/uart1.c: 251:         uart1TxBufferRemaining++;
  1773   002A72  2A52               	incf	_uart1TxBufferRemaining^(0+1280),f,c	;volatile
  1774                           
  1775                           ;mcc_generated_files/uart1.c: 252:     }
  1776   002A74  EF3D  F015         	goto	i2l261
  1777   002A78                     i2l258:
  1778                           
  1779                           ;mcc_generated_files/uart1.c: 254:     {;mcc_generated_files/uart1.c: 255:         PIE4b
      +                          its.U1TXIE = 0;
  1780   002A78  92A2               	bcf	162,1,c	;volatile
  1781   002A7A                     i2l261:
  1782   002A7A  0012               	return		;funcret
  1783   002A7C                     __end_of_UART1_Transmit_ISR:
  1784                           	callstack 0
  1785                           
  1786 ;; *************** function _UART1_Receive_ISR *****************
  1787 ;; Defined at:
  1788 ;;		line 261 in file "mcc_generated_files/uart1.c"
  1789 ;; Parameters:    Size  Location     Type
  1790 ;;		None
  1791 ;; Auto vars:     Size  Location     Type
  1792 ;;		None
  1793 ;; Return value:  Size  Location     Type
  1794 ;;                  1    wreg      void 
  1795 ;; Registers used:
  1796 ;;		wreg, fsr2l, fsr2h, status,2, status,0, pcl, pclath, pclatu, tosl, cstack
  1797 ;; Tracked objects:
  1798 ;;		On entry : 0/0
  1799 ;;		On exit  : 0/0
  1800 ;;		Unchanged: 0/0
  1801 ;; Data sizes:     COMRAM   BANK5   BANK6   BANK7   BANK8   BANK9  BANK10  BANK11  BANK12  BANK13  BANK14  BANK15  BANK1
      +6  BANK17  BANK18  BANK19  BANK20  BANK21  BANK22  BANK23  BANK24  BANK25  BANK26  BANK27  BANK28  BANK29  BANK30  BANK3
      +1  BANK32  BANK33  BANK34  BANK35  BANK36
  1802 ;;      Params:         0       0       0       0       0       0       0       0       0       0       0       0       
      +0       0       0       0       0       0       0       0       0       0       0       0       0       0       0       
      +0       0       0       0       0       0
  1803 ;;      Locals:         0       0       0       0       0       0       0       0       0       0       0       0       
      +0       0       0       0       0       0       0       0       0       0       0       0       0       0       0       
      +0       0       0       0       0       0
  1804 ;;      Temps:          0       0       0       0       0       0       0       0       0       0       0       0       
      +0       0       0       0       0       0       0       0       0       0       0       0       0       0       0       
      +0       0       0       0       0       0
  1805 ;;      Totals:         0       0       0       0       0       0       0       0       0       0       0       0       
      +0       0       0       0       0       0       0       0       0       0       0       0       0       0       0       
      +0       0       0       0       0       0
  1806 ;;Total ram usage:        0 bytes
  1807 ;; Hardware stack levels used: 1
  1808 ;; Hardware stack levels required when called: 2
  1809 ;; This function calls:
  1810 ;;		Absolute function
  1811 ;;		_UART1_DefaultErrorHandler
  1812 ;;		_UART1_DefaultFramingErrorHandler
  1813 ;;		_UART1_DefaultOverrunErrorHandler
  1814 ;;		_UART1_RxDataHandler
  1815 ;; This function is called by:
  1816 ;;		_UART1_Initialize
  1817 ;;		_INTERRUPT_InterruptManager
  1818 ;; This function uses a non-reentrant model
  1819 ;;
  1820                           
  1821                           	psect	text15
  1822   00279C                     __ptext15:
  1823                           	callstack 0
  1824   00279C                     _UART1_Receive_ISR:
  1825                           	callstack 120
  1826   00279C                     
  1827                           ;mcc_generated_files/uart1.c: 264:     uart1RxStatusBuffer[uart1RxHead].status = 0;
  1828   00279C  0E01               	movlw	low _uart1RxStatusBuffer
  1829   00279E  2420               	addwf	_uart1RxHead^(0+1280),w,c	;volatile
  1830   0027A0  6ED9               	movwf	fsr2l,c
  1831   0027A2  6ADA               	clrf	fsr2h,c
  1832   0027A4  0E05               	movlw	high _uart1RxStatusBuffer
  1833   0027A6  22DA               	addwfc	fsr2h,f,c
  1834   0027A8  0E00               	movlw	0
  1835   0027AA  6EDF               	movwf	indf2,c
  1836   0027AC                     
  1837                           ;mcc_generated_files/uart1.c: 266:     if(U1ERRIRbits.FERIF){
  1838   0027AC  0102               	movlb	2	; () banked
  1839   0027AE  A7B2               	btfss	178,3,b	;volatile
  1840   0027B0  EFDC  F013         	goto	i2u45_41
  1841   0027B4  EFDE  F013         	goto	i2u45_40
  1842   0027B8                     i2u45_41:
  1843   0027B8  EFF2  F013         	goto	i2l1788
  1844   0027BC                     i2u45_40:
  1845   0027BC                     
  1846                           ; BSR set to: 2
  1847                           ;mcc_generated_files/uart1.c: 267:         uart1RxStatusBuffer[uart1RxHead].ferr = 1;
  1848   0027BC  0E01               	movlw	low _uart1RxStatusBuffer
  1849   0027BE  2420               	addwf	_uart1RxHead^(0+1280),w,c	;volatile
  1850   0027C0  6ED9               	movwf	fsr2l,c
  1851   0027C2  6ADA               	clrf	fsr2h,c
  1852   0027C4  0E05               	movlw	high _uart1RxStatusBuffer
  1853   0027C6  22DA               	addwfc	fsr2h,f,c
  1854   0027C8  82DF               	bsf	indf2,1,c
  1855   0027CA                     
  1856                           ; BSR set to: 2
  1857                           ;mcc_generated_files/uart1.c: 268:         UART1_FramingErrorHandler();
  1858   0027CA  D802               	call	i2u46_48
  1859   0027CC  EFF2  F013         	goto	i2u46_49
  1860   0027D0                     i2u46_48:
  1861   0027D0  0005               	push	
  1862   0027D2  6EFA               	movwf	pclath,c
  1863   0027D4  5049               	movf	_UART1_FramingErrorHandler^(0+1280),w,c
  1864   0027D6  6EFD               	movwf	tosl,c
  1865   0027D8  504A               	movf	(_UART1_FramingErrorHandler+1)^(0+1280),w,c
  1866   0027DA  6EFE               	movwf	tosh,c
  1867   0027DC  504B               	movf	(_UART1_FramingErrorHandler+2)^(0+1280),w,c
  1868   0027DE  6EFF               	movwf	tosu,c
  1869   0027E0  50FA               	movf	pclath,w,c
  1870   0027E2  0012               	return		;indir
  1871   0027E4                     i2u46_49:
  1872   0027E4                     i2l1788:
  1873                           
  1874                           ;mcc_generated_files/uart1.c: 271:     if(U1ERRIRbits.RXFOIF){
  1875   0027E4  0102               	movlb	2	; () banked
  1876   0027E6  A3B2               	btfss	178,1,b	;volatile
  1877   0027E8  EFF8  F013         	goto	i2u47_41
  1878   0027EC  EFFA  F013         	goto	i2u47_40
  1879   0027F0                     i2u47_41:
  1880   0027F0  EF0E  F014         	goto	i2l1794
  1881   0027F4                     i2u47_40:
  1882   0027F4                     
  1883                           ; BSR set to: 2
  1884                           ;mcc_generated_files/uart1.c: 272:         uart1RxStatusBuffer[uart1RxHead].oerr = 1;
  1885   0027F4  0E01               	movlw	low _uart1RxStatusBuffer
  1886   0027F6  2420               	addwf	_uart1RxHead^(0+1280),w,c	;volatile
  1887   0027F8  6ED9               	movwf	fsr2l,c
  1888   0027FA  6ADA               	clrf	fsr2h,c
  1889   0027FC  0E05               	movlw	high _uart1RxStatusBuffer
  1890   0027FE  22DA               	addwfc	fsr2h,f,c
  1891   002800  84DF               	bsf	indf2,2,c
  1892   002802                     
  1893                           ; BSR set to: 2
  1894                           ;mcc_generated_files/uart1.c: 273:         UART1_OverrunErrorHandler();
  1895   002802  D802               	call	i2u48_48
  1896   002804  EF0E  F014         	goto	i2u48_49
  1897   002808                     i2u48_48:
  1898   002808  0005               	push	
  1899   00280A  6EFA               	movwf	pclath,c
  1900   00280C  5046               	movf	_UART1_OverrunErrorHandler^(0+1280),w,c
  1901   00280E  6EFD               	movwf	tosl,c
  1902   002810  5047               	movf	(_UART1_OverrunErrorHandler+1)^(0+1280),w,c
  1903   002812  6EFE               	movwf	tosh,c
  1904   002814  5048               	movf	(_UART1_OverrunErrorHandler+2)^(0+1280),w,c
  1905   002816  6EFF               	movwf	tosu,c
  1906   002818  50FA               	movf	pclath,w,c
  1907   00281A  0012               	return		;indir
  1908   00281C                     i2u48_49:
  1909   00281C                     i2l1794:
  1910                           
  1911                           ;mcc_generated_files/uart1.c: 276:     if(uart1RxStatusBuffer[uart1RxHead].status){
  1912   00281C  0E01               	movlw	low _uart1RxStatusBuffer
  1913   00281E  2420               	addwf	_uart1RxHead^(0+1280),w,c	;volatile
  1914   002820  6ED9               	movwf	fsr2l,c
  1915   002822  6ADA               	clrf	fsr2h,c
  1916   002824  0E05               	movlw	high _uart1RxStatusBuffer
  1917   002826  22DA               	addwfc	fsr2h,f,c
  1918   002828  50DF               	movf	indf2,w,c
  1919   00282A  B4D8               	btfsc	status,2,c
  1920   00282C  EF1A  F014         	goto	i2u49_41
  1921   002830  EF1C  F014         	goto	i2u49_40
  1922   002834                     i2u49_41:
  1923   002834  EF2B  F014         	goto	i2l1798
  1924   002838                     i2u49_40:
  1925   002838                     
  1926                           ;mcc_generated_files/uart1.c: 277:         UART1_ErrorHandler();
  1927   002838  D802               	call	i2u50_48
  1928   00283A  EF29  F014         	goto	i2u50_49
  1929   00283E                     i2u50_48:
  1930   00283E  0005               	push	
  1931   002840  6EFA               	movwf	pclath,c
  1932   002842  5043               	movf	_UART1_ErrorHandler^(0+1280),w,c
  1933   002844  6EFD               	movwf	tosl,c
  1934   002846  5044               	movf	(_UART1_ErrorHandler+1)^(0+1280),w,c
  1935   002848  6EFE               	movwf	tosh,c
  1936   00284A  5045               	movf	(_UART1_ErrorHandler+2)^(0+1280),w,c
  1937   00284C  6EFF               	movwf	tosu,c
  1938   00284E  50FA               	movf	pclath,w,c
  1939   002850  0012               	return		;indir
  1940   002852                     i2u50_49:
  1941                           
  1942                           ;mcc_generated_files/uart1.c: 278:     } else {
  1943   002852  EF2D  F014         	goto	i2l268
  1944   002856                     i2l1798:
  1945                           
  1946                           ;mcc_generated_files/uart1.c: 279:         UART1_RxDataHandler();
  1947   002856  EC5D  F015         	call	_UART1_RxDataHandler	;wreg free
  1948   00285A                     i2l268:
  1949   00285A  0012               	return		;funcret
  1950   00285C                     __end_of_UART1_Receive_ISR:
  1951                           	callstack 0
  1952                           
  1953 ;; *************** function _UART1_DefaultOverrunErrorHandler *****************
  1954 ;; Defined at:
  1955 ;;		line 303 in file "mcc_generated_files/uart1.c"
  1956 ;; Parameters:    Size  Location     Type
  1957 ;;		None
  1958 ;; Auto vars:     Size  Location     Type
  1959 ;;		None
  1960 ;; Return value:  Size  Location     Type
  1961 ;;                  1    wreg      void 
  1962 ;; Registers used:
  1963 ;;		None
  1964 ;; Tracked objects:
  1965 ;;		On entry : 0/0
  1966 ;;		On exit  : 0/0
  1967 ;;		Unchanged: 0/0
  1968 ;; Data sizes:     COMRAM   BANK5   BANK6   BANK7   BANK8   BANK9  BANK10  BANK11  BANK12  BANK13  BANK14  BANK15  BANK1
      +6  BANK17  BANK18  BANK19  BANK20  BANK21  BANK22  BANK23  BANK24  BANK25  BANK26  BANK27  BANK28  BANK29  BANK30  BANK3
      +1  BANK32  BANK33  BANK34  BANK35  BANK36
  1969 ;;      Params:         0       0       0       0       0       0       0       0       0       0       0       0       
      +0       0       0       0       0       0       0       0       0       0       0       0       0       0       0       
      +0       0       0       0       0       0
  1970 ;;      Locals:         0       0       0       0       0       0       0       0       0       0       0       0       
      +0       0       0       0       0       0       0       0       0       0       0       0       0       0       0       
      +0       0       0       0       0       0
  1971 ;;      Temps:          0       0       0       0       0       0       0       0       0       0       0       0       
      +0       0       0       0       0       0       0       0       0       0       0       0       0       0       0       
      +0       0       0       0       0       0
  1972 ;;      Totals:         0       0       0       0       0       0       0       0       0       0       0       0       
      +0       0       0       0       0       0       0       0       0       0       0       0       0       0       0       
      +0       0       0       0       0       0
  1973 ;;Total ram usage:        0 bytes
  1974 ;; Hardware stack levels used: 1
  1975 ;; This function calls:
  1976 ;;		Nothing
  1977 ;; This function is called by:
  1978 ;;		_UART1_Initialize
  1979 ;;		_UART1_Receive_ISR
  1980 ;; This function uses a non-reentrant model
  1981 ;;
  1982                           
  1983                           	psect	text16
  1984   002BC6                     __ptext16:
  1985                           	callstack 0
  1986   002BC6                     _UART1_DefaultOverrunErrorHandler:
  1987                           	callstack 121
  1988   002BC6  0012               	return		;funcret
  1989   002BC8                     __end_of_UART1_DefaultOverrunErrorHandler:
  1990                           	callstack 0
  1991                           
  1992 ;; *************** function _UART1_DefaultFramingErrorHandler *****************
  1993 ;; Defined at:
  1994 ;;		line 301 in file "mcc_generated_files/uart1.c"
  1995 ;; Parameters:    Size  Location     Type
  1996 ;;		None
  1997 ;; Auto vars:     Size  Location     Type
  1998 ;;		None
  1999 ;; Return value:  Size  Location     Type
  2000 ;;                  1    wreg      void 
  2001 ;; Registers used:
  2002 ;;		None
  2003 ;; Tracked objects:
  2004 ;;		On entry : 0/0
  2005 ;;		On exit  : 0/0
  2006 ;;		Unchanged: 0/0
  2007 ;; Data sizes:     COMRAM   BANK5   BANK6   BANK7   BANK8   BANK9  BANK10  BANK11  BANK12  BANK13  BANK14  BANK15  BANK1
      +6  BANK17  BANK18  BANK19  BANK20  BANK21  BANK22  BANK23  BANK24  BANK25  BANK26  BANK27  BANK28  BANK29  BANK30  BANK3
      +1  BANK32  BANK33  BANK34  BANK35  BANK36
  2008 ;;      Params:         0       0       0       0       0       0       0       0       0       0       0       0       
      +0       0       0       0       0       0       0       0       0       0       0       0       0       0       0       
      +0       0       0       0       0       0
  2009 ;;      Locals:         0       0       0       0       0       0       0       0       0       0       0       0       
      +0       0       0       0       0       0       0       0       0       0       0       0       0       0       0       
      +0       0       0       0       0       0
  2010 ;;      Temps:          0       0       0       0       0       0       0       0       0       0       0       0       
      +0       0       0       0       0       0       0       0       0       0       0       0       0       0       0       
      +0       0       0       0       0       0
  2011 ;;      Totals:         0       0       0       0       0       0       0       0       0       0       0       0       
      +0       0       0       0       0       0       0       0       0       0       0       0       0       0       0       
      +0       0       0       0       0       0
  2012 ;;Total ram usage:        0 bytes
  2013 ;; Hardware stack levels used: 1
  2014 ;; This function calls:
  2015 ;;		Nothing
  2016 ;; This function is called by:
  2017 ;;		_UART1_Initialize
  2018 ;;		_UART1_Receive_ISR
  2019 ;; This function uses a non-reentrant model
  2020 ;;
  2021                           
  2022                           	psect	text17
  2023   002BC8                     __ptext17:
  2024                           	callstack 0
  2025   002BC8                     _UART1_DefaultFramingErrorHandler:
  2026                           	callstack 121
  2027   002BC8  0012               	return		;funcret
  2028   002BCA                     __end_of_UART1_DefaultFramingErrorHandler:
  2029                           	callstack 0
  2030                           
  2031 ;; *************** function _UART1_DefaultErrorHandler *****************
  2032 ;; Defined at:
  2033 ;;		line 305 in file "mcc_generated_files/uart1.c"
  2034 ;; Parameters:    Size  Location     Type
  2035 ;;		None
  2036 ;; Auto vars:     Size  Location     Type
  2037 ;;		None
  2038 ;; Return value:  Size  Location     Type
  2039 ;;                  1    wreg      void 
  2040 ;; Registers used:
  2041 ;;		wreg, fsr2l, fsr2h, status,2, status,0, cstack
  2042 ;; Tracked objects:
  2043 ;;		On entry : 0/0
  2044 ;;		On exit  : 0/0
  2045 ;;		Unchanged: 0/0
  2046 ;; Data sizes:     COMRAM   BANK5   BANK6   BANK7   BANK8   BANK9  BANK10  BANK11  BANK12  BANK13  BANK14  BANK15  BANK1
      +6  BANK17  BANK18  BANK19  BANK20  BANK21  BANK22  BANK23  BANK24  BANK25  BANK26  BANK27  BANK28  BANK29  BANK30  BANK3
      +1  BANK32  BANK33  BANK34  BANK35  BANK36
  2047 ;;      Params:         0       0       0       0       0       0       0       0       0       0       0       0       
      +0       0       0       0       0       0       0       0       0       0       0       0       0       0       0       
      +0       0       0       0       0       0
  2048 ;;      Locals:         0       0       0       0       0       0       0       0       0       0       0       0       
      +0       0       0       0       0       0       0       0       0       0       0       0       0       0       0       
      +0       0       0       0       0       0
  2049 ;;      Temps:          0       0       0       0       0       0       0       0       0       0       0       0       
      +0       0       0       0       0       0       0       0       0       0       0       0       0       0       0       
      +0       0       0       0       0       0
  2050 ;;      Totals:         0       0       0       0       0       0       0       0       0       0       0       0       
      +0       0       0       0       0       0       0       0       0       0       0       0       0       0       0       
      +0       0       0       0       0       0
  2051 ;;Total ram usage:        0 bytes
  2052 ;; Hardware stack levels used: 1
  2053 ;; Hardware stack levels required when called: 1
  2054 ;; This function calls:
  2055 ;;		_UART1_RxDataHandler
  2056 ;; This function is called by:
  2057 ;;		_UART1_Initialize
  2058 ;;		_UART1_Receive_ISR
  2059 ;; This function uses a non-reentrant model
  2060 ;;
  2061                           
  2062                           	psect	text18
  2063   002BBC                     __ptext18:
  2064                           	callstack 0
  2065   002BBC                     _UART1_DefaultErrorHandler:
  2066                           	callstack 120
  2067   002BBC                     
  2068                           ;mcc_generated_files/uart1.c: 306:     UART1_RxDataHandler();
  2069   002BBC  EC5D  F015         	call	_UART1_RxDataHandler	;wreg free
  2070   002BC0  0012               	return		;funcret
  2071   002BC2                     __end_of_UART1_DefaultErrorHandler:
  2072                           	callstack 0
  2073                           
  2074 ;; *************** function _UART1_RxDataHandler *****************
  2075 ;; Defined at:
  2076 ;;		line 285 in file "mcc_generated_files/uart1.c"
  2077 ;; Parameters:    Size  Location     Type
  2078 ;;		None
  2079 ;; Auto vars:     Size  Location     Type
  2080 ;;		None
  2081 ;; Return value:  Size  Location     Type
  2082 ;;                  1    wreg      void 
  2083 ;; Registers used:
  2084 ;;		wreg, fsr2l, fsr2h, status,2, status,0
  2085 ;; Tracked objects:
  2086 ;;		On entry : 0/0
  2087 ;;		On exit  : 0/0
  2088 ;;		Unchanged: 0/0
  2089 ;; Data sizes:     COMRAM   BANK5   BANK6   BANK7   BANK8   BANK9  BANK10  BANK11  BANK12  BANK13  BANK14  BANK15  BANK1
      +6  BANK17  BANK18  BANK19  BANK20  BANK21  BANK22  BANK23  BANK24  BANK25  BANK26  BANK27  BANK28  BANK29  BANK30  BANK3
      +1  BANK32  BANK33  BANK34  BANK35  BANK36
  2090 ;;      Params:         0       0       0       0       0       0       0       0       0       0       0       0       
      +0       0       0       0       0       0       0       0       0       0       0       0       0       0       0       
      +0       0       0       0       0       0
  2091 ;;      Locals:         0       0       0       0       0       0       0       0       0       0       0       0       
      +0       0       0       0       0       0       0       0       0       0       0       0       0       0       0       
      +0       0       0       0       0       0
  2092 ;;      Temps:          0       0       0       0       0       0       0       0       0       0       0       0       
      +0       0       0       0       0       0       0       0       0       0       0       0       0       0       0       
      +0       0       0       0       0       0
  2093 ;;      Totals:         0       0       0       0       0       0       0       0       0       0       0       0       
      +0       0       0       0       0       0       0       0       0       0       0       0       0       0       0       
      +0       0       0       0       0       0
  2094 ;;Total ram usage:        0 bytes
  2095 ;; Hardware stack levels used: 1
  2096 ;; This function calls:
  2097 ;;		Nothing
  2098 ;; This function is called by:
  2099 ;;		_UART1_Receive_ISR
  2100 ;;		_UART1_DefaultErrorHandler
  2101 ;; This function uses a non-reentrant model
  2102 ;;
  2103                           
  2104                           	psect	text19
  2105   002ABA                     __ptext19:
  2106                           	callstack 0
  2107   002ABA                     _UART1_RxDataHandler:
  2108                           	callstack 121
  2109   002ABA                     
  2110                           ;mcc_generated_files/uart1.c: 293:     frame[index++] = U1RXB;
  2111   002ABA  0E60               	movlw	low _frame
  2112   002ABC  241B               	addwf	_index^(0+1280),w,c
  2113   002ABE  6ED9               	movwf	fsr2l,c
  2114   002AC0  0E05               	movlw	high _frame
  2115   002AC2  201C               	addwfc	(_index+1)^(0+1280),w,c
  2116   002AC4  6EDA               	movwf	fsr2h,c
  2117   002AC6  C2A1 F4DF          	movff	673,indf2	;volatile
  2118   002ACA  4A1B               	infsnz	_index^(0+1280),f,c
  2119   002ACC  2A1C               	incf	(_index+1)^(0+1280),f,c
  2120   002ACE                     
  2121                           ;mcc_generated_files/uart1.c: 295:     if(16<index){
  2122   002ACE  BE1C               	btfsc	(_index+1)^(0+1280),7,c
  2123   002AD0  EF73  F015         	goto	i2u44_41
  2124   002AD4  501C               	movf	(_index+1)^(0+1280),w,c
  2125   002AD6  E109               	bnz	i2u44_40
  2126   002AD8  0E11               	movlw	17
  2127   002ADA  5C1B               	subwf	_index^(0+1280),w,c
  2128   002ADC  A0D8               	btfss	status,0,c
  2129   002ADE  EF73  F015         	goto	i2u44_41
  2130   002AE2  EF75  F015         	goto	i2u44_40
  2131   002AE6                     i2u44_41:
  2132   002AE6  EF79  F015         	goto	i2l272
  2133   002AEA                     i2u44_40:
  2134   002AEA                     
  2135                           ;mcc_generated_files/uart1.c: 296:         index=0;
  2136   002AEA  0E00               	movlw	0
  2137   002AEC  6E1C               	movwf	(_index+1)^(0+1280),c
  2138   002AEE  0E00               	movlw	0
  2139   002AF0  6E1B               	movwf	_index^(0+1280),c
  2140   002AF2                     i2l272:
  2141   002AF2  0012               	return		;funcret
  2142   002AF4                     __end_of_UART1_RxDataHandler:
  2143                           	callstack 0
  2144                           
  2145                           ;
  2146                           ; Interrupt Vector Table @ 0x8
  2147                           ;
  2148                           
  2149                           	psect	ivt0x8
  2150   000008                     __pivt0x8:
  2151                           	callstack 0
  2152   000008                     ivt0x8_base:
  2153                           	callstack 0
  2154                           
  2155                           ; high-priority vector
  2156   000008  EFDC  F014         	goto	_INTERRUPT_InterruptManager
  2157   000018                     	org	16
  2158                           
  2159                           ; low-priority vector
  2160   000018  00FF               	reset	
  2161                           
  2162                           	psect	text20
  2163   000000                     __ptext20:
  2164                           	callstack 0
  2165   000000                     
  2166                           	psect	rparam
  2167   000000                     
  2168                           	psect	idloc
  2169                           
  2170                           ;Config register IDLOC0 @ 0x200000
  2171                           ;	unspecified, using default values
  2172   200000                     	org	2097152
  2173   200000  0FFF               	dw	4095
  2174                           
  2175                           ;Config register IDLOC1 @ 0x200002
  2176                           ;	unspecified, using default values
  2177   200002                     	org	2097154
  2178   200002  0FFF               	dw	4095
  2179                           
  2180                           ;Config register IDLOC2 @ 0x200004
  2181                           ;	unspecified, using default values
  2182   200004                     	org	2097156
  2183   200004  0FFF               	dw	4095
  2184                           
  2185                           ;Config register IDLOC3 @ 0x200006
  2186                           ;	unspecified, using default values
  2187   200006                     	org	2097158
  2188   200006  0FFF               	dw	4095
  2189                           
  2190                           ;Config register IDLOC4 @ 0x200008
  2191                           ;	unspecified, using default values
  2192   200008                     	org	2097160
  2193   200008  0FFF               	dw	4095
  2194                           
  2195                           ;Config register IDLOC5 @ 0x20000A
  2196                           ;	unspecified, using default values
  2197   20000A                     	org	2097162
  2198   20000A  0FFF               	dw	4095
  2199                           
  2200                           ;Config register IDLOC6 @ 0x20000C
  2201                           ;	unspecified, using default values
  2202   20000C                     	org	2097164
  2203   20000C  0FFF               	dw	4095
  2204                           
  2205                           ;Config register IDLOC7 @ 0x20000E
  2206                           ;	unspecified, using default values
  2207   20000E                     	org	2097166
  2208   20000E  0FFF               	dw	4095
  2209                           
  2210                           ;Config register IDLOC8 @ 0x200010
  2211                           ;	unspecified, using default values
  2212   200010                     	org	2097168
  2213   200010  0FFF               	dw	4095
  2214                           
  2215                           ;Config register IDLOC9 @ 0x200012
  2216                           ;	unspecified, using default values
  2217   200012                     	org	2097170
  2218   200012  0FFF               	dw	4095
  2219                           
  2220                           ;Config register IDLOC10 @ 0x200014
  2221                           ;	unspecified, using default values
  2222   200014                     	org	2097172
  2223   200014  0FFF               	dw	4095
  2224                           
  2225                           ;Config register IDLOC11 @ 0x200016
  2226                           ;	unspecified, using default values
  2227   200016                     	org	2097174
  2228   200016  0FFF               	dw	4095
  2229                           
  2230                           ;Config register IDLOC12 @ 0x200018
  2231                           ;	unspecified, using default values
  2232   200018                     	org	2097176
  2233   200018  0FFF               	dw	4095
  2234                           
  2235                           ;Config register IDLOC13 @ 0x20001A
  2236                           ;	unspecified, using default values
  2237   20001A                     	org	2097178
  2238   20001A  0FFF               	dw	4095
  2239                           
  2240                           ;Config register IDLOC14 @ 0x20001C
  2241                           ;	unspecified, using default values
  2242   20001C                     	org	2097180
  2243   20001C  0FFF               	dw	4095
  2244                           
  2245                           ;Config register IDLOC15 @ 0x20001E
  2246                           ;	unspecified, using default values
  2247   20001E                     	org	2097182
  2248   20001E  0FFF               	dw	4095
  2249                           
  2250                           ;Config register IDLOC16 @ 0x200020
  2251                           ;	unspecified, using default values
  2252   200020                     	org	2097184
  2253   200020  0FFF               	dw	4095
  2254                           
  2255                           ;Config register IDLOC17 @ 0x200022
  2256                           ;	unspecified, using default values
  2257   200022                     	org	2097186
  2258   200022  0FFF               	dw	4095
  2259                           
  2260                           ;Config register IDLOC18 @ 0x200024
  2261                           ;	unspecified, using default values
  2262   200024                     	org	2097188
  2263   200024  0FFF               	dw	4095
  2264                           
  2265                           ;Config register IDLOC19 @ 0x200026
  2266                           ;	unspecified, using default values
  2267   200026                     	org	2097190
  2268   200026  0FFF               	dw	4095
  2269                           
  2270                           ;Config register IDLOC20 @ 0x200028
  2271                           ;	unspecified, using default values
  2272   200028                     	org	2097192
  2273   200028  0FFF               	dw	4095
  2274                           
  2275                           ;Config register IDLOC21 @ 0x20002A
  2276                           ;	unspecified, using default values
  2277   20002A                     	org	2097194
  2278   20002A  0FFF               	dw	4095
  2279                           
  2280                           ;Config register IDLOC22 @ 0x20002C
  2281                           ;	unspecified, using default values
  2282   20002C                     	org	2097196
  2283   20002C  0FFF               	dw	4095
  2284                           
  2285                           ;Config register IDLOC23 @ 0x20002E
  2286                           ;	unspecified, using default values
  2287   20002E                     	org	2097198
  2288   20002E  0FFF               	dw	4095
  2289                           
  2290                           ;Config register IDLOC24 @ 0x200030
  2291                           ;	unspecified, using default values
  2292   200030                     	org	2097200
  2293   200030  0FFF               	dw	4095
  2294                           
  2295                           ;Config register IDLOC25 @ 0x200032
  2296                           ;	unspecified, using default values
  2297   200032                     	org	2097202
  2298   200032  0FFF               	dw	4095
  2299                           
  2300                           ;Config register IDLOC26 @ 0x200034
  2301                           ;	unspecified, using default values
  2302   200034                     	org	2097204
  2303   200034  0FFF               	dw	4095
  2304                           
  2305                           ;Config register IDLOC27 @ 0x200036
  2306                           ;	unspecified, using default values
  2307   200036                     	org	2097206
  2308   200036  0FFF               	dw	4095
  2309                           
  2310                           ;Config register IDLOC28 @ 0x200038
  2311                           ;	unspecified, using default values
  2312   200038                     	org	2097208
  2313   200038  0FFF               	dw	4095
  2314                           
  2315                           ;Config register IDLOC29 @ 0x20003A
  2316                           ;	unspecified, using default values
  2317   20003A                     	org	2097210
  2318   20003A  0FFF               	dw	4095
  2319                           
  2320                           ;Config register IDLOC30 @ 0x20003C
  2321                           ;	unspecified, using default values
  2322   20003C                     	org	2097212
  2323   20003C  0FFF               	dw	4095
  2324                           
  2325                           ;Config register IDLOC31 @ 0x20003E
  2326                           ;	unspecified, using default values
  2327   20003E                     	org	2097214
  2328   20003E  0FFF               	dw	4095
  2329                           
  2330                           	psect	config
  2331                           
  2332                           ;Config register CONFIG1 @ 0x300000
  2333                           ;	External Oscillator Selection
  2334                           ;	FEXTOSC = OFF, Oscillator not enabled
  2335                           ;	Reset Oscillator Selection
  2336                           ;	RSTOSC = HFINTOSC_64MHZ, HFINTOSC with HFFRQ = 64 MHz and CDIV = 1:1
  2337   300000                     	org	3145728
  2338   300000  8C                 	db	140
  2339                           
  2340                           ;Config register CONFIG2 @ 0x300001
  2341                           ;	Clock out Enable bit
  2342                           ;	CLKOUTEN = OFF, CLKOUT function is disabled
  2343                           ;	PRLOCKED One-Way Set Enable bit
  2344                           ;	PR1WAY = ON, PRLOCKED bit can be cleared and set only once
  2345                           ;	Clock Switch Enable bit
  2346                           ;	CSWEN = ON, Writing to NOSC and NDIV is allowed
  2347                           ;	Fail-Safe Clock Monitor Enable bit
  2348                           ;	FCMEN = ON, Fail-Safe Clock Monitor enabled
  2349   300001                     	org	3145729
  2350   300001  FF                 	db	255
  2351                           
  2352                           ;Config register CONFIG3 @ 0x300002
  2353                           ;	MCLR Enable bit
  2354                           ;	MCLRE = EXTMCLR, If LVP = 0, MCLR pin is MCLR; If LVP = 1, RE3 pin function is MCLR
  2355                           ;	Power-up timer selection bits
  2356                           ;	PWRTS = PWRT_OFF, PWRT is disabled
  2357                           ;	Multi-vector enable bit
  2358                           ;	MVECEN = OFF, Interrupt contoller does not use vector table to prioritze interrupts
  2359                           ;	IVTLOCK bit One-way set enable bit
  2360                           ;	IVT1WAY = ON, IVTLOCKED bit can be cleared and set only once
  2361                           ;	Low Power BOR Enable bit
  2362                           ;	LPBOREN = OFF, Low-Power BOR disabled
  2363                           ;	Brown-out Reset Enable bits
  2364                           ;	BOREN = SBORDIS, Brown-out Reset enabled , SBOREN bit is ignored
  2365   300002                     	org	3145730
  2366   300002  F7                 	db	247
  2367                           
  2368                           ;Config register CONFIG4 @ 0x300003
  2369                           ;	Brown-out Reset Voltage Selection bits
  2370                           ;	BORV = VBOR_1P9, Brown-out Reset Voltage (VBOR) set to 1.9V
  2371                           ;	ZCD Disable bit
  2372                           ;	ZCD = OFF, ZCD module is disabled. ZCD can be enabled by setting the ZCDSEN bit of ZCD
      +                          CON
  2373                           ;	PPSLOCK bit One-Way Set Enable bit
  2374                           ;	PPS1WAY = ON, PPSLOCKED bit can be cleared and set only once; PPS registers remain loc
      +                          ked after one clear/set cycle
  2375                           ;	Stack Full/Underflow Reset Enable bit
  2376                           ;	STVREN = ON, Stack full/underflow will cause Reset
  2377                           ;	Low Voltage Programming Enable bit
  2378                           ;	LVP = ON, Low voltage programming enabled. MCLR/VPP pin function is MCLR. MCLRE config
      +                          uration bit is ignored
  2379                           ;	Extended Instruction Set Enable bit
  2380                           ;	XINST = OFF, Extended Instruction Set and Indexed Addressing Mode disabled
  2381   300003                     	org	3145731
  2382   300003  FF                 	db	255
  2383                           
  2384                           ;Config register CONFIG5 @ 0x300004
  2385                           ;	WDT Period selection bits
  2386                           ;	WDTCPS = WDTCPS_31, Divider ratio 1:65536; software control of WDTPS
  2387                           ;	WDT operating mode
  2388                           ;	WDTE = OFF, WDT Disabled; SWDTEN is ignored
  2389   300004                     	org	3145732
  2390   300004  9F                 	db	159
  2391                           
  2392                           ;Config register CONFIG6 @ 0x300005
  2393                           ;	WDT Window Select bits
  2394                           ;	WDTCWS = WDTCWS_7, window always open (100%); software control; keyed access not requi
      +                          red
  2395                           ;	WDT input clock selector
  2396                           ;	WDTCCS = SC, Software Control
  2397   300005                     	org	3145733
  2398   300005  FF                 	db	255
  2399                           
  2400                           ;Config register CONFIG7 @ 0x300006
  2401                           ;	Boot Block Size selection bits
  2402                           ;	BBSIZE = BBSIZE_512, Boot Block size is 512 words
  2403                           ;	Boot Block enable bit
  2404                           ;	BBEN = OFF, Boot block disabled
  2405                           ;	Storage Area Flash enable bit
  2406                           ;	SAFEN = OFF, SAF disabled
  2407                           ;	Background Debugger
  2408                           ;	DEBUG = OFF, Background Debugger disabled
  2409   300006                     	org	3145734
  2410   300006  FF                 	db	255
  2411                           
  2412                           ;Config register CONFIG8 @ 0x300007
  2413                           ;	Boot Block Write Protection bit
  2414                           ;	WRTB = OFF, Boot Block not Write protected
  2415                           ;	Configuration Register Write Protection bit
  2416                           ;	WRTC = OFF, Configuration registers not Write protected
  2417                           ;	Data EEPROM Write Protection bit
  2418                           ;	WRTD = OFF, Data EEPROM not Write protected
  2419                           ;	SAF Write protection bit
  2420                           ;	WRTSAF = OFF, SAF not Write Protected
  2421                           ;	Application Block write protection bit
  2422                           ;	WRTAPP = OFF, Application Block not write protected
  2423   300007                     	org	3145735
  2424   300007  FF                 	db	255
  2425                           
  2426                           ; Padding undefined space
  2427   300008                     	org	3145736
  2428   300008  FF                 	db	255
  2429                           
  2430                           ;Config register CONFIG10 @ 0x300009
  2431                           ;	PFM and Data EEPROM Code Protection bit
  2432                           ;	CP = OFF, PFM and Data EEPROM code protection disabled
  2433   300009                     	org	3145737
  2434   300009  FF                 	db	255
  2435                           tosu	equ	0x4FF
  2436                           tosh	equ	0x4FE
  2437                           tosl	equ	0x4FD
  2438                           stkptr	equ	0x4FC
  2439                           pclatu	equ	0x4FB
  2440                           pclath	equ	0x4FA
  2441                           pcl	equ	0x4F9
  2442                           tblptru	equ	0x4F8
  2443                           tblptrh	equ	0x4F7
  2444                           tblptrl	equ	0x4F6
  2445                           tablat	equ	0x4F5
  2446                           prodh	equ	0x4F4
  2447                           prodl	equ	0x4F3
  2448                           indf0	equ	0x4EF
  2449                           postinc0	equ	0x4EE
  2450                           postdec0	equ	0x4ED
  2451                           preinc0	equ	0x4EC
  2452                           plusw0	equ	0x4EB
  2453                           fsr0h	equ	0x4EA
  2454                           fsr0l	equ	0x4E9
  2455                           wreg	equ	0x4E8
  2456                           indf1	equ	0x4E7
  2457                           postinc1	equ	0x4E6
  2458                           postdec1	equ	0x4E5
  2459                           preinc1	equ	0x4E4
  2460                           plusw1	equ	0x4E3
  2461                           fsr1h	equ	0x4E2
  2462                           fsr1l	equ	0x4E1
  2463                           bsr	equ	0x4E0
  2464                           indf2	equ	0x4DF
  2465                           postinc2	equ	0x4DE
  2466                           postdec2	equ	0x4DD
  2467                           preinc2	equ	0x4DC
  2468                           plusw2	equ	0x4DB
  2469                           fsr2h	equ	0x4DA
  2470                           fsr2l	equ	0x4D9
  2471                           status	equ	0x4D8

Data Sizes:
    Strings     32
    Constant    0
    Data        0
    BSS         50
    Persistent  16
    Stack       0

Auto Spaces:
    Space          Size  Autos    Used
    COMRAM           95     32      82
    BANK5           160      0      16
    BANK6           256      0       0
    BANK7           256      0       0
    BANK8           256      0       0
    BANK9           256      0       0
    BANK10          256      0       0
    BANK11          256      0       0
    BANK12          256      0       0
    BANK13          256      0       0
    BANK14          256      0       0
    BANK15          256      0       0
    BANK16          256      0       0
    BANK17          256      0       0
    BANK18          256      0       0
    BANK19          256      0       0
    BANK20          256      0       0
    BANK21          256      0       0
    BANK22          256      0       0
    BANK23          256      0       0
    BANK24          256      0       0
    BANK25          256      0       0
    BANK26          256      0       0
    BANK27          256      0       0
    BANK28          256      0       0
    BANK29          256      0       0
    BANK30          256      0       0
    BANK31          256      0       0
    BANK32          256      0       0
    BANK33          256      0       0
    BANK34          256      0       0
    BANK35          256      0       0
    BANK36          256      0       0

Pointer List with Targets:

    sp__strchr	PTR unsigned char  size(2) Largest target is 2
		 -> STR_2(CODE[2]), NULL(NULL[0]), STR_1(CODE[2]), 

    strtok@p	PTR unsigned char  size(2) Largest target is 0
		 -> NULL(NULL[0]), 

    strcpy@dest	PTR unsigned char  size(2) Largest target is 16
		 -> main@string(COMRAM[16]), 

    strcpy@d	PTR unsigned char  size(2) Largest target is 16
		 -> main@string(COMRAM[16]), 

    strcpy@src	PTR const unsigned char  size(2) Largest target is 16
		 -> frame(BANK5[16]), 

    strcpy@s	PTR const unsigned char  size(2) Largest target is 16
		 -> frame(BANK5[16]), 

    sp__strtok	PTR unsigned char  size(2) Largest target is 0
		 -> NULL(NULL[0]), 

    sp__strcpy	PTR unsigned char  size(2) Largest target is 16
		 -> main@string(COMRAM[16]), 

    UART1_SetTxInterruptHandler@InterruptHandler	PTR FTN()void  size(3) Largest target is 1
		 -> UART1_Transmit_ISR(), 

    UART1_SetRxInterruptHandler@InterruptHandler	PTR FTN()void  size(3) Largest target is 1
		 -> UART1_Receive_ISR(), 

    UART1_SetErrorHandler@interruptHandler	PTR FTN()void  size(3) Largest target is 1
		 -> UART1_DefaultErrorHandler(), 

    UART1_SetOverrunErrorHandler@interruptHandler	PTR FTN()void  size(3) Largest target is 1
		 -> UART1_DefaultOverrunErrorHandler(), 

    UART1_SetFramingErrorHandler@interruptHandler	PTR FTN()void  size(3) Largest target is 1
		 -> UART1_DefaultFramingErrorHandler(), 

    UART1_ErrorHandler	PTR FTN()void  size(3) Largest target is 1
		 -> Absolute function(), UART1_DefaultErrorHandler(), 

    UART1_OverrunErrorHandler	PTR FTN()void  size(3) Largest target is 1
		 -> Absolute function(), UART1_DefaultOverrunErrorHandler(), 

    UART1_FramingErrorHandler	PTR FTN()void  size(3) Largest target is 1
		 -> Absolute function(), UART1_DefaultFramingErrorHandler(), 

    UART1_RxInterruptHandler	PTR FTN()void  size(3) Largest target is 1
		 -> Absolute function(), UART1_Receive_ISR(), 

    UART1_TxInterruptHandler	PTR FTN()void  size(3) Largest target is 1
		 -> Absolute function(), UART1_Transmit_ISR(), 


Critical Paths under _main in COMRAM

    _main->_strcpy
    _UART1_Initialize->_UART1_SetErrorHandler
    _UART1_Initialize->_UART1_SetFramingErrorHandler
    _UART1_Initialize->_UART1_SetOverrunErrorHandler
    _UART1_Initialize->_UART1_SetRxInterruptHandler
    _UART1_Initialize->_UART1_SetTxInterruptHandler

Critical Paths under _INTERRUPT_InterruptManager in COMRAM

    None.

Critical Paths under _main in BANK5

    None.

Critical Paths under _INTERRUPT_InterruptManager in BANK5

    None.

Critical Paths under _main in BANK6

    None.

Critical Paths under _INTERRUPT_InterruptManager in BANK6

    None.

Critical Paths under _main in BANK7

    None.

Critical Paths under _INTERRUPT_InterruptManager in BANK7

    None.

Critical Paths under _main in BANK8

    None.

Critical Paths under _INTERRUPT_InterruptManager in BANK8

    None.

Critical Paths under _main in BANK9

    None.

Critical Paths under _INTERRUPT_InterruptManager in BANK9

    None.

Critical Paths under _main in BANK10

    None.

Critical Paths under _INTERRUPT_InterruptManager in BANK10

    None.

Critical Paths under _main in BANK11

    None.

Critical Paths under _INTERRUPT_InterruptManager in BANK11

    None.

Critical Paths under _main in BANK12

    None.

Critical Paths under _INTERRUPT_InterruptManager in BANK12

    None.

Critical Paths under _main in BANK13

    None.

Critical Paths under _INTERRUPT_InterruptManager in BANK13

    None.

Critical Paths under _main in BANK14

    None.

Critical Paths under _INTERRUPT_InterruptManager in BANK14

    None.

Critical Paths under _main in BANK15

    None.

Critical Paths under _INTERRUPT_InterruptManager in BANK15

    None.

Critical Paths under _main in BANK16

    None.

Critical Paths under _INTERRUPT_InterruptManager in BANK16

    None.

Critical Paths under _main in BANK17

    None.

Critical Paths under _INTERRUPT_InterruptManager in BANK17

    None.

Critical Paths under _main in BANK18

    None.

Critical Paths under _INTERRUPT_InterruptManager in BANK18

    None.

Critical Paths under _main in BANK19

    None.

Critical Paths under _INTERRUPT_InterruptManager in BANK19

    None.

Critical Paths under _main in BANK20

    None.

Critical Paths under _INTERRUPT_InterruptManager in BANK20

    None.

Critical Paths under _main in BANK21

    None.

Critical Paths under _INTERRUPT_InterruptManager in BANK21

    None.

Critical Paths under _main in BANK22

    None.

Critical Paths under _INTERRUPT_InterruptManager in BANK22

    None.

Critical Paths under _main in BANK23

    None.

Critical Paths under _INTERRUPT_InterruptManager in BANK23

    None.

Critical Paths under _main in BANK24

    None.

Critical Paths under _INTERRUPT_InterruptManager in BANK24

    None.

Critical Paths under _main in BANK25

    None.

Critical Paths under _INTERRUPT_InterruptManager in BANK25

    None.

Critical Paths under _main in BANK26

    None.

Critical Paths under _INTERRUPT_InterruptManager in BANK26

    None.

Critical Paths under _main in BANK27

    None.

Critical Paths under _INTERRUPT_InterruptManager in BANK27

    None.

Critical Paths under _main in BANK28

    None.

Critical Paths under _INTERRUPT_InterruptManager in BANK28

    None.

Critical Paths under _main in BANK29

    None.

Critical Paths under _INTERRUPT_InterruptManager in BANK29

    None.

Critical Paths under _main in BANK30

    None.

Critical Paths under _INTERRUPT_InterruptManager in BANK30

    None.

Critical Paths under _main in BANK31

    None.

Critical Paths under _INTERRUPT_InterruptManager in BANK31

    None.

Critical Paths under _main in BANK32

    None.

Critical Paths under _INTERRUPT_InterruptManager in BANK32

    None.

Critical Paths under _main in BANK33

    None.

Critical Paths under _INTERRUPT_InterruptManager in BANK33

    None.

Critical Paths under _main in BANK34

    None.

Critical Paths under _INTERRUPT_InterruptManager in BANK34

    None.

Critical Paths under _main in BANK35

    None.

Critical Paths under _INTERRUPT_InterruptManager in BANK35

    None.

Critical Paths under _main in BANK36

    None.

Critical Paths under _INTERRUPT_InterruptManager in BANK36

    None.

Call Graph Tables:

 ---------------------------------------------------------------------------------
 (Depth) Function   	        Calls       Base Space   Used Autos Params    Refs
 ---------------------------------------------------------------------------------
 (0) _main                                                22    22      0     920
                                             10 COMRAM    22    22      0
                  _SYSTEM_Initialize
                             _strcpy
 ---------------------------------------------------------------------------------
 (1) _strcpy                                               8     4      4     248
                                              2 COMRAM     8     4      4
 ---------------------------------------------------------------------------------
 (1) _SYSTEM_Initialize                                    0     0      0     490
               _INTERRUPT_Initialize
              _OSCILLATOR_Initialize
             _PIN_MANAGER_Initialize
                     _PMD_Initialize
                   _UART1_Initialize
 ---------------------------------------------------------------------------------
 (2) _UART1_Initialize                                     0     0      0     490
              _UART1_SetErrorHandler
       _UART1_SetFramingErrorHandler
       _UART1_SetOverrunErrorHandler
        _UART1_SetRxInterruptHandler
        _UART1_SetTxInterruptHandler
 ---------------------------------------------------------------------------------
 (3) _UART1_SetTxInterruptHandler                          3     0      3      98
                                              2 COMRAM     3     0      3
 ---------------------------------------------------------------------------------
 (3) _UART1_SetRxInterruptHandler                          3     0      3      98
                                              2 COMRAM     3     0      3
 ---------------------------------------------------------------------------------
 (3) _UART1_SetOverrunErrorHandler                         3     0      3      98
                                              2 COMRAM     3     0      3
 ---------------------------------------------------------------------------------
 (3) _UART1_SetFramingErrorHandler                         3     0      3      98
                                              2 COMRAM     3     0      3
 ---------------------------------------------------------------------------------
 (3) _UART1_SetErrorHandler                                3     0      3      98
                                              2 COMRAM     3     0      3
 ---------------------------------------------------------------------------------
 (2) _PMD_Initialize                                       0     0      0       0
 ---------------------------------------------------------------------------------
 (2) _PIN_MANAGER_Initialize                               0     0      0       0
 ---------------------------------------------------------------------------------
 (2) _OSCILLATOR_Initialize                                0     0      0       0
 ---------------------------------------------------------------------------------
 (2) _INTERRUPT_Initialize                                 0     0      0       0
 ---------------------------------------------------------------------------------
 Estimated maximum stack depth 3
 ---------------------------------------------------------------------------------
 (Depth) Function   	        Calls       Base Space   Used Autos Params    Refs
 ---------------------------------------------------------------------------------
 (4) _INTERRUPT_InterruptManager                           2     2      0       0
                                              0 COMRAM     2     2      0
                   Absolute function *
                  _UART1_Receive_ISR *
                 _UART1_Transmit_ISR *
 ---------------------------------------------------------------------------------
 (5) _UART1_Transmit_ISR                                   0     0      0       0
 ---------------------------------------------------------------------------------
 (5) _UART1_Receive_ISR                                    0     0      0       0
                   Absolute function *
          _UART1_DefaultErrorHandler *
   _UART1_DefaultFramingErrorHandler *
   _UART1_DefaultOverrunErrorHandler *
                _UART1_RxDataHandler
 ---------------------------------------------------------------------------------
 (6) _UART1_DefaultOverrunErrorHandler                     0     0      0       0
 ---------------------------------------------------------------------------------
 (6) _UART1_DefaultFramingErrorHandler                     0     0      0       0
 ---------------------------------------------------------------------------------
 (6) _UART1_DefaultErrorHandler                            0     0      0       0
                _UART1_RxDataHandler
 ---------------------------------------------------------------------------------
 (6) _UART1_RxDataHandler                                  0     0      0       0
 ---------------------------------------------------------------------------------
 (6) Absolute function(Fake)                               0     0      0       0
 ---------------------------------------------------------------------------------
 Estimated maximum stack depth 6
 ---------------------------------------------------------------------------------

 Call Graph Graphs:

 _main (ROOT)
   _SYSTEM_Initialize
     _INTERRUPT_Initialize
     _OSCILLATOR_Initialize
     _PIN_MANAGER_Initialize
     _PMD_Initialize
     _UART1_Initialize
       _UART1_SetErrorHandler
       _UART1_SetFramingErrorHandler
       _UART1_SetOverrunErrorHandler
       _UART1_SetRxInterruptHandler
       _UART1_SetTxInterruptHandler
   _strcpy

 _INTERRUPT_InterruptManager (ROOT)
   Absolute function(Fake) *
   _UART1_Receive_ISR *
     Absolute function(Fake) *
     _UART1_DefaultErrorHandler *
       _UART1_RxDataHandler
     _UART1_DefaultFramingErrorHandler *
     _UART1_DefaultOverrunErrorHandler *
     _UART1_RxDataHandler *
   _UART1_Transmit_ISR *

 Address spaces:
Name               Size   Autos  Total    Cost      Usage
BIGRAM            1FFF      0       0      70        0.0%
EEDATA             400      0       0       0        0.0%
BITBIGSFRllllll    175      0       0      88        0.0%
BITBIGSFRllllll    14C      0       0      82        0.0%
BITBIGSFR_1        100      0       0      69        0.0%
BITBANK36          100      0       0      67        0.0%
BANK36             100      0       0      68        0.0%
BITBANK35          100      0       0      65        0.0%
BANK35             100      0       0      66        0.0%
BITBANK34          100      0       0      63        0.0%
BANK34             100      0       0      64        0.0%
BITBANK33          100      0       0      61        0.0%
BANK33             100      0       0      62        0.0%
BITBANK32          100      0       0      59        0.0%
BANK32             100      0       0      60        0.0%
BITBANK31          100      0       0      57        0.0%
BANK31             100      0       0      58        0.0%
BITBANK30          100      0       0      55        0.0%
BANK30             100      0       0      56        0.0%
BITBANK29          100      0       0      53        0.0%
BANK29             100      0       0      54        0.0%
BITBANK28          100      0       0      51        0.0%
BANK28             100      0       0      52        0.0%
BITBANK27          100      0       0      49        0.0%
BANK27             100      0       0      50        0.0%
BITBANK26          100      0       0      47        0.0%
BANK26             100      0       0      48        0.0%
BITBANK25          100      0       0      45        0.0%
BANK25             100      0       0      46        0.0%
BITBANK24          100      0       0      42        0.0%
BANK24             100      0       0      43        0.0%
BITBANK23          100      0       0      40        0.0%
BANK23             100      0       0      41        0.0%
BITBANK22          100      0       0      38        0.0%
BANK22             100      0       0      39        0.0%
BITBANK21          100      0       0      36        0.0%
BANK21             100      0       0      37        0.0%
BITBANK20          100      0       0      34        0.0%
BANK20             100      0       0      35        0.0%
BITBANK19          100      0       0      32        0.0%
BANK19             100      0       0      33        0.0%
BITBANK18          100      0       0      30        0.0%
BANK18             100      0       0      31        0.0%
BITBANK17          100      0       0      28        0.0%
BANK17             100      0       0      29        0.0%
BITBANK16          100      0       0      26        0.0%
BANK16             100      0       0      27        0.0%
BITBANK15          100      0       0      24        0.0%
BANK15             100      0       0      25        0.0%
BITBANK14          100      0       0      22        0.0%
BANK14             100      0       0      23        0.0%
BITBANK13          100      0       0      20        0.0%
BANK13             100      0       0      21        0.0%
BITBANK12          100      0       0      18        0.0%
BANK12             100      0       0      19        0.0%
BITBANK11          100      0       0      16        0.0%
BANK11             100      0       0      17        0.0%
BITBANK10          100      0       0      14        0.0%
BANK10             100      0       0      15        0.0%
BITBANK9           100      0       0      12        0.0%
BANK9              100      0       0      13        0.0%
BITBANK8           100      0       0      10        0.0%
BANK8              100      0       0      11        0.0%
BITBANK7           100      0       0       8        0.0%
BANK7              100      0       0       9        0.0%
BITBANK6           100      0       0       6        0.0%
BANK6              100      0       0       7        0.0%
BITBANK5            A0      0       0       4        0.0%
BANK5               A0      0      10       5       10.0%
BITBIGSFRllhhhl     75      0       0      76        0.0%
BITBIGSFRllllll     60      0       0      93        0.0%
BITCOMRAM           5F      0       0       0        0.0%
COMRAM              5F     20      52       1       86.3%
BITBIGSFRllllll     48      0       0      87        0.0%
BITBIGSFRllllll     43      0       0      91        0.0%
BITBIGSFRhhh        29      0       0      71        0.0%
BITBIGSFRllllll     17      0       0      85        0.0%
BITBIGSFRllllll     13      0       0      86        0.0%
BITBIGSFRllhhhh      F      0       0      75        0.0%
BITBIGSFRllhhhh      B      0       0      74        0.0%
BITBIGSFRhhl         A      0       0      72        0.0%
BITBIGSFRlllllh      3      0       0      81        0.0%
BITBIGSFRllhhl       3      0       0      77        0.0%
BITBIGSFRllllh       3      0       0      80        0.0%
BITBIGSFRlllh        3      0       0      79        0.0%
BITBIGSFRllhl        3      0       0      78        0.0%
BITBIGSFRhll         2      0       0      73        0.0%
BITBIGSFRllllll      1      0       0      92        0.0%
BITBIGSFRllllll      1      0       0      89        0.0%
BITBIGSFRllllll      1      0       0      90        0.0%
BITBIGSFRllllll      1      0       0      84        0.0%
BITBIGSFRllllll      1      0       0      83        0.0%
BIGSFR_1             0      0       0     200        0.0%
BIGSFR               0      0       0     200        0.0%
BITSFR_6             0      0       0     200        0.0%
SFR_6                0      0       0     200        0.0%
BITSFR_5             0      0       0     200        0.0%
SFR_5                0      0       0     200        0.0%
BITSFR_4             0      0       0     200        0.0%
SFR_4                0      0       0     200        0.0%
BITSFR_3             0      0       0     200        0.0%
SFR_3                0      0       0     200        0.0%
BITSFR_2             0      0       0     200        0.0%
SFR_2                0      0       0     200        0.0%
BITSFR_1             0      0       0     200        0.0%
SFR_1                0      0       0     200        0.0%
BITSFR               0      0       0     200        0.0%
SFR                  0      0       0     200        0.0%
STACK                0      0       0       2        0.0%
NULL                 0      0       0       0        0.0%
ABS                  0      0      62      44        0.0%
DATA                 0      0      62       3        0.0%
CODE                 0      0       0       0        0.0%


Microchip Technology PIC18 Macro Assembler V2.40 build 20220703182018 
Symbol Table                                                                                   Sun Jun 18 23:29:39 2023

                                          l99 29B6                                           l115 2BC4  
                                         l221 290C                                           l341 2B74  
                                         l344 2B5E                                           l290 2BBA  
                                         l347 2B42                                           l284 2BAC  
                                         l372 26BE                                           l293 2B90  
                                         l287 2B9E                                           l296 2B82  
                                         l369 267C                                           u510 2AB8  
                                         u511 2AB4                                           u600 269C  
                                         u601 2698                                           u610 26AC  
                                         u611 26A6                                           u620 26DE  
                                         u621 26DA                                           u630 26EE  
                                         u631 26E8                                           u640 272C  
                                         u616 26AE                                           u641 2728  
                                         u650 2770                                           u651 276C  
                                         u660 2794                                           u636 26F0  
                                         u580 265C                                           u661 2790  
                                         u581 2658                                           u590 266C  
                                         u591 2666                                           u596 266E  
                                         tosl 0004FD                                           wreg 0004E8  
                          _UART1_Transmit_ISR 2A3A                                          l1107 2AB8  
                                        l1700 2936                                          l1710 2992  
                                        l1702 2938                                          l1720 29A0  
                                        l1712 2994                                          l1704 293C  
                                        l1800 2B60                                          l1722 29A2  
                                        l1714 2996                                          l1706 294A  
                                        l1730 285C                                          l1802 2B64  
                                        l1810 2A7C                                          l1724 29A4  
                                        l1716 299C                                          l1708 2990  
                                        l1740 288A                                          l1732 285E  
                                        l1804 2B68                                          l1812 2A8C  
                                        l1726 29AA                                          l1718 299E  
                                        l1750 289E                                          l1742 288E  
                                        l1734 286E                                          l1806 2B6C  
                                        l1830 263C                                          l1728 2BC2  
                                        l1680 2BA0                                          l1760 28B2  
                                        l1752 28A2                                          l1744 2892  
                                        l1736 2880                                          l1808 2B70  
                                        l1840 270E                                          l1832 265C  
                                        l1824 2622                                          l1682 2B92  
                                        l1770 28DE                                          l1762 28B6  
                                        l1754 28A6                                          l1746 2896  
                                        l1738 2886                                          l1842 272C  
                                        l1850 2774                                          l1834 269C  
                                        l1826 2626                                          l1684 2BAE  
                                        l1676 2B84                                          l1772 290A  
                                        l1764 28BA                                          l1756 28AA  
                                        l1748 289A                                          l1844 2740  
                                        l1852 2778                                          l1836 26DE  
                                        l1828 2628                                          l1694 290E  
                                        l1678 2B76                                          l1766 28BE  
                                        l1758 28AE                                          l1846 2750  
                                        l1838 2702                                          l1696 292E  
                                        l1776 2B20                                          l1768 28CE  
                                        l1848 2754                                          l1778 2B44  
                                        l1698 2934                                          STR_1 261F  
                                        STR_3 260A                                          STR_4 2601  
                                        STR_5 2617                                          STR_8 261B  
                                        STR_9 2613                                          _LATA 0004BE  
                                        _LATB 0004BF                                          _LATC 0004C0  
                                        _LATD 0004C1                                          _LATE 0004C2  
                                        _LATF 0004C3                                          _PMD0 000060  
                                        _PMD1 000061                                          _PMD3 000063  
                                        _PMD4 000064                                          _PMD5 000065  
                                        _PMD6 000066                                          _PMD7 000067  
                                        _PMD8 000068                                          _WPUA 000401  
                                        _WPUB 000409                                          _WPUC 000411  
                                        _WPUD 000419                                          _WPUE 000421  
                                        _WPUF 000429                           ?_UART1_Transmit_ISR 0523  
                                        _main 2622                                          fsr1h 0004E2  
                                        fsr2h 0004DA                                          indf1 0004E7  
                                        indf2 0004DF                                          fsr1l 0004E1  
                                        fsr2l 0004D9                                          start 001A  
               ??_UART1_SetTxInterruptHandler 0528                                  ___param_bank 000000  
                        ??_UART1_Transmit_ISR 0523                 __end_of_OSCILLATOR_Initialize 2B60  
                                       ?_main 0523                                         _U1P1H 0002A6  
                                       _U1P2H 0002A8                                         _U1P3H 0002AA  
                                       _U1P1L 0002A5                                         _U1P2L 0002A7  
                                       _U1P3L 0002A9                                         _U1UIR 0002B1  
                                       _U1RXB 0002A1                                         i2l120 29FA  
                                       _U1TXB 0002A3                                         i2l124 2A30  
                                       i2l261 2A7A                                         i2l272 2AF2  
                                       i2l281 2BC0                                         i2l258 2A78  
                                       i2l275 2BC8                                         i2l268 285A  
                                       i2l278 2BC6                                         _OSCEN 0000B3  
                                       _TRISA 0004C6                                         _TRISB 0004C7  
                                       _TRISC 0004C8                                         _TRISD 0004C9  
                                       _TRISE 0004CA                                         _TRISF 0004CB  
                                       _frame 0560                                         _index 051B  
                                       main@i 053F                                         pclath 0004FA  
                                       pclatu 0004FB                                         status 0004D8  
         __end_of_UART1_SetRxInterruptHandler 2B92                   _UART1_SetRxInterruptHandler 2B84  
         fp__UART1_DefaultFramingErrorHandler 0000      __end_of_UART1_DefaultFramingErrorHandler 2BCA  
          ??_UART1_DefaultFramingErrorHandler 0523             ?_UART1_DefaultFramingErrorHandler 0523  
            _UART1_DefaultFramingErrorHandler 2BC8                               __initialization 2AF4  
                                __end_of_main 279C                   ??_UART1_DefaultErrorHandler 0523  
                 ?_INTERRUPT_InterruptManager 0523                                        ??_main 052D  
                               __activetblptr 000003                              _UART1_Initialize 285C  
                                      _ACTCON 0000AC                                        _ANSELA 000400  
                                      _ANSELB 000408                                        _ANSELC 000410  
                                      _ANSELD 000418                                        _ANSELE 000420  
                                      _ANSELF 000428                                        _RB1I2C 000289  
                                      _RB2I2C 000288                                        _U1CON0 0002AB  
                                      _U1CON1 0002AC                                        _U1CON2 0002AD  
                                      _RC3I2C 000287                                        _RC4I2C 000286  
                                      _U1BRGH 0002AF                                        _U1FIFO 0002B0  
                                      _U1BRGL 0002AE                                        _ODCONA 000402  
                                      _ODCONB 00040A                                        _ODCONC 000412  
                                      _RF0PPS 000229                                        _ODCOND 00041A  
                                      _ODCONE 000422                                        _ODCONF 00042A  
                                      i2l1520 2A5E                                        i2l1522 2A6E  
                                      i2l1514 2A3A                                        i2l1524 2A72  
                                      i2l1516 2A4A                                        i2l1518 2A5C  
                                      i2l1820 2A08                                        i2l1822 2A16  
                                      i2l1814 29C0                                        i2l1816 29CE  
                                      i2l1690 2ACE                                        i2l1818 29DC  
                                      i2l1692 2AEA                                        i2l1780 279C  
                                      i2l1686 2ABA                                        i2l1774 2BBC  
                                      i2l1790 27F4                                        i2l1782 27AC  
                                      i2l1688 2ACA                                        i2l1792 2802  
                                      i2l1784 27BC                                        i2l1794 281C  
                                      i2l1786 27CA                                        i2l1796 2838  
                                      i2l1788 27E4                                        i2l1798 2856  
                                      _INLVLA 000404                                        _INLVLB 00040C  
                                      _INLVLC 000414                                        _INLVLD 00041C  
                                      _INLVLE 000424                                        _INLVLF 00042C  
                                      _OSCFRQ 0000B1                                        i2u7_40 2A4A  
                                      i2u7_41 2A46                                        i2u8_40 2A6E  
                                      i2u8_41 2A6A                         _UART1_SetErrorHandler 2BAE  
                                      clear_0 2AFA                                        clear_1 2B06  
                                      isa$std 000001                                        _strcpy 2A7C  
                              _PMD_Initialize 2B20                                  __mediumconst 0000  
 UART1_SetTxInterruptHandler@InterruptHandler 0525   UART1_SetRxInterruptHandler@InterruptHandler 0525  
        __end_of_UART1_SetOverrunErrorHandler 2BA0                  _UART1_SetOverrunErrorHandler 2B92  
                   _UART1_DefaultErrorHandler 2BBC                             _SYSTEM_Initialize 2B60  
                                  __accesstop 0560                       __end_of__initialization 2B1A  
                          ?_SYSTEM_Initialize 0523                                 ___rparam_used 000001  
                              __pcstackCOMRAM 0523                           ??_SYSTEM_Initialize 0528  
                      __end_of_PMD_Initialize 2B44                     _UART1_FramingErrorHandler 0549  
                   __end_of_SYSTEM_Initialize 2B76                                    __pbssBANK5 0560  
               ?_UART1_SetOverrunErrorHandler 0525                        ?_UART1_SetErrorHandler 0525  
                                  __pnvCOMRAM 0543                                       IVTBASEH 00045E  
                                     IVTBASEL 00045D                                       IVTBASEU 00045F  
                             ?_PMD_Initialize 0523                             _UART1_Receive_ISR 279C  
                                     ?_strcpy 0525                                       _U1ERRIE 0002B3  
                                     _U1ERRIR 0002B2                            ?_UART1_Receive_ISR 0523  
                                     _U1RXPPS 000272                                       _OSCCON1 0000AD  
                                     _OSCCON3 0000AF                                       i2u50_48 283E  
                                     i2u50_49 2852                                       i2u44_40 2AEA  
                                     i2u52_40 29CE                                       i2u44_41 2AE6  
                                     i2u52_41 29CA                                       i2u45_40 27BC  
                                     i2u53_40 29DC                                       i2u45_41 27B8  
                                     i2u53_41 29D8                                       _OSCTUNE 0000B0  
                                     i2u47_40 27F4                                       i2u46_48 27D0  
                                     i2u55_40 2A08                                       i2u54_48 29E2  
                                     i2u47_41 27F0                                       i2u46_49 27E4  
                                     i2u55_41 2A04                                       i2u54_49 29F6  
                                     i2u56_40 2A16                                       i2u56_41 2A12  
                                     i2u49_40 2838                                       i2u48_48 2808  
                                     i2u49_41 2834                                       i2u48_49 281C  
                                     i2u57_48 2A1C                                       i2u57_49 2A30  
                                     _SLRCONA 000403                                       _SLRCONB 00040B  
                                     _SLRCONC 000413                                       _SLRCOND 00041B  
                                     _SLRCONE 000423                                       _SLRCONF 00042B  
                         ??_UART1_Receive_ISR 0523                                       __Hparam 0000  
                                     __Lparam 0000                      __end_of_UART1_Initialize 290E  
                   __end_of_UART1_Receive_ISR 285C                                  __psmallconst 2600  
                                     __pcinit 2AF4                                       __ramtop 2600  
                                     __ptext0 2622                                       __ptext1 2A7C  
                                     __ptext2 2B60                                       __ptext3 285C  
                                     __ptext4 2B76                                       __ptext5 2B84  
                                     __ptext6 2B92                                       __ptext7 2BA0  
                                     __ptext8 2BAE                                       __ptext9 2B20  
                       _OSCILLATOR_Initialize 2B44                      ??_PIN_MANAGER_Initialize 0525  
                        end_of_initialization 2B1A           __end_of_UART1_SetTxInterruptHandler 2B84  
                 _UART1_SetTxInterruptHandler 2B76                ??_UART1_SetOverrunErrorHandler 0528  
                                     postinc0 0004EE                                       postinc2 0004DE  
                         _UART1_RxDataHandler 2ABA                                       strcpy@d 052B  
                                     strcpy@s 0529                                       strtok@p 0519  
                        ?_UART1_RxDataHandler 0523                                    main@string 052F  
                __end_of_INTERRUPT_Initialize 2BC6                        ?_OSCILLATOR_Initialize 0523  
                              __end_of_strcpy 2ABA                           start_initialization 2AF4  
                     ??_UART1_SetErrorHandler 0528                         ??_UART1_RxDataHandler 0523  
                                  ivt0x8_base 0008                                 _uart1RxBuffer 0509  
                               _uart1TxBuffer 0511                              ??_PMD_Initialize 0525  
                                    ??_strcpy 0529                                   __pbssCOMRAM 0501  
                          _UART1_ErrorHandler 0543                      _UART1_RxInterruptHandler 054F  
                fp__UART1_DefaultErrorHandler 0000                  ?_UART1_SetRxInterruptHandler 0525  
                      _PIN_MANAGER_Initialize 290E                             ?_UART1_Initialize 0523  
        __end_of_UART1_SetFramingErrorHandler 2BAE                  _UART1_SetFramingErrorHandler 2BA0  
                          ??_UART1_Initialize 0528                              _uart1RxLastError 051D  
                ??_INTERRUPT_InterruptManager 0523                                   __smallconst 2600  
         fp__UART1_DefaultOverrunErrorHandler 0000      __end_of_UART1_DefaultOverrunErrorHandler 2BC8  
          ??_UART1_DefaultOverrunErrorHandler 0523             ?_UART1_DefaultOverrunErrorHandler 0523  
            _UART1_DefaultOverrunErrorHandler 2BC6                                   _U1ERRIRbits 0002B2  
                        _INTERRUPT_Initialize 2BC2         UART1_SetErrorHandler@interruptHandler 0525  
                                    _LATBbits 0004BF                                      _PIE4bits 0004A2  
               ??_UART1_SetRxInterruptHandler 0528                                      _PIR4bits 0004B2  
                  __end_of_UART1_Transmit_ISR 2A7C                 ?_UART1_SetFramingErrorHandler 0525  
                                   main@i_485 0541                                   _INTCON0bits 0004D6  
                       ?_INTERRUPT_Initialize 0523                          fp__UART1_Receive_ISR 0000  
                      _uart1TxBufferRemaining 0552                                  _uart1RxCount 051E  
                                    __Hrparam 0000                                      __Lrparam 0000  
                     ??_OSCILLATOR_Initialize 0525                                      __pivt0x8 0008  
                                    __ptext10 290E                                      __ptext11 2B44  
                                    __ptext20 0000                                      __ptext12 2BC2  
                                    __ptext13 29B8                                      __ptext14 2A3A  
                                    __ptext15 279C                                      __ptext16 2BC6  
                                    __ptext17 2BC8                                      __ptext18 2BBC  
                                    __ptext19 2ABA                 __end_of_UART1_SetErrorHandler 2BBC  
                                  strcpy@dest 0525                     _UART1_OverrunErrorHandler 0546  
UART1_SetOverrunErrorHandler@interruptHandler 0525                                      isa$xinst 000000  
                  ?_UART1_DefaultErrorHandler 0523            __end_of_INTERRUPT_InterruptManager 2A3A  
                  _INTERRUPT_InterruptManager 29B8                         fp__UART1_Transmit_ISR 0000  
              ??_UART1_SetFramingErrorHandler 0528                   __end_of_UART1_RxDataHandler 2AF4  
                                 _uart1RxHead 0520                                   _uart1TxHead 0522  
                                 _uart1RxTail 051F                                   _uart1TxTail 0521  
                      ??_INTERRUPT_Initialize 0525                                      intlevel2 0000  
                     ?_PIN_MANAGER_Initialize 0523                                     strcpy@src 0527  
                         _uart1RxStatusBuffer 0501  UART1_SetFramingErrorHandler@interruptHandler 0525  
           __end_of_UART1_DefaultErrorHandler 2BC2                      _UART1_TxInterruptHandler 054C  
              __end_of_PIN_MANAGER_Initialize 29B8                  ?_UART1_SetTxInterruptHandler 0525  
